
usbcan_fw_v2.elf:     file format elf32-littlearm

Sections:
Idx Name          Size      VMA       LMA       File off  Algn
  0 .isr_vector   00000188  08000000  08000000  00010000  2**0
                  CONTENTS, ALLOC, LOAD, READONLY, DATA
  1 .text         00005964  08000188  08000188  00010188  2**2
                  CONTENTS, ALLOC, LOAD, READONLY, CODE
  2 .rodata       00000090  08005aec  08005aec  00015aec  2**2
                  CONTENTS, ALLOC, LOAD, READONLY, DATA
  3 .ARM.extab    00000000  08005b7c  08005b7c  000201d8  2**0
                  CONTENTS
  4 .ARM          00000000  08005b7c  08005b7c  000201d8  2**0
                  CONTENTS
  5 .preinit_array 00000000  08005b7c  08005b7c  000201d8  2**0
                  CONTENTS, ALLOC, LOAD, DATA
  6 .init_array   00000008  08005b7c  08005b7c  00015b7c  2**2
                  CONTENTS, ALLOC, LOAD, DATA
  7 .fini_array   00000004  08005b84  08005b84  00015b84  2**2
                  CONTENTS, ALLOC, LOAD, DATA
  8 .data         000001d8  20000000  08005b88  00020000  2**2
                  CONTENTS, ALLOC, LOAD, DATA
  9 .bss          00001460  200001d8  08005d60  000201d8  2**2
                  ALLOC
 10 ._user_heap_stack 00003000  20001638  08005d60  00021638  2**0
                  ALLOC
 11 .ARM.attributes 00000030  00000000  00000000  000201d8  2**0
                  CONTENTS, READONLY
 12 .comment      00000043  00000000  00000000  00020208  2**0
                  CONTENTS, READONLY
 13 .debug_info   0001d150  00000000  00000000  0002024b  2**0
                  CONTENTS, READONLY, DEBUGGING, OCTETS
 14 .debug_abbrev 00004885  00000000  00000000  0003d39b  2**0
                  CONTENTS, READONLY, DEBUGGING, OCTETS
 15 .debug_aranges 00001140  00000000  00000000  00041c20  2**3
                  CONTENTS, READONLY, DEBUGGING, OCTETS
 16 .debug_rnglists 00000fed  00000000  00000000  00042d60  2**0
                  CONTENTS, READONLY, DEBUGGING, OCTETS
 17 .debug_macro  00023f2b  00000000  00000000  00043d4d  2**0
                  CONTENTS, READONLY, DEBUGGING, OCTETS
 18 .debug_line   0001e6e2  00000000  00000000  00067c78  2**0
                  CONTENTS, READONLY, DEBUGGING, OCTETS
 19 .debug_str    000b393c  00000000  00000000  0008635a  2**0
                  CONTENTS, READONLY, DEBUGGING, OCTETS
 20 .debug_frame  00002c4c  00000000  00000000  00139c98  2**2
                  CONTENTS, READONLY, DEBUGGING, OCTETS
 21 .debug_loclists 0000bb08  00000000  00000000  0013c8e4  2**0
                  CONTENTS, READONLY, DEBUGGING, OCTETS
 22 .debug_line_str 0000004e  00000000  00000000  001483ec  2**0
                  CONTENTS, READONLY, DEBUGGING, OCTETS

Disassembly of section .text:

08000188 <__do_global_dtors_aux>:
 8000188:	b510      	push	{r4, lr}
 800018a:	4c05      	ldr	r4, [pc, #20]	; (80001a0 <__do_global_dtors_aux+0x18>)
 800018c:	7823      	ldrb	r3, [r4, #0]
 800018e:	b933      	cbnz	r3, 800019e <__do_global_dtors_aux+0x16>
 8000190:	4b04      	ldr	r3, [pc, #16]	; (80001a4 <__do_global_dtors_aux+0x1c>)
 8000192:	b113      	cbz	r3, 800019a <__do_global_dtors_aux+0x12>
 8000194:	4804      	ldr	r0, [pc, #16]	; (80001a8 <__do_global_dtors_aux+0x20>)
 8000196:	f3af 8000 	nop.w
 800019a:	2301      	movs	r3, #1
 800019c:	7023      	strb	r3, [r4, #0]
 800019e:	bd10      	pop	{r4, pc}
 80001a0:	200001d8 	.word	0x200001d8
 80001a4:	00000000 	.word	0x00000000
 80001a8:	08005ad4 	.word	0x08005ad4

080001ac <frame_dummy>:
 80001ac:	b508      	push	{r3, lr}
 80001ae:	4b03      	ldr	r3, [pc, #12]	; (80001bc <frame_dummy+0x10>)
 80001b0:	b11b      	cbz	r3, 80001ba <frame_dummy+0xe>
 80001b2:	4903      	ldr	r1, [pc, #12]	; (80001c0 <frame_dummy+0x14>)
 80001b4:	4803      	ldr	r0, [pc, #12]	; (80001c4 <frame_dummy+0x18>)
 80001b6:	f3af 8000 	nop.w
 80001ba:	bd08      	pop	{r3, pc}
 80001bc:	00000000 	.word	0x00000000
 80001c0:	200001dc 	.word	0x200001dc
 80001c4:	08005ad4 	.word	0x08005ad4

080001c8 <_ZN9MotorCtrl5resetEh>:
		param.e_pre[ReceiveID-0x201] = e;
	}
	return true;
}

void MotorCtrl::reset(uint8_t i){
 80001c8:	b480      	push	{r7}
 80001ca:	b083      	sub	sp, #12
 80001cc:	af00      	add	r7, sp, #0
 80001ce:	6078      	str	r0, [r7, #4]
 80001d0:	460b      	mov	r3, r1
 80001d2:	70fb      	strb	r3, [r7, #3]
		value1[i]=0;
 80001d4:	78fb      	ldrb	r3, [r7, #3]
 80001d6:	687a      	ldr	r2, [r7, #4]
 80001d8:	4413      	add	r3, r2
 80001da:	2200      	movs	r2, #0
 80001dc:	f883 2154 	strb.w	r2, [r3, #340]	; 0x154
		value2[i]=0;
 80001e0:	78fb      	ldrb	r3, [r7, #3]
 80001e2:	687a      	ldr	r2, [r7, #4]
 80001e4:	4413      	add	r3, r2
 80001e6:	2200      	movs	r2, #0
 80001e8:	f883 215c 	strb.w	r2, [r3, #348]	; 0x15c
		param.target[i]=0;
 80001ec:	78fb      	ldrb	r3, [r7, #3]
 80001ee:	687a      	ldr	r2, [r7, #4]
 80001f0:	3310      	adds	r3, #16
 80001f2:	009b      	lsls	r3, r3, #2
 80001f4:	4413      	add	r3, r2
 80001f6:	f04f 0200 	mov.w	r2, #0
 80001fa:	601a      	str	r2, [r3, #0]
		param.mode[i]=Mode::dis;
 80001fc:	78fa      	ldrb	r2, [r7, #3]
 80001fe:	687b      	ldr	r3, [r7, #4]
 8000200:	2100      	movs	r1, #0
 8000202:	f843 1022 	str.w	r1, [r3, r2, lsl #2]
		param.gool[i]=0;
 8000206:	78fb      	ldrb	r3, [r7, #3]
 8000208:	687a      	ldr	r2, [r7, #4]
 800020a:	3308      	adds	r3, #8
 800020c:	009b      	lsls	r3, r3, #2
 800020e:	4413      	add	r3, r2
 8000210:	f04f 0200 	mov.w	r2, #0
 8000214:	601a      	str	r2, [r3, #0]
		param.e_pre[i]=0;
 8000216:	78fb      	ldrb	r3, [r7, #3]
 8000218:	687a      	ldr	r2, [r7, #4]
 800021a:	3318      	adds	r3, #24
 800021c:	009b      	lsls	r3, r3, #2
 800021e:	4413      	add	r3, r2
 8000220:	f04f 0200 	mov.w	r2, #0
 8000224:	601a      	str	r2, [r3, #0]
}
 8000226:	bf00      	nop
 8000228:	370c      	adds	r7, #12
 800022a:	46bd      	mov	sp, r7
 800022c:	f85d 7b04 	ldr.w	r7, [sp], #4
 8000230:	4770      	bx	lr

08000232 <_ZN9MotorCtrl7setModeEPh>:

void MotorCtrl::setMode(uint8_t usb_msg[]){
 8000232:	b580      	push	{r7, lr}
 8000234:	b084      	sub	sp, #16
 8000236:	af00      	add	r7, sp, #0
 8000238:	6078      	str	r0, [r7, #4]
 800023a:	6039      	str	r1, [r7, #0]
	for(int i =0;i<8;i++){
 800023c:	2300      	movs	r3, #0
 800023e:	60fb      	str	r3, [r7, #12]
 8000240:	e049      	b.n	80002d6 <_ZN9MotorCtrl7setModeEPh+0xa4>
		if(usb_msg[i]==0){
 8000242:	68fb      	ldr	r3, [r7, #12]
 8000244:	683a      	ldr	r2, [r7, #0]
 8000246:	4413      	add	r3, r2
 8000248:	781b      	ldrb	r3, [r3, #0]
 800024a:	2b00      	cmp	r3, #0
 800024c:	d10b      	bne.n	8000266 <_ZN9MotorCtrl7setModeEPh+0x34>
			param.mode[i] = Mode::dis;
 800024e:	687b      	ldr	r3, [r7, #4]
 8000250:	68fa      	ldr	r2, [r7, #12]
 8000252:	2100      	movs	r1, #0
 8000254:	f843 1022 	str.w	r1, [r3, r2, lsl #2]
			reset(i);
 8000258:	68fb      	ldr	r3, [r7, #12]
 800025a:	b2db      	uxtb	r3, r3
 800025c:	4619      	mov	r1, r3
 800025e:	6878      	ldr	r0, [r7, #4]
 8000260:	f7ff ffb2 	bl	80001c8 <_ZN9MotorCtrl5resetEh>
 8000264:	e034      	b.n	80002d0 <_ZN9MotorCtrl7setModeEPh+0x9e>
		}else if(usb_msg[i]==1){
 8000266:	68fb      	ldr	r3, [r7, #12]
 8000268:	683a      	ldr	r2, [r7, #0]
 800026a:	4413      	add	r3, r2
 800026c:	781b      	ldrb	r3, [r3, #0]
 800026e:	2b01      	cmp	r3, #1
 8000270:	d10b      	bne.n	800028a <_ZN9MotorCtrl7setModeEPh+0x58>
			param.mode[i] = Mode::vel;
 8000272:	687b      	ldr	r3, [r7, #4]
 8000274:	68fa      	ldr	r2, [r7, #12]
 8000276:	2101      	movs	r1, #1
 8000278:	f843 1022 	str.w	r1, [r3, r2, lsl #2]
			reset(i);
 800027c:	68fb      	ldr	r3, [r7, #12]
 800027e:	b2db      	uxtb	r3, r3
 8000280:	4619      	mov	r1, r3
 8000282:	6878      	ldr	r0, [r7, #4]
 8000284:	f7ff ffa0 	bl	80001c8 <_ZN9MotorCtrl5resetEh>
 8000288:	e022      	b.n	80002d0 <_ZN9MotorCtrl7setModeEPh+0x9e>
		}else if(usb_msg[i]==2){
 800028a:	68fb      	ldr	r3, [r7, #12]
 800028c:	683a      	ldr	r2, [r7, #0]
 800028e:	4413      	add	r3, r2
 8000290:	781b      	ldrb	r3, [r3, #0]
 8000292:	2b02      	cmp	r3, #2
 8000294:	d10b      	bne.n	80002ae <_ZN9MotorCtrl7setModeEPh+0x7c>
			param.mode[i] = Mode::pos;
 8000296:	687b      	ldr	r3, [r7, #4]
 8000298:	68fa      	ldr	r2, [r7, #12]
 800029a:	2102      	movs	r1, #2
 800029c:	f843 1022 	str.w	r1, [r3, r2, lsl #2]
			reset(i);
 80002a0:	68fb      	ldr	r3, [r7, #12]
 80002a2:	b2db      	uxtb	r3, r3
 80002a4:	4619      	mov	r1, r3
 80002a6:	6878      	ldr	r0, [r7, #4]
 80002a8:	f7ff ff8e 	bl	80001c8 <_ZN9MotorCtrl5resetEh>
 80002ac:	e010      	b.n	80002d0 <_ZN9MotorCtrl7setModeEPh+0x9e>
		}else if(usb_msg[i]==3){
 80002ae:	68fb      	ldr	r3, [r7, #12]
 80002b0:	683a      	ldr	r2, [r7, #0]
 80002b2:	4413      	add	r3, r2
 80002b4:	781b      	ldrb	r3, [r3, #0]
 80002b6:	2b03      	cmp	r3, #3
 80002b8:	d10a      	bne.n	80002d0 <_ZN9MotorCtrl7setModeEPh+0x9e>
			param.mode[i] = Mode::hom;
 80002ba:	687b      	ldr	r3, [r7, #4]
 80002bc:	68fa      	ldr	r2, [r7, #12]
 80002be:	2103      	movs	r1, #3
 80002c0:	f843 1022 	str.w	r1, [r3, r2, lsl #2]
			reset(i);
 80002c4:	68fb      	ldr	r3, [r7, #12]
 80002c6:	b2db      	uxtb	r3, r3
 80002c8:	4619      	mov	r1, r3
 80002ca:	6878      	ldr	r0, [r7, #4]
 80002cc:	f7ff ff7c 	bl	80001c8 <_ZN9MotorCtrl5resetEh>
	for(int i =0;i<8;i++){
 80002d0:	68fb      	ldr	r3, [r7, #12]
 80002d2:	3301      	adds	r3, #1
 80002d4:	60fb      	str	r3, [r7, #12]
 80002d6:	68fb      	ldr	r3, [r7, #12]
 80002d8:	2b07      	cmp	r3, #7
 80002da:	ddb2      	ble.n	8000242 <_ZN9MotorCtrl7setModeEPh+0x10>
		}
	}
	if(usb_msg[8] == 1){
 80002dc:	683b      	ldr	r3, [r7, #0]
 80002de:	3308      	adds	r3, #8
 80002e0:	781b      	ldrb	r3, [r3, #0]
 80002e2:	2b01      	cmp	r3, #1
 80002e4:	d104      	bne.n	80002f0 <_ZN9MotorCtrl7setModeEPh+0xbe>
		diag=1;
 80002e6:	687b      	ldr	r3, [r7, #4]
 80002e8:	2201      	movs	r2, #1
 80002ea:	f883 2164 	strb.w	r2, [r3, #356]	; 0x164
	}else if(usb_msg[8] == 1){
		diag=0;
	}
}
 80002ee:	e008      	b.n	8000302 <_ZN9MotorCtrl7setModeEPh+0xd0>
	}else if(usb_msg[8] == 1){
 80002f0:	683b      	ldr	r3, [r7, #0]
 80002f2:	3308      	adds	r3, #8
 80002f4:	781b      	ldrb	r3, [r3, #0]
 80002f6:	2b01      	cmp	r3, #1
 80002f8:	d103      	bne.n	8000302 <_ZN9MotorCtrl7setModeEPh+0xd0>
		diag=0;
 80002fa:	687b      	ldr	r3, [r7, #4]
 80002fc:	2200      	movs	r2, #0
 80002fe:	f883 2164 	strb.w	r2, [r3, #356]	; 0x164
}
 8000302:	bf00      	nop
 8000304:	3710      	adds	r7, #16
 8000306:	46bd      	mov	sp, r7
 8000308:	bd80      	pop	{r7, pc}

0800030a <_ZN9MotorCtrl7setTempEPh>:

void MotorCtrl::setTemp(uint8_t usb_msg[]){
 800030a:	b480      	push	{r7}
 800030c:	b085      	sub	sp, #20
 800030e:	af00      	add	r7, sp, #0
 8000310:	6078      	str	r0, [r7, #4]
 8000312:	6039      	str	r1, [r7, #0]
	for(int i = 0;i<8;i++){
 8000314:	2300      	movs	r3, #0
 8000316:	60fb      	str	r3, [r7, #12]
 8000318:	e00c      	b.n	8000334 <_ZN9MotorCtrl7setTempEPh+0x2a>
		param.limitTemp[i]=usb_msg[i];
 800031a:	68fb      	ldr	r3, [r7, #12]
 800031c:	683a      	ldr	r2, [r7, #0]
 800031e:	4413      	add	r3, r2
 8000320:	7819      	ldrb	r1, [r3, #0]
 8000322:	687a      	ldr	r2, [r7, #4]
 8000324:	68fb      	ldr	r3, [r7, #12]
 8000326:	4413      	add	r3, r2
 8000328:	33e8      	adds	r3, #232	; 0xe8
 800032a:	460a      	mov	r2, r1
 800032c:	701a      	strb	r2, [r3, #0]
	for(int i = 0;i<8;i++){
 800032e:	68fb      	ldr	r3, [r7, #12]
 8000330:	3301      	adds	r3, #1
 8000332:	60fb      	str	r3, [r7, #12]
 8000334:	68fb      	ldr	r3, [r7, #12]
 8000336:	2b07      	cmp	r3, #7
 8000338:	ddef      	ble.n	800031a <_ZN9MotorCtrl7setTempEPh+0x10>
	}
}
 800033a:	bf00      	nop
 800033c:	bf00      	nop
 800033e:	3714      	adds	r7, #20
 8000340:	46bd      	mov	sp, r7
 8000342:	f85d 7b04 	ldr.w	r7, [sp], #4
 8000346:	4770      	bx	lr

08000348 <_ZN9MotorCtrl9setTargetEPh>:

void MotorCtrl::setTarget(uint8_t usb_msg[]){
 8000348:	b480      	push	{r7}
 800034a:	b085      	sub	sp, #20
 800034c:	af00      	add	r7, sp, #0
 800034e:	6078      	str	r0, [r7, #4]
 8000350:	6039      	str	r1, [r7, #0]
	for(int i =0;i<8;i++){
 8000352:	2300      	movs	r3, #0
 8000354:	60fb      	str	r3, [r7, #12]
 8000356:	e028      	b.n	80003aa <_ZN9MotorCtrl9setTargetEPh+0x62>
		uint32_t buf = (usb_msg[4*i+1] << 24) | (usb_msg[4*i+2] << 16) | (usb_msg[4*i+3] << 8) | (usb_msg[4*i+4] << 0);
 8000358:	68fb      	ldr	r3, [r7, #12]
 800035a:	009b      	lsls	r3, r3, #2
 800035c:	3301      	adds	r3, #1
 800035e:	683a      	ldr	r2, [r7, #0]
 8000360:	4413      	add	r3, r2
 8000362:	781b      	ldrb	r3, [r3, #0]
 8000364:	061a      	lsls	r2, r3, #24
 8000366:	68fb      	ldr	r3, [r7, #12]
 8000368:	009b      	lsls	r3, r3, #2
 800036a:	3302      	adds	r3, #2
 800036c:	6839      	ldr	r1, [r7, #0]
 800036e:	440b      	add	r3, r1
 8000370:	781b      	ldrb	r3, [r3, #0]
 8000372:	041b      	lsls	r3, r3, #16
 8000374:	431a      	orrs	r2, r3
 8000376:	68fb      	ldr	r3, [r7, #12]
 8000378:	009b      	lsls	r3, r3, #2
 800037a:	3303      	adds	r3, #3
 800037c:	6839      	ldr	r1, [r7, #0]
 800037e:	440b      	add	r3, r1
 8000380:	781b      	ldrb	r3, [r3, #0]
 8000382:	021b      	lsls	r3, r3, #8
 8000384:	4313      	orrs	r3, r2
 8000386:	68fa      	ldr	r2, [r7, #12]
 8000388:	0092      	lsls	r2, r2, #2
 800038a:	3204      	adds	r2, #4
 800038c:	6839      	ldr	r1, [r7, #0]
 800038e:	440a      	add	r2, r1
 8000390:	7812      	ldrb	r2, [r2, #0]
 8000392:	4313      	orrs	r3, r2
 8000394:	60bb      	str	r3, [r7, #8]
		std::memcpy(&param.target[i],&buf,1);
 8000396:	68fb      	ldr	r3, [r7, #12]
 8000398:	3310      	adds	r3, #16
 800039a:	009b      	lsls	r3, r3, #2
 800039c:	687a      	ldr	r2, [r7, #4]
 800039e:	4413      	add	r3, r2
 80003a0:	7a3a      	ldrb	r2, [r7, #8]
 80003a2:	701a      	strb	r2, [r3, #0]
	for(int i =0;i<8;i++){
 80003a4:	68fb      	ldr	r3, [r7, #12]
 80003a6:	3301      	adds	r3, #1
 80003a8:	60fb      	str	r3, [r7, #12]
 80003aa:	68fb      	ldr	r3, [r7, #12]
 80003ac:	2b07      	cmp	r3, #7
 80003ae:	ddd3      	ble.n	8000358 <_ZN9MotorCtrl9setTargetEPh+0x10>
	}
}
 80003b0:	bf00      	nop
 80003b2:	bf00      	nop
 80003b4:	3714      	adds	r7, #20
 80003b6:	46bd      	mov	sp, r7
 80003b8:	f85d 7b04 	ldr.w	r7, [sp], #4
 80003bc:	4770      	bx	lr

080003be <_ZN9MotorCtrl5setKpEPh>:

void MotorCtrl::setKp(uint8_t usb_msg[]){
 80003be:	b480      	push	{r7}
 80003c0:	b085      	sub	sp, #20
 80003c2:	af00      	add	r7, sp, #0
 80003c4:	6078      	str	r0, [r7, #4]
 80003c6:	6039      	str	r1, [r7, #0]
	for(int i =0;i<8;i++){
 80003c8:	2300      	movs	r3, #0
 80003ca:	60fb      	str	r3, [r7, #12]
 80003cc:	e028      	b.n	8000420 <_ZN9MotorCtrl5setKpEPh+0x62>
		uint32_t buf = (usb_msg[4*i+1] << 24) | (usb_msg[4*i+2] << 16) | (usb_msg[4*i+3] << 8) | (usb_msg[4*i+4] << 0);
 80003ce:	68fb      	ldr	r3, [r7, #12]
 80003d0:	009b      	lsls	r3, r3, #2
 80003d2:	3301      	adds	r3, #1
 80003d4:	683a      	ldr	r2, [r7, #0]
 80003d6:	4413      	add	r3, r2
 80003d8:	781b      	ldrb	r3, [r3, #0]
 80003da:	061a      	lsls	r2, r3, #24
 80003dc:	68fb      	ldr	r3, [r7, #12]
 80003de:	009b      	lsls	r3, r3, #2
 80003e0:	3302      	adds	r3, #2
 80003e2:	6839      	ldr	r1, [r7, #0]
 80003e4:	440b      	add	r3, r1
 80003e6:	781b      	ldrb	r3, [r3, #0]
 80003e8:	041b      	lsls	r3, r3, #16
 80003ea:	431a      	orrs	r2, r3
 80003ec:	68fb      	ldr	r3, [r7, #12]
 80003ee:	009b      	lsls	r3, r3, #2
 80003f0:	3303      	adds	r3, #3
 80003f2:	6839      	ldr	r1, [r7, #0]
 80003f4:	440b      	add	r3, r1
 80003f6:	781b      	ldrb	r3, [r3, #0]
 80003f8:	021b      	lsls	r3, r3, #8
 80003fa:	4313      	orrs	r3, r2
 80003fc:	68fa      	ldr	r2, [r7, #12]
 80003fe:	0092      	lsls	r2, r2, #2
 8000400:	3204      	adds	r2, #4
 8000402:	6839      	ldr	r1, [r7, #0]
 8000404:	440a      	add	r2, r1
 8000406:	7812      	ldrb	r2, [r2, #0]
 8000408:	4313      	orrs	r3, r2
 800040a:	60bb      	str	r3, [r7, #8]
		std::memcpy(&param.Kp[i],&buf,1);
 800040c:	68fb      	ldr	r3, [r7, #12]
 800040e:	333c      	adds	r3, #60	; 0x3c
 8000410:	009b      	lsls	r3, r3, #2
 8000412:	687a      	ldr	r2, [r7, #4]
 8000414:	4413      	add	r3, r2
 8000416:	7a3a      	ldrb	r2, [r7, #8]
 8000418:	701a      	strb	r2, [r3, #0]
	for(int i =0;i<8;i++){
 800041a:	68fb      	ldr	r3, [r7, #12]
 800041c:	3301      	adds	r3, #1
 800041e:	60fb      	str	r3, [r7, #12]
 8000420:	68fb      	ldr	r3, [r7, #12]
 8000422:	2b07      	cmp	r3, #7
 8000424:	ddd3      	ble.n	80003ce <_ZN9MotorCtrl5setKpEPh+0x10>
	}
}
 8000426:	bf00      	nop
 8000428:	bf00      	nop
 800042a:	3714      	adds	r7, #20
 800042c:	46bd      	mov	sp, r7
 800042e:	f85d 7b04 	ldr.w	r7, [sp], #4
 8000432:	4770      	bx	lr

08000434 <_ZN9MotorCtrl5setKiEPh>:

void MotorCtrl::setKi(uint8_t usb_msg[]){
 8000434:	b480      	push	{r7}
 8000436:	b085      	sub	sp, #20
 8000438:	af00      	add	r7, sp, #0
 800043a:	6078      	str	r0, [r7, #4]
 800043c:	6039      	str	r1, [r7, #0]
	for(int i =0;i<8;i++){
 800043e:	2300      	movs	r3, #0
 8000440:	60fb      	str	r3, [r7, #12]
 8000442:	e028      	b.n	8000496 <_ZN9MotorCtrl5setKiEPh+0x62>
		uint32_t buf = (usb_msg[4*i+1] << 24) | (usb_msg[4*i+2] << 16) | (usb_msg[4*i+3] << 8) | (usb_msg[4*i+4] << 0);
 8000444:	68fb      	ldr	r3, [r7, #12]
 8000446:	009b      	lsls	r3, r3, #2
 8000448:	3301      	adds	r3, #1
 800044a:	683a      	ldr	r2, [r7, #0]
 800044c:	4413      	add	r3, r2
 800044e:	781b      	ldrb	r3, [r3, #0]
 8000450:	061a      	lsls	r2, r3, #24
 8000452:	68fb      	ldr	r3, [r7, #12]
 8000454:	009b      	lsls	r3, r3, #2
 8000456:	3302      	adds	r3, #2
 8000458:	6839      	ldr	r1, [r7, #0]
 800045a:	440b      	add	r3, r1
 800045c:	781b      	ldrb	r3, [r3, #0]
 800045e:	041b      	lsls	r3, r3, #16
 8000460:	431a      	orrs	r2, r3
 8000462:	68fb      	ldr	r3, [r7, #12]
 8000464:	009b      	lsls	r3, r3, #2
 8000466:	3303      	adds	r3, #3
 8000468:	6839      	ldr	r1, [r7, #0]
 800046a:	440b      	add	r3, r1
 800046c:	781b      	ldrb	r3, [r3, #0]
 800046e:	021b      	lsls	r3, r3, #8
 8000470:	4313      	orrs	r3, r2
 8000472:	68fa      	ldr	r2, [r7, #12]
 8000474:	0092      	lsls	r2, r2, #2
 8000476:	3204      	adds	r2, #4
 8000478:	6839      	ldr	r1, [r7, #0]
 800047a:	440a      	add	r2, r1
 800047c:	7812      	ldrb	r2, [r2, #0]
 800047e:	4313      	orrs	r3, r2
 8000480:	60bb      	str	r3, [r7, #8]
		std::memcpy(&param.Ki[i],&buf,1);
 8000482:	68fb      	ldr	r3, [r7, #12]
 8000484:	3344      	adds	r3, #68	; 0x44
 8000486:	009b      	lsls	r3, r3, #2
 8000488:	687a      	ldr	r2, [r7, #4]
 800048a:	4413      	add	r3, r2
 800048c:	7a3a      	ldrb	r2, [r7, #8]
 800048e:	701a      	strb	r2, [r3, #0]
	for(int i =0;i<8;i++){
 8000490:	68fb      	ldr	r3, [r7, #12]
 8000492:	3301      	adds	r3, #1
 8000494:	60fb      	str	r3, [r7, #12]
 8000496:	68fb      	ldr	r3, [r7, #12]
 8000498:	2b07      	cmp	r3, #7
 800049a:	ddd3      	ble.n	8000444 <_ZN9MotorCtrl5setKiEPh+0x10>
	}
}
 800049c:	bf00      	nop
 800049e:	bf00      	nop
 80004a0:	3714      	adds	r7, #20
 80004a2:	46bd      	mov	sp, r7
 80004a4:	f85d 7b04 	ldr.w	r7, [sp], #4
 80004a8:	4770      	bx	lr

080004aa <_ZN9MotorCtrl5setKdEPh>:

void MotorCtrl::setKd(uint8_t usb_msg[]){
 80004aa:	b480      	push	{r7}
 80004ac:	b085      	sub	sp, #20
 80004ae:	af00      	add	r7, sp, #0
 80004b0:	6078      	str	r0, [r7, #4]
 80004b2:	6039      	str	r1, [r7, #0]
	for(int i =0;i<8;i++){
 80004b4:	2300      	movs	r3, #0
 80004b6:	60fb      	str	r3, [r7, #12]
 80004b8:	e028      	b.n	800050c <_ZN9MotorCtrl5setKdEPh+0x62>
		uint32_t buf = (usb_msg[4*i+1] << 24) | (usb_msg[4*i+2] << 16) | (usb_msg[4*i+3] << 8) | (usb_msg[4*i+4] << 0);
 80004ba:	68fb      	ldr	r3, [r7, #12]
 80004bc:	009b      	lsls	r3, r3, #2
 80004be:	3301      	adds	r3, #1
 80004c0:	683a      	ldr	r2, [r7, #0]
 80004c2:	4413      	add	r3, r2
 80004c4:	781b      	ldrb	r3, [r3, #0]
 80004c6:	061a      	lsls	r2, r3, #24
 80004c8:	68fb      	ldr	r3, [r7, #12]
 80004ca:	009b      	lsls	r3, r3, #2
 80004cc:	3302      	adds	r3, #2
 80004ce:	6839      	ldr	r1, [r7, #0]
 80004d0:	440b      	add	r3, r1
 80004d2:	781b      	ldrb	r3, [r3, #0]
 80004d4:	041b      	lsls	r3, r3, #16
 80004d6:	431a      	orrs	r2, r3
 80004d8:	68fb      	ldr	r3, [r7, #12]
 80004da:	009b      	lsls	r3, r3, #2
 80004dc:	3303      	adds	r3, #3
 80004de:	6839      	ldr	r1, [r7, #0]
 80004e0:	440b      	add	r3, r1
 80004e2:	781b      	ldrb	r3, [r3, #0]
 80004e4:	021b      	lsls	r3, r3, #8
 80004e6:	4313      	orrs	r3, r2
 80004e8:	68fa      	ldr	r2, [r7, #12]
 80004ea:	0092      	lsls	r2, r2, #2
 80004ec:	3204      	adds	r2, #4
 80004ee:	6839      	ldr	r1, [r7, #0]
 80004f0:	440a      	add	r2, r1
 80004f2:	7812      	ldrb	r2, [r2, #0]
 80004f4:	4313      	orrs	r3, r2
 80004f6:	60bb      	str	r3, [r7, #8]
		std::memcpy(&param.Kp[i],&buf,1);
 80004f8:	68fb      	ldr	r3, [r7, #12]
 80004fa:	333c      	adds	r3, #60	; 0x3c
 80004fc:	009b      	lsls	r3, r3, #2
 80004fe:	687a      	ldr	r2, [r7, #4]
 8000500:	4413      	add	r3, r2
 8000502:	7a3a      	ldrb	r2, [r7, #8]
 8000504:	701a      	strb	r2, [r3, #0]
	for(int i =0;i<8;i++){
 8000506:	68fb      	ldr	r3, [r7, #12]
 8000508:	3301      	adds	r3, #1
 800050a:	60fb      	str	r3, [r7, #12]
 800050c:	68fb      	ldr	r3, [r7, #12]
 800050e:	2b07      	cmp	r3, #7
 8000510:	ddd3      	ble.n	80004ba <_ZN9MotorCtrl5setKdEPh+0x10>
	}
}
 8000512:	bf00      	nop
 8000514:	bf00      	nop
 8000516:	3714      	adds	r7, #20
 8000518:	46bd      	mov	sp, r7
 800051a:	f85d 7b04 	ldr.w	r7, [sp], #4
 800051e:	4770      	bx	lr

08000520 <usb_process>:
void usb_to_can(uint8_t usb_msg[], const uint8_t len);
void robomaster(uint8_t usb_msg[], const uint8_t len);

// it process  all usb messages
void usb_process(uint8_t usb_msg[], const uint8_t len)
{
 8000520:	b580      	push	{r7, lr}
 8000522:	b082      	sub	sp, #8
 8000524:	af00      	add	r7, sp, #0
 8000526:	6078      	str	r0, [r7, #4]
 8000528:	460b      	mov	r3, r1
 800052a:	70fb      	strb	r3, [r7, #3]
    ... : some data
    */

    // if you want to add new command, you can add it here
    // attention: it is called in interrupt, so it should be short
    switch (usb_msg[0] >> 4)
 800052c:	687b      	ldr	r3, [r7, #4]
 800052e:	781b      	ldrb	r3, [r3, #0]
 8000530:	091b      	lsrs	r3, r3, #4
 8000532:	b2db      	uxtb	r3, r3
 8000534:	2b03      	cmp	r3, #3
 8000536:	d010      	beq.n	800055a <usb_process+0x3a>
 8000538:	2b03      	cmp	r3, #3
 800053a:	dc13      	bgt.n	8000564 <usb_process+0x44>
 800053c:	2b00      	cmp	r3, #0
 800053e:	d002      	beq.n	8000546 <usb_process+0x26>
 8000540:	2b01      	cmp	r3, #1
 8000542:	d006      	beq.n	8000552 <usb_process+0x32>
    case 0x03: //robomaster_set_parameter
    {
    	robomaster(usb_msg, len);
    }
    default:
        break;
 8000544:	e00e      	b.n	8000564 <usb_process+0x44>
        usb_to_can(usb_msg, len);
 8000546:	78fb      	ldrb	r3, [r7, #3]
 8000548:	4619      	mov	r1, r3
 800054a:	6878      	ldr	r0, [r7, #4]
 800054c:	f000 f812 	bl	8000574 <_Z10usb_to_canPhh>
    break;
 8000550:	e009      	b.n	8000566 <usb_process+0x46>
        CDC_Transmit_FS(HelloSLCAN_encoded, 11 + 2);
 8000552:	210d      	movs	r1, #13
 8000554:	4806      	ldr	r0, [pc, #24]	; (8000570 <usb_process+0x50>)
 8000556:	f005 f8b5 	bl	80056c4 <CDC_Transmit_FS>
    	robomaster(usb_msg, len);
 800055a:	78fb      	ldrb	r3, [r7, #3]
 800055c:	4619      	mov	r1, r3
 800055e:	6878      	ldr	r0, [r7, #4]
 8000560:	f000 f87a 	bl	8000658 <_Z10robomasterPhh>
        break;
 8000564:	bf00      	nop
    }
}
 8000566:	bf00      	nop
 8000568:	3708      	adds	r7, #8
 800056a:	46bd      	mov	sp, r7
 800056c:	bd80      	pop	{r7, pc}
 800056e:	bf00      	nop
 8000570:	20000000 	.word	0x20000000

08000574 <_Z10usb_to_canPhh>:

CAN_TxHeaderTypeDef TxHeader;
uint32_t TxMailbox;
// it process usb messages to normal can messages
void usb_to_can(uint8_t usb_msg[], const uint8_t len)
{
 8000574:	b580      	push	{r7, lr}
 8000576:	b082      	sub	sp, #8
 8000578:	af00      	add	r7, sp, #0
 800057a:	6078      	str	r0, [r7, #4]
 800057c:	460b      	mov	r3, r1
 800057e:	70fb      	strb	r3, [r7, #3]
    uint8_t command & frame_type: (command: if it is normal can frame, it is 0x00.)<<4 | is_rtr << 2 | is_extended << 1 | is_error
    uint8_t id[4] : can id
    uint8_t dlc : data length
    uint8_t data[8] : data
    */
    if (usb_msg[0] & 0x02)
 8000580:	687b      	ldr	r3, [r7, #4]
 8000582:	781b      	ldrb	r3, [r3, #0]
 8000584:	f003 0302 	and.w	r3, r3, #2
 8000588:	2b00      	cmp	r3, #0
 800058a:	d018      	beq.n	80005be <_Z10usb_to_canPhh+0x4a>
    {
        // extended id
        TxHeader.IDE = CAN_ID_EXT;
 800058c:	4b2f      	ldr	r3, [pc, #188]	; (800064c <_Z10usb_to_canPhh+0xd8>)
 800058e:	2204      	movs	r2, #4
 8000590:	609a      	str	r2, [r3, #8]
        TxHeader.ExtId = (usb_msg[1] << 24) | (usb_msg[2] << 16) | (usb_msg[3] << 8) | (usb_msg[4] << 0);
 8000592:	687b      	ldr	r3, [r7, #4]
 8000594:	3301      	adds	r3, #1
 8000596:	781b      	ldrb	r3, [r3, #0]
 8000598:	061a      	lsls	r2, r3, #24
 800059a:	687b      	ldr	r3, [r7, #4]
 800059c:	3302      	adds	r3, #2
 800059e:	781b      	ldrb	r3, [r3, #0]
 80005a0:	041b      	lsls	r3, r3, #16
 80005a2:	431a      	orrs	r2, r3
 80005a4:	687b      	ldr	r3, [r7, #4]
 80005a6:	3303      	adds	r3, #3
 80005a8:	781b      	ldrb	r3, [r3, #0]
 80005aa:	021b      	lsls	r3, r3, #8
 80005ac:	4313      	orrs	r3, r2
 80005ae:	687a      	ldr	r2, [r7, #4]
 80005b0:	3204      	adds	r2, #4
 80005b2:	7812      	ldrb	r2, [r2, #0]
 80005b4:	4313      	orrs	r3, r2
 80005b6:	461a      	mov	r2, r3
 80005b8:	4b24      	ldr	r3, [pc, #144]	; (800064c <_Z10usb_to_canPhh+0xd8>)
 80005ba:	605a      	str	r2, [r3, #4]
 80005bc:	e017      	b.n	80005ee <_Z10usb_to_canPhh+0x7a>
    }
    else
    {
        // standard id
        TxHeader.IDE = CAN_ID_STD;
 80005be:	4b23      	ldr	r3, [pc, #140]	; (800064c <_Z10usb_to_canPhh+0xd8>)
 80005c0:	2200      	movs	r2, #0
 80005c2:	609a      	str	r2, [r3, #8]
        TxHeader.StdId = (usb_msg[1] << 24) | (usb_msg[2] << 16) | (usb_msg[3] << 8) | (usb_msg[4] << 0);
 80005c4:	687b      	ldr	r3, [r7, #4]
 80005c6:	3301      	adds	r3, #1
 80005c8:	781b      	ldrb	r3, [r3, #0]
 80005ca:	061a      	lsls	r2, r3, #24
 80005cc:	687b      	ldr	r3, [r7, #4]
 80005ce:	3302      	adds	r3, #2
 80005d0:	781b      	ldrb	r3, [r3, #0]
 80005d2:	041b      	lsls	r3, r3, #16
 80005d4:	431a      	orrs	r2, r3
 80005d6:	687b      	ldr	r3, [r7, #4]
 80005d8:	3303      	adds	r3, #3
 80005da:	781b      	ldrb	r3, [r3, #0]
 80005dc:	021b      	lsls	r3, r3, #8
 80005de:	4313      	orrs	r3, r2
 80005e0:	687a      	ldr	r2, [r7, #4]
 80005e2:	3204      	adds	r2, #4
 80005e4:	7812      	ldrb	r2, [r2, #0]
 80005e6:	4313      	orrs	r3, r2
 80005e8:	461a      	mov	r2, r3
 80005ea:	4b18      	ldr	r3, [pc, #96]	; (800064c <_Z10usb_to_canPhh+0xd8>)
 80005ec:	601a      	str	r2, [r3, #0]
    }

    // is_rtr
    if (usb_msg[0] & 0x04)
 80005ee:	687b      	ldr	r3, [r7, #4]
 80005f0:	781b      	ldrb	r3, [r3, #0]
 80005f2:	f003 0304 	and.w	r3, r3, #4
 80005f6:	2b00      	cmp	r3, #0
 80005f8:	d003      	beq.n	8000602 <_Z10usb_to_canPhh+0x8e>
    {
        TxHeader.RTR = CAN_RTR_REMOTE;
 80005fa:	4b14      	ldr	r3, [pc, #80]	; (800064c <_Z10usb_to_canPhh+0xd8>)
 80005fc:	2202      	movs	r2, #2
 80005fe:	60da      	str	r2, [r3, #12]
 8000600:	e002      	b.n	8000608 <_Z10usb_to_canPhh+0x94>
    }
    else
    {
        TxHeader.RTR = CAN_RTR_DATA;
 8000602:	4b12      	ldr	r3, [pc, #72]	; (800064c <_Z10usb_to_canPhh+0xd8>)
 8000604:	2200      	movs	r2, #0
 8000606:	60da      	str	r2, [r3, #12]
    }

    // is_error
    //?

    TxHeader.TransmitGlobalTime = DISABLE;
 8000608:	4b10      	ldr	r3, [pc, #64]	; (800064c <_Z10usb_to_canPhh+0xd8>)
 800060a:	2200      	movs	r2, #0
 800060c:	751a      	strb	r2, [r3, #20]
    // dlc
    TxHeader.DLC = usb_msg[5];
 800060e:	687b      	ldr	r3, [r7, #4]
 8000610:	3305      	adds	r3, #5
 8000612:	781b      	ldrb	r3, [r3, #0]
 8000614:	461a      	mov	r2, r3
 8000616:	4b0d      	ldr	r3, [pc, #52]	; (800064c <_Z10usb_to_canPhh+0xd8>)
 8000618:	611a      	str	r2, [r3, #16]

    if (0 < HAL_CAN_GetTxMailboxesFreeLevel(&hcan))
 800061a:	480d      	ldr	r0, [pc, #52]	; (8000650 <_Z10usb_to_canPhh+0xdc>)
 800061c:	f000 fddd 	bl	80011da <HAL_CAN_GetTxMailboxesFreeLevel>
 8000620:	4603      	mov	r3, r0
 8000622:	2b00      	cmp	r3, #0
 8000624:	bf14      	ite	ne
 8000626:	2301      	movne	r3, #1
 8000628:	2300      	moveq	r3, #0
 800062a:	b2db      	uxtb	r3, r3
 800062c:	2b00      	cmp	r3, #0
 800062e:	d009      	beq.n	8000644 <_Z10usb_to_canPhh+0xd0>
    {
        led_on(can);
 8000630:	2000      	movs	r0, #0
 8000632:	f000 f851 	bl	80006d8 <led_on>
        HAL_CAN_AddTxMessage(&hcan, &TxHeader, usb_msg + 6, &TxMailbox);
 8000636:	687b      	ldr	r3, [r7, #4]
 8000638:	1d9a      	adds	r2, r3, #6
 800063a:	4b06      	ldr	r3, [pc, #24]	; (8000654 <_Z10usb_to_canPhh+0xe0>)
 800063c:	4903      	ldr	r1, [pc, #12]	; (800064c <_Z10usb_to_canPhh+0xd8>)
 800063e:	4804      	ldr	r0, [pc, #16]	; (8000650 <_Z10usb_to_canPhh+0xdc>)
 8000640:	f000 fd54 	bl	80010ec <HAL_CAN_AddTxMessage>
    }
}
 8000644:	bf00      	nop
 8000646:	3708      	adds	r7, #8
 8000648:	46bd      	mov	sp, r7
 800064a:	bd80      	pop	{r7, pc}
 800064c:	200001f4 	.word	0x200001f4
 8000650:	20000210 	.word	0x20000210
 8000654:	2000020c 	.word	0x2000020c

08000658 <_Z10robomasterPhh>:

void robomaster(uint8_t usb_msg[], const uint8_t len){
 8000658:	b580      	push	{r7, lr}
 800065a:	b082      	sub	sp, #8
 800065c:	af00      	add	r7, sp, #0
 800065e:	6078      	str	r0, [r7, #4]
 8000660:	460b      	mov	r3, r1
 8000662:	70fb      	strb	r3, [r7, #3]
	// data structure
	/*
	uint8_t command & prosess_id: (command: if it is normal can frame,
	uint8_t data[8or9or32] : data
    */
	switch (usb_msg[0] & 0x0f){
 8000664:	687b      	ldr	r3, [r7, #4]
 8000666:	781b      	ldrb	r3, [r3, #0]
 8000668:	f003 030f 	and.w	r3, r3, #15
 800066c:	2b05      	cmp	r3, #5
 800066e:	d82d      	bhi.n	80006cc <_Z10robomasterPhh+0x74>
 8000670:	a201      	add	r2, pc, #4	; (adr r2, 8000678 <_Z10robomasterPhh+0x20>)
 8000672:	f852 f023 	ldr.w	pc, [r2, r3, lsl #2]
 8000676:	bf00      	nop
 8000678:	08000691 	.word	0x08000691
 800067c:	0800069b 	.word	0x0800069b
 8000680:	080006a5 	.word	0x080006a5
 8000684:	080006af 	.word	0x080006af
 8000688:	080006b9 	.word	0x080006b9
 800068c:	080006c3 	.word	0x080006c3
	case 0x00:{
		motor.setMode(usb_msg);
 8000690:	6879      	ldr	r1, [r7, #4]
 8000692:	4810      	ldr	r0, [pc, #64]	; (80006d4 <_Z10robomasterPhh+0x7c>)
 8000694:	f7ff fdcd 	bl	8000232 <_ZN9MotorCtrl7setModeEPh>
		break;
 8000698:	e018      	b.n	80006cc <_Z10robomasterPhh+0x74>
	}case 0x01:{
		motor.setTemp(usb_msg);
 800069a:	6879      	ldr	r1, [r7, #4]
 800069c:	480d      	ldr	r0, [pc, #52]	; (80006d4 <_Z10robomasterPhh+0x7c>)
 800069e:	f7ff fe34 	bl	800030a <_ZN9MotorCtrl7setTempEPh>
		break;
 80006a2:	e013      	b.n	80006cc <_Z10robomasterPhh+0x74>
	}case 0x02:{
		motor.setTarget(usb_msg);
 80006a4:	6879      	ldr	r1, [r7, #4]
 80006a6:	480b      	ldr	r0, [pc, #44]	; (80006d4 <_Z10robomasterPhh+0x7c>)
 80006a8:	f7ff fe4e 	bl	8000348 <_ZN9MotorCtrl9setTargetEPh>
		break;
 80006ac:	e00e      	b.n	80006cc <_Z10robomasterPhh+0x74>
	}case 0x03:{
		motor.setKp(usb_msg);
 80006ae:	6879      	ldr	r1, [r7, #4]
 80006b0:	4808      	ldr	r0, [pc, #32]	; (80006d4 <_Z10robomasterPhh+0x7c>)
 80006b2:	f7ff fe84 	bl	80003be <_ZN9MotorCtrl5setKpEPh>
		break;
 80006b6:	e009      	b.n	80006cc <_Z10robomasterPhh+0x74>
	}case 0x04:{
		motor.setKi(usb_msg);
 80006b8:	6879      	ldr	r1, [r7, #4]
 80006ba:	4806      	ldr	r0, [pc, #24]	; (80006d4 <_Z10robomasterPhh+0x7c>)
 80006bc:	f7ff feba 	bl	8000434 <_ZN9MotorCtrl5setKiEPh>
		break;
 80006c0:	e004      	b.n	80006cc <_Z10robomasterPhh+0x74>
	}case 0x05:{
		motor.setKd(usb_msg);
 80006c2:	6879      	ldr	r1, [r7, #4]
 80006c4:	4803      	ldr	r0, [pc, #12]	; (80006d4 <_Z10robomasterPhh+0x7c>)
 80006c6:	f7ff fef0 	bl	80004aa <_ZN9MotorCtrl5setKdEPh>
	}
	}
}
 80006ca:	e7ff      	b.n	80006cc <_Z10robomasterPhh+0x74>
 80006cc:	bf00      	nop
 80006ce:	3708      	adds	r7, #8
 80006d0:	46bd      	mov	sp, r7
 80006d2:	bd80      	pop	{r7, pc}
 80006d4:	20000284 	.word	0x20000284

080006d8 <led_on>:
};

void led_on(led name)
{
    // if the led is off.
    if (led_list[name].is_high == 0)
 80006d8:	4b0b      	ldr	r3, [pc, #44]	; (8000708 <led_on+0x30>)
 80006da:	eb03 1300 	add.w	r3, r3, r0, lsl #4
 80006de:	7b1b      	ldrb	r3, [r3, #12]
 80006e0:	b103      	cbz	r3, 80006e4 <led_on+0xc>
 80006e2:	4770      	bx	lr
{
 80006e4:	b510      	push	{r4, lr}
    {
        HAL_GPIO_WritePin(led_list[name].gpio, led_list[name].pin, GPIO_PIN_SET);
 80006e6:	4b08      	ldr	r3, [pc, #32]	; (8000708 <led_on+0x30>)
 80006e8:	ea4f 1c00 	mov.w	ip, r0, lsl #4
 80006ec:	eb03 1400 	add.w	r4, r3, r0, lsl #4
 80006f0:	2201      	movs	r2, #1
 80006f2:	88a1      	ldrh	r1, [r4, #4]
 80006f4:	f853 000c 	ldr.w	r0, [r3, ip]
 80006f8:	f001 f810 	bl	800171c <HAL_GPIO_WritePin>
        led_list[name].before_tick = HAL_GetTick();
 80006fc:	f000 fbb0 	bl	8000e60 <HAL_GetTick>
 8000700:	60a0      	str	r0, [r4, #8]
        led_list[name].is_high = 1;
 8000702:	2301      	movs	r3, #1
 8000704:	7323      	strb	r3, [r4, #12]
    }
}
 8000706:	bd10      	pop	{r4, pc}
 8000708:	20000010 	.word	0x20000010

0800070c <led_process>:

void led_process(void)
{
 800070c:	b5f8      	push	{r3, r4, r5, r6, r7, lr}
    for (int i = 0; i < LED_LIST_SIZE; i++)
 800070e:	4c0d      	ldr	r4, [pc, #52]	; (8000744 <led_process+0x38>)
 8000710:	f104 0640 	add.w	r6, r4, #64	; 0x40
    {
        if (led_list[i].is_high && ((HAL_GetTick() - led_list[i].before_tick) > LED_INTERVAL))
        {
            HAL_GPIO_WritePin(led_list[i].gpio, led_list[i].pin, GPIO_PIN_RESET);
 8000714:	2700      	movs	r7, #0
 8000716:	e002      	b.n	800071e <led_process+0x12>
    for (int i = 0; i < LED_LIST_SIZE; i++)
 8000718:	3410      	adds	r4, #16
 800071a:	42b4      	cmp	r4, r6
 800071c:	d010      	beq.n	8000740 <led_process+0x34>
        if (led_list[i].is_high && ((HAL_GetTick() - led_list[i].before_tick) > LED_INTERVAL))
 800071e:	7b23      	ldrb	r3, [r4, #12]
 8000720:	2b00      	cmp	r3, #0
 8000722:	d0f9      	beq.n	8000718 <led_process+0xc>
 8000724:	f000 fb9c 	bl	8000e60 <HAL_GetTick>
 8000728:	68a3      	ldr	r3, [r4, #8]
 800072a:	1ac0      	subs	r0, r0, r3
 800072c:	f5b0 7f96 	cmp.w	r0, #300	; 0x12c
 8000730:	d9f2      	bls.n	8000718 <led_process+0xc>
            HAL_GPIO_WritePin(led_list[i].gpio, led_list[i].pin, GPIO_PIN_RESET);
 8000732:	463a      	mov	r2, r7
 8000734:	88a1      	ldrh	r1, [r4, #4]
 8000736:	6820      	ldr	r0, [r4, #0]
 8000738:	f000 fff0 	bl	800171c <HAL_GPIO_WritePin>
            led_list[i].is_high = 0;
 800073c:	7327      	strb	r7, [r4, #12]
 800073e:	e7eb      	b.n	8000718 <led_process+0xc>
        }
    }
}
 8000740:	bdf8      	pop	{r3, r4, r5, r6, r7, pc}
 8000742:	bf00      	nop
 8000744:	20000010 	.word	0x20000010

08000748 <Error_Handler>:
/**
  * @brief  This function is executed in case of error occurrence.
  * @retval None
  */
void Error_Handler(void)
{
 8000748:	b508      	push	{r3, lr}
  \details Disables IRQ interrupts by setting the I-bit in the CPSR.
           Can only be executed in Privileged modes.
 */
__STATIC_FORCEINLINE void __disable_irq(void)
{
  __ASM volatile ("cpsid i" : : : "memory");
 800074a:	b672      	cpsid	i
  /* USER CODE BEGIN Error_Handler_Debug */
  /* User can add his own implementation to report the HAL error return state */
  __disable_irq();
  while (1)
  {
	  HAL_GPIO_WritePin(LED_RED_GPIO_Port, LED_RED_Pin, GPIO_PIN_SET);
 800074c:	4e04      	ldr	r6, [pc, #16]	; (8000760 <Error_Handler+0x18>)
 800074e:	2501      	movs	r5, #1
 8000750:	2480      	movs	r4, #128	; 0x80
 8000752:	462a      	mov	r2, r5
 8000754:	4621      	mov	r1, r4
 8000756:	4630      	mov	r0, r6
 8000758:	f000 ffe0 	bl	800171c <HAL_GPIO_WritePin>
  while (1)
 800075c:	e7f9      	b.n	8000752 <Error_Handler+0xa>
 800075e:	bf00      	nop
 8000760:	48000400 	.word	0x48000400

08000764 <SystemClock_Config>:
{
 8000764:	b500      	push	{lr}
 8000766:	b09d      	sub	sp, #116	; 0x74
  RCC_OscInitTypeDef RCC_OscInitStruct = {0};
 8000768:	2100      	movs	r1, #0
 800076a:	9114      	str	r1, [sp, #80]	; 0x50
 800076c:	9115      	str	r1, [sp, #84]	; 0x54
 800076e:	9117      	str	r1, [sp, #92]	; 0x5c
 8000770:	9118      	str	r1, [sp, #96]	; 0x60
  RCC_ClkInitTypeDef RCC_ClkInitStruct = {0};
 8000772:	910d      	str	r1, [sp, #52]	; 0x34
 8000774:	910e      	str	r1, [sp, #56]	; 0x38
 8000776:	910f      	str	r1, [sp, #60]	; 0x3c
 8000778:	9110      	str	r1, [sp, #64]	; 0x40
 800077a:	9111      	str	r1, [sp, #68]	; 0x44
  RCC_PeriphCLKInitTypeDef PeriphClkInit = {0};
 800077c:	2234      	movs	r2, #52	; 0x34
 800077e:	4668      	mov	r0, sp
 8000780:	f005 f97b 	bl	8005a7a <memset>
  RCC_OscInitStruct.OscillatorType = RCC_OSCILLATORTYPE_HSE;
 8000784:	2201      	movs	r2, #1
 8000786:	9212      	str	r2, [sp, #72]	; 0x48
  RCC_OscInitStruct.HSEState = RCC_HSE_ON;
 8000788:	f44f 3380 	mov.w	r3, #65536	; 0x10000
 800078c:	9313      	str	r3, [sp, #76]	; 0x4c
  RCC_OscInitStruct.HSIState = RCC_HSI_ON;
 800078e:	9216      	str	r2, [sp, #88]	; 0x58
  RCC_OscInitStruct.PLL.PLLState = RCC_PLL_ON;
 8000790:	2202      	movs	r2, #2
 8000792:	9219      	str	r2, [sp, #100]	; 0x64
  RCC_OscInitStruct.PLL.PLLSource = RCC_PLLSOURCE_HSE;
 8000794:	931a      	str	r3, [sp, #104]	; 0x68
  RCC_OscInitStruct.PLL.PLLMUL = RCC_PLL_MUL9;
 8000796:	f44f 13e0 	mov.w	r3, #1835008	; 0x1c0000
 800079a:	931b      	str	r3, [sp, #108]	; 0x6c
  if (HAL_RCC_OscConfig(&RCC_OscInitStruct) != HAL_OK)
 800079c:	a812      	add	r0, sp, #72	; 0x48
 800079e:	f001 ffaf 	bl	8002700 <HAL_RCC_OscConfig>
 80007a2:	b9c8      	cbnz	r0, 80007d8 <SystemClock_Config+0x74>
  RCC_ClkInitStruct.ClockType = RCC_CLOCKTYPE_HCLK|RCC_CLOCKTYPE_SYSCLK
 80007a4:	230f      	movs	r3, #15
 80007a6:	930d      	str	r3, [sp, #52]	; 0x34
  RCC_ClkInitStruct.SYSCLKSource = RCC_SYSCLKSOURCE_PLLCLK;
 80007a8:	2102      	movs	r1, #2
 80007aa:	910e      	str	r1, [sp, #56]	; 0x38
  RCC_ClkInitStruct.AHBCLKDivider = RCC_SYSCLK_DIV1;
 80007ac:	2300      	movs	r3, #0
 80007ae:	930f      	str	r3, [sp, #60]	; 0x3c
  RCC_ClkInitStruct.APB1CLKDivider = RCC_HCLK_DIV2;
 80007b0:	f44f 6280 	mov.w	r2, #1024	; 0x400
 80007b4:	9210      	str	r2, [sp, #64]	; 0x40
  RCC_ClkInitStruct.APB2CLKDivider = RCC_HCLK_DIV1;
 80007b6:	9311      	str	r3, [sp, #68]	; 0x44
  if (HAL_RCC_ClockConfig(&RCC_ClkInitStruct, FLASH_LATENCY_2) != HAL_OK)
 80007b8:	a80d      	add	r0, sp, #52	; 0x34
 80007ba:	f002 fac3 	bl	8002d44 <HAL_RCC_ClockConfig>
 80007be:	b968      	cbnz	r0, 80007dc <SystemClock_Config+0x78>
  PeriphClkInit.PeriphClockSelection = RCC_PERIPHCLK_USB;
 80007c0:	f44f 3300 	mov.w	r3, #131072	; 0x20000
 80007c4:	9300      	str	r3, [sp, #0]
  PeriphClkInit.USBClockSelection = RCC_USBCLKSOURCE_PLL_DIV1_5;
 80007c6:	2300      	movs	r3, #0
 80007c8:	930c      	str	r3, [sp, #48]	; 0x30
  if (HAL_RCCEx_PeriphCLKConfig(&PeriphClkInit) != HAL_OK)
 80007ca:	4668      	mov	r0, sp
 80007cc:	f002 fb84 	bl	8002ed8 <HAL_RCCEx_PeriphCLKConfig>
 80007d0:	b930      	cbnz	r0, 80007e0 <SystemClock_Config+0x7c>
}
 80007d2:	b01d      	add	sp, #116	; 0x74
 80007d4:	f85d fb04 	ldr.w	pc, [sp], #4
    Error_Handler();
 80007d8:	f7ff ffb6 	bl	8000748 <Error_Handler>
    Error_Handler();
 80007dc:	f7ff ffb4 	bl	8000748 <Error_Handler>
    Error_Handler();
 80007e0:	f7ff ffb2 	bl	8000748 <Error_Handler>

080007e4 <main>:
{
 80007e4:	b580      	push	{r7, lr}
 80007e6:	b09c      	sub	sp, #112	; 0x70
  HAL_Init();
 80007e8:	f000 fb1c 	bl	8000e24 <HAL_Init>
  SystemClock_Config();
 80007ec:	f7ff ffba 	bl	8000764 <SystemClock_Config>
  GPIO_InitTypeDef GPIO_InitStruct = {0};
 80007f0:	2400      	movs	r4, #0
 80007f2:	940b      	str	r4, [sp, #44]	; 0x2c
 80007f4:	940c      	str	r4, [sp, #48]	; 0x30
 80007f6:	940d      	str	r4, [sp, #52]	; 0x34
 80007f8:	940e      	str	r4, [sp, #56]	; 0x38
 80007fa:	940f      	str	r4, [sp, #60]	; 0x3c
  __HAL_RCC_GPIOF_CLK_ENABLE();
 80007fc:	4b6f      	ldr	r3, [pc, #444]	; (80009bc <main+0x1d8>)
 80007fe:	695a      	ldr	r2, [r3, #20]
 8000800:	f442 0280 	orr.w	r2, r2, #4194304	; 0x400000
 8000804:	615a      	str	r2, [r3, #20]
 8000806:	695a      	ldr	r2, [r3, #20]
 8000808:	f402 0280 	and.w	r2, r2, #4194304	; 0x400000
 800080c:	9201      	str	r2, [sp, #4]
 800080e:	9a01      	ldr	r2, [sp, #4]
  __HAL_RCC_GPIOA_CLK_ENABLE();
 8000810:	695a      	ldr	r2, [r3, #20]
 8000812:	f442 3200 	orr.w	r2, r2, #131072	; 0x20000
 8000816:	615a      	str	r2, [r3, #20]
 8000818:	695a      	ldr	r2, [r3, #20]
 800081a:	f402 3200 	and.w	r2, r2, #131072	; 0x20000
 800081e:	9202      	str	r2, [sp, #8]
 8000820:	9a02      	ldr	r2, [sp, #8]
  __HAL_RCC_GPIOB_CLK_ENABLE();
 8000822:	695a      	ldr	r2, [r3, #20]
 8000824:	f442 2280 	orr.w	r2, r2, #262144	; 0x40000
 8000828:	615a      	str	r2, [r3, #20]
 800082a:	695b      	ldr	r3, [r3, #20]
 800082c:	f403 2380 	and.w	r3, r3, #262144	; 0x40000
 8000830:	9303      	str	r3, [sp, #12]
 8000832:	9b03      	ldr	r3, [sp, #12]
  HAL_GPIO_WritePin(USB_PULLUP_GPIO_Port, USB_PULLUP_Pin, GPIO_PIN_RESET);
 8000834:	4622      	mov	r2, r4
 8000836:	f44f 6180 	mov.w	r1, #1024	; 0x400
 800083a:	f04f 4090 	mov.w	r0, #1207959552	; 0x48000000
 800083e:	f000 ff6d 	bl	800171c <HAL_GPIO_WritePin>
  HAL_GPIO_WritePin(GPIOB, LED_CAN_Pin|LED_GREEN_Pin|LED_YELLOW_Pin|LED_RED_Pin, GPIO_PIN_RESET);
 8000842:	4f5f      	ldr	r7, [pc, #380]	; (80009c0 <main+0x1dc>)
 8000844:	4622      	mov	r2, r4
 8000846:	21f0      	movs	r1, #240	; 0xf0
 8000848:	4638      	mov	r0, r7
 800084a:	f000 ff67 	bl	800171c <HAL_GPIO_WritePin>
  GPIO_InitStruct.Pin = EMS_Pin;
 800084e:	2602      	movs	r6, #2
 8000850:	960b      	str	r6, [sp, #44]	; 0x2c
  GPIO_InitStruct.Mode = GPIO_MODE_IT_RISING_FALLING;
 8000852:	f44f 1344 	mov.w	r3, #3211264	; 0x310000
 8000856:	930c      	str	r3, [sp, #48]	; 0x30
  GPIO_InitStruct.Pull = GPIO_PULLDOWN;
 8000858:	960d      	str	r6, [sp, #52]	; 0x34
  HAL_GPIO_Init(EMS_GPIO_Port, &GPIO_InitStruct);
 800085a:	a90b      	add	r1, sp, #44	; 0x2c
 800085c:	f04f 4090 	mov.w	r0, #1207959552	; 0x48000000
 8000860:	f000 fe82 	bl	8001568 <HAL_GPIO_Init>
  GPIO_InitStruct.Pin = USB_PULLUP_Pin;
 8000864:	f44f 6380 	mov.w	r3, #1024	; 0x400
 8000868:	930b      	str	r3, [sp, #44]	; 0x2c
  GPIO_InitStruct.Mode = GPIO_MODE_OUTPUT_PP;
 800086a:	2501      	movs	r5, #1
 800086c:	950c      	str	r5, [sp, #48]	; 0x30
  GPIO_InitStruct.Pull = GPIO_NOPULL;
 800086e:	940d      	str	r4, [sp, #52]	; 0x34
  GPIO_InitStruct.Speed = GPIO_SPEED_FREQ_LOW;
 8000870:	940e      	str	r4, [sp, #56]	; 0x38
  HAL_GPIO_Init(USB_PULLUP_GPIO_Port, &GPIO_InitStruct);
 8000872:	a90b      	add	r1, sp, #44	; 0x2c
 8000874:	f04f 4090 	mov.w	r0, #1207959552	; 0x48000000
 8000878:	f000 fe76 	bl	8001568 <HAL_GPIO_Init>
  GPIO_InitStruct.Pin = LED_CAN_Pin|LED_GREEN_Pin|LED_YELLOW_Pin|LED_RED_Pin;
 800087c:	23f0      	movs	r3, #240	; 0xf0
 800087e:	930b      	str	r3, [sp, #44]	; 0x2c
  GPIO_InitStruct.Mode = GPIO_MODE_OUTPUT_PP;
 8000880:	950c      	str	r5, [sp, #48]	; 0x30
  GPIO_InitStruct.Pull = GPIO_NOPULL;
 8000882:	940d      	str	r4, [sp, #52]	; 0x34
  GPIO_InitStruct.Speed = GPIO_SPEED_FREQ_LOW;
 8000884:	940e      	str	r4, [sp, #56]	; 0x38
  HAL_GPIO_Init(GPIOB, &GPIO_InitStruct);
 8000886:	a90b      	add	r1, sp, #44	; 0x2c
 8000888:	4638      	mov	r0, r7
 800088a:	f000 fe6d 	bl	8001568 <HAL_GPIO_Init>
  HAL_NVIC_SetPriority(EXTI1_IRQn, 0, 0);
 800088e:	4622      	mov	r2, r4
 8000890:	4621      	mov	r1, r4
 8000892:	2007      	movs	r0, #7
 8000894:	f000 fe10 	bl	80014b8 <HAL_NVIC_SetPriority>
  HAL_NVIC_EnableIRQ(EXTI1_IRQn);
 8000898:	2007      	movs	r0, #7
 800089a:	f000 fe43 	bl	8001524 <HAL_NVIC_EnableIRQ>
  MX_USB_DEVICE_Init();
 800089e:	f004 fe3d 	bl	800551c <MX_USB_DEVICE_Init>
  hcan.Instance = CAN;
 80008a2:	4848      	ldr	r0, [pc, #288]	; (80009c4 <main+0x1e0>)
 80008a4:	4b48      	ldr	r3, [pc, #288]	; (80009c8 <main+0x1e4>)
 80008a6:	6003      	str	r3, [r0, #0]
  hcan.Init.Prescaler = 2;
 80008a8:	6046      	str	r6, [r0, #4]
  hcan.Init.Mode = CAN_MODE_NORMAL;
 80008aa:	6084      	str	r4, [r0, #8]
  hcan.Init.SyncJumpWidth = CAN_SJW_1TQ;
 80008ac:	60c4      	str	r4, [r0, #12]
  hcan.Init.TimeSeg1 = CAN_BS1_15TQ;
 80008ae:	f44f 2360 	mov.w	r3, #917504	; 0xe0000
 80008b2:	6103      	str	r3, [r0, #16]
  hcan.Init.TimeSeg2 = CAN_BS2_2TQ;
 80008b4:	f44f 1380 	mov.w	r3, #1048576	; 0x100000
 80008b8:	6143      	str	r3, [r0, #20]
  hcan.Init.TimeTriggeredMode = DISABLE;
 80008ba:	7604      	strb	r4, [r0, #24]
  hcan.Init.AutoBusOff = DISABLE;
 80008bc:	7644      	strb	r4, [r0, #25]
  hcan.Init.AutoWakeUp = ENABLE;
 80008be:	7685      	strb	r5, [r0, #26]
  hcan.Init.AutoRetransmission = DISABLE;
 80008c0:	76c4      	strb	r4, [r0, #27]
  hcan.Init.ReceiveFifoLocked = DISABLE;
 80008c2:	7704      	strb	r4, [r0, #28]
  hcan.Init.TransmitFifoPriority = DISABLE;
 80008c4:	7744      	strb	r4, [r0, #29]
  if (HAL_CAN_Init(&hcan) != HAL_OK)
 80008c6:	f000 fad1 	bl	8000e6c <HAL_CAN_Init>
 80008ca:	2800      	cmp	r0, #0
 80008cc:	d160      	bne.n	8000990 <main+0x1ac>
  TIM_ClockConfigTypeDef sClockSourceConfig = {0};
 80008ce:	2300      	movs	r3, #0
 80008d0:	9307      	str	r3, [sp, #28]
 80008d2:	9308      	str	r3, [sp, #32]
 80008d4:	9309      	str	r3, [sp, #36]	; 0x24
 80008d6:	930a      	str	r3, [sp, #40]	; 0x28
  TIM_MasterConfigTypeDef sMasterConfig = {0};
 80008d8:	9304      	str	r3, [sp, #16]
 80008da:	9305      	str	r3, [sp, #20]
 80008dc:	9306      	str	r3, [sp, #24]
  TIM_OC_InitTypeDef sConfigOC = {0};
 80008de:	930b      	str	r3, [sp, #44]	; 0x2c
 80008e0:	930c      	str	r3, [sp, #48]	; 0x30
 80008e2:	930d      	str	r3, [sp, #52]	; 0x34
 80008e4:	930e      	str	r3, [sp, #56]	; 0x38
 80008e6:	930f      	str	r3, [sp, #60]	; 0x3c
 80008e8:	9310      	str	r3, [sp, #64]	; 0x40
 80008ea:	9311      	str	r3, [sp, #68]	; 0x44
  htim3.Instance = TIM3;
 80008ec:	4837      	ldr	r0, [pc, #220]	; (80009cc <main+0x1e8>)
 80008ee:	4a38      	ldr	r2, [pc, #224]	; (80009d0 <main+0x1ec>)
 80008f0:	6002      	str	r2, [r0, #0]
  htim3.Init.Prescaler = 71;
 80008f2:	2247      	movs	r2, #71	; 0x47
 80008f4:	6042      	str	r2, [r0, #4]
  htim3.Init.CounterMode = TIM_COUNTERMODE_UP;
 80008f6:	6083      	str	r3, [r0, #8]
  htim3.Init.Period = 999;
 80008f8:	f240 32e7 	movw	r2, #999	; 0x3e7
 80008fc:	60c2      	str	r2, [r0, #12]
  htim3.Init.ClockDivision = TIM_CLOCKDIVISION_DIV1;
 80008fe:	6103      	str	r3, [r0, #16]
  htim3.Init.AutoReloadPreload = TIM_AUTORELOAD_PRELOAD_DISABLE;
 8000900:	6183      	str	r3, [r0, #24]
  if (HAL_TIM_Base_Init(&htim3) != HAL_OK)
 8000902:	f002 feb1 	bl	8003668 <HAL_TIM_Base_Init>
 8000906:	2800      	cmp	r0, #0
 8000908:	d144      	bne.n	8000994 <main+0x1b0>
  sClockSourceConfig.ClockSource = TIM_CLOCKSOURCE_INTERNAL;
 800090a:	f44f 5380 	mov.w	r3, #4096	; 0x1000
 800090e:	9307      	str	r3, [sp, #28]
  if (HAL_TIM_ConfigClockSource(&htim3, &sClockSourceConfig) != HAL_OK)
 8000910:	a907      	add	r1, sp, #28
 8000912:	482e      	ldr	r0, [pc, #184]	; (80009cc <main+0x1e8>)
 8000914:	f002 fff0 	bl	80038f8 <HAL_TIM_ConfigClockSource>
 8000918:	2800      	cmp	r0, #0
 800091a:	d13d      	bne.n	8000998 <main+0x1b4>
  if (HAL_TIM_PWM_Init(&htim3) != HAL_OK)
 800091c:	482b      	ldr	r0, [pc, #172]	; (80009cc <main+0x1e8>)
 800091e:	f002 fed3 	bl	80036c8 <HAL_TIM_PWM_Init>
 8000922:	2800      	cmp	r0, #0
 8000924:	d13a      	bne.n	800099c <main+0x1b8>
  sMasterConfig.MasterOutputTrigger = TIM_TRGO_RESET;
 8000926:	2300      	movs	r3, #0
 8000928:	9304      	str	r3, [sp, #16]
  sMasterConfig.MasterSlaveMode = TIM_MASTERSLAVEMODE_DISABLE;
 800092a:	9306      	str	r3, [sp, #24]
  if (HAL_TIMEx_MasterConfigSynchronization(&htim3, &sMasterConfig) != HAL_OK)
 800092c:	a904      	add	r1, sp, #16
 800092e:	4827      	ldr	r0, [pc, #156]	; (80009cc <main+0x1e8>)
 8000930:	f003 f898 	bl	8003a64 <HAL_TIMEx_MasterConfigSynchronization>
 8000934:	2800      	cmp	r0, #0
 8000936:	d133      	bne.n	80009a0 <main+0x1bc>
  sConfigOC.OCMode = TIM_OCMODE_PWM1;
 8000938:	2360      	movs	r3, #96	; 0x60
 800093a:	930b      	str	r3, [sp, #44]	; 0x2c
  sConfigOC.Pulse = 100;
 800093c:	2364      	movs	r3, #100	; 0x64
 800093e:	930c      	str	r3, [sp, #48]	; 0x30
  sConfigOC.OCPolarity = TIM_OCPOLARITY_HIGH;
 8000940:	2200      	movs	r2, #0
 8000942:	920d      	str	r2, [sp, #52]	; 0x34
  sConfigOC.OCFastMode = TIM_OCFAST_DISABLE;
 8000944:	920f      	str	r2, [sp, #60]	; 0x3c
  if (HAL_TIM_PWM_ConfigChannel(&htim3, &sConfigOC, TIM_CHANNEL_1) != HAL_OK)
 8000946:	a90b      	add	r1, sp, #44	; 0x2c
 8000948:	4820      	ldr	r0, [pc, #128]	; (80009cc <main+0x1e8>)
 800094a:	f002 ff2b 	bl	80037a4 <HAL_TIM_PWM_ConfigChannel>
 800094e:	bb48      	cbnz	r0, 80009a4 <main+0x1c0>
  led_on(green);
 8000950:	2001      	movs	r0, #1
 8000952:	f7ff fec1 	bl	80006d8 <led_on>
  led_on(yellow);
 8000956:	2002      	movs	r0, #2
 8000958:	f7ff febe 	bl	80006d8 <led_on>
  led_on(red);
 800095c:	2003      	movs	r0, #3
 800095e:	f7ff febb 	bl	80006d8 <led_on>
  led_on(can);
 8000962:	2000      	movs	r0, #0
 8000964:	f7ff feb8 	bl	80006d8 <led_on>
  filter.FilterIdHigh         = 0;                        // ãƒ•ã‚£ãƒ«ã‚¿ãƒ¼ID(ä¸Šï¿½?16ãƒ“ãƒƒ?????????¿½?¿½??¿½?¿½???¿½?¿½??¿½?¿½????¿½?¿½??¿½?¿½???¿½?¿½??¿½?¿½?????¿½?¿½??¿½?¿½???¿½?¿½??¿½?¿½????¿½?¿½??¿½?¿½???¿½?¿½??¿½?¿½??????¿½?¿½??¿½?¿½???¿½?¿½??¿½?¿½????¿½?¿½??¿½?¿½???¿½?¿½??¿½?¿½?????¿½?¿½??¿½?¿½???¿½?¿½??¿½?¿½????¿½?¿½??¿½?¿½???¿½?¿½??¿½?¿½???????¿½?¿½??¿½?¿½???¿½?¿½??¿½?¿½????¿½?¿½??¿½?¿½???¿½?¿½??¿½?¿½?????¿½?¿½??¿½?¿½???¿½?¿½??¿½?¿½????¿½?¿½??¿½?¿½???¿½?¿½??¿½?¿½??????¿½?¿½??¿½?¿½???¿½?¿½??¿½?¿½????¿½?¿½??¿½?¿½???¿½?¿½??¿½?¿½?????¿½?¿½??¿½?¿½???¿½?¿½??¿½?¿½????¿½?¿½??¿½?¿½???¿½?¿½??¿½?¿½????????¿½?¿½??¿½?¿½???¿½?¿½??¿½?¿½????¿½?¿½??¿½?¿½???¿½?¿½??¿½?¿½?????¿½?¿½??¿½?¿½???¿½?¿½??¿½?¿½????¿½?¿½??¿½?¿½???¿½?¿½??¿½?¿½??????¿½?¿½??¿½?¿½???¿½?¿½??¿½?¿½????¿½?¿½??¿½?¿½???¿½?¿½??¿½?¿½?????¿½?¿½??¿½?¿½???¿½?¿½??¿½?¿½????¿½?¿½??¿½?¿½???¿½?¿½??¿½?¿½???????¿½?¿½??¿½?¿½???¿½?¿½??¿½?¿½????¿½?¿½??¿½?¿½???¿½?¿½??¿½?¿½?????¿½?¿½??¿½?¿½???¿½?¿½??¿½?¿½????¿½?¿½??¿½?¿½???¿½?¿½??¿½?¿½??????¿½?¿½??¿½?¿½???¿½?¿½??¿½?¿½????¿½?¿½??¿½?¿½???¿½?¿½??¿½?¿½?????¿½?¿½??¿½?¿½???¿½?¿½??¿½?¿½????¿½?¿½??¿½?¿½???¿½?¿½??¿½?¿½?)
 8000968:	2300      	movs	r3, #0
 800096a:	9312      	str	r3, [sp, #72]	; 0x48
  filter.FilterIdLow          = 0;                        // ãƒ•ã‚£ãƒ«ã‚¿ãƒ¼ID(ä¸‹ï¿½?16ãƒ“ãƒƒ?????????¿½?¿½??¿½?¿½???¿½?¿½??¿½?¿½????¿½?¿½??¿½?¿½???¿½?¿½??¿½?¿½?????¿½?¿½??¿½?¿½???¿½?¿½??¿½?¿½????¿½?¿½??¿½?¿½???¿½?¿½??¿½?¿½??????¿½?¿½??¿½?¿½???¿½?¿½??¿½?¿½????¿½?¿½??¿½?¿½???¿½?¿½??¿½?¿½?????¿½?¿½??¿½?¿½???¿½?¿½??¿½?¿½????¿½?¿½??¿½?¿½???¿½?¿½??¿½?¿½???????¿½?¿½??¿½?¿½???¿½?¿½??¿½?¿½????¿½?¿½??¿½?¿½???¿½?¿½??¿½?¿½?????¿½?¿½??¿½?¿½???¿½?¿½??¿½?¿½????¿½?¿½??¿½?¿½???¿½?¿½??¿½?¿½??????¿½?¿½??¿½?¿½???¿½?¿½??¿½?¿½????¿½?¿½??¿½?¿½???¿½?¿½??¿½?¿½?????¿½?¿½??¿½?¿½???¿½?¿½??¿½?¿½????¿½?¿½??¿½?¿½???¿½?¿½??¿½?¿½????????¿½?¿½??¿½?¿½???¿½?¿½??¿½?¿½????¿½?¿½??¿½?¿½???¿½?¿½??¿½?¿½?????¿½?¿½??¿½?¿½???¿½?¿½??¿½?¿½????¿½?¿½??¿½?¿½???¿½?¿½??¿½?¿½??????¿½?¿½??¿½?¿½???¿½?¿½??¿½?¿½????¿½?¿½??¿½?¿½???¿½?¿½??¿½?¿½?????¿½?¿½??¿½?¿½???¿½?¿½??¿½?¿½????¿½?¿½??¿½?¿½???¿½?¿½??¿½?¿½???????¿½?¿½??¿½?¿½???¿½?¿½??¿½?¿½????¿½?¿½??¿½?¿½???¿½?¿½??¿½?¿½?????¿½?¿½??¿½?¿½???¿½?¿½??¿½?¿½????¿½?¿½??¿½?¿½???¿½?¿½??¿½?¿½??????¿½?¿½??¿½?¿½???¿½?¿½??¿½?¿½????¿½?¿½??¿½?¿½???¿½?¿½??¿½?¿½?????¿½?¿½??¿½?¿½???¿½?¿½??¿½?¿½????¿½?¿½??¿½?¿½???¿½?¿½??¿½?¿½?)
 800096c:	9313      	str	r3, [sp, #76]	; 0x4c
  filter.FilterMaskIdHigh     = 0;                        // ãƒ•ã‚£ãƒ«ã‚¿ãƒ¼ãƒžã‚¹ã‚¯(ä¸Šï¿½?16ãƒ“ãƒƒ?????????¿½?¿½??¿½?¿½???¿½?¿½??¿½?¿½????¿½?¿½??¿½?¿½???¿½?¿½??¿½?¿½?????¿½?¿½??¿½?¿½???¿½?¿½??¿½?¿½????¿½?¿½??¿½?¿½???¿½?¿½??¿½?¿½??????¿½?¿½??¿½?¿½???¿½?¿½??¿½?¿½????¿½?¿½??¿½?¿½???¿½?¿½??¿½?¿½?????¿½?¿½??¿½?¿½???¿½?¿½??¿½?¿½????¿½?¿½??¿½?¿½???¿½?¿½??¿½?¿½???????¿½?¿½??¿½?¿½???¿½?¿½??¿½?¿½????¿½?¿½??¿½?¿½???¿½?¿½??¿½?¿½?????¿½?¿½??¿½?¿½???¿½?¿½??¿½?¿½????¿½?¿½??¿½?¿½???¿½?¿½??¿½?¿½??????¿½?¿½??¿½?¿½???¿½?¿½??¿½?¿½????¿½?¿½??¿½?¿½???¿½?¿½??¿½?¿½?????¿½?¿½??¿½?¿½???¿½?¿½??¿½?¿½????¿½?¿½??¿½?¿½???¿½?¿½??¿½?¿½????????¿½?¿½??¿½?¿½???¿½?¿½??¿½?¿½????¿½?¿½??¿½?¿½???¿½?¿½??¿½?¿½?????¿½?¿½??¿½?¿½???¿½?¿½??¿½?¿½????¿½?¿½??¿½?¿½???¿½?¿½??¿½?¿½??????¿½?¿½??¿½?¿½???¿½?¿½??¿½?¿½????¿½?¿½??¿½?¿½???¿½?¿½??¿½?¿½?????¿½?¿½??¿½?¿½???¿½?¿½??¿½?¿½????¿½?¿½??¿½?¿½???¿½?¿½??¿½?¿½???????¿½?¿½??¿½?¿½???¿½?¿½??¿½?¿½????¿½?¿½??¿½?¿½???¿½?¿½??¿½?¿½?????¿½?¿½??¿½?¿½???¿½?¿½??¿½?¿½????¿½?¿½??¿½?¿½???¿½?¿½??¿½?¿½??????¿½?¿½??¿½?¿½???¿½?¿½??¿½?¿½????¿½?¿½??¿½?¿½???¿½?¿½??¿½?¿½?????¿½?¿½??¿½?¿½???¿½?¿½??¿½?¿½????¿½?¿½??¿½?¿½???¿½?¿½??¿½?¿½?)
 800096e:	9314      	str	r3, [sp, #80]	; 0x50
  filter.FilterMaskIdLow      = 0;                        // ãƒ•ã‚£ãƒ«ã‚¿ãƒ¼ãƒžã‚¹ã‚¯(ä¸‹ï¿½?16ãƒ“ãƒƒ?????????¿½?¿½??¿½?¿½???¿½?¿½??¿½?¿½????¿½?¿½??¿½?¿½???¿½?¿½??¿½?¿½?????¿½?¿½??¿½?¿½???¿½?¿½??¿½?¿½????¿½?¿½??¿½?¿½???¿½?¿½??¿½?¿½??????¿½?¿½??¿½?¿½???¿½?¿½??¿½?¿½????¿½?¿½??¿½?¿½???¿½?¿½??¿½?¿½?????¿½?¿½??¿½?¿½???¿½?¿½??¿½?¿½????¿½?¿½??¿½?¿½???¿½?¿½??¿½?¿½???????¿½?¿½??¿½?¿½???¿½?¿½??¿½?¿½????¿½?¿½??¿½?¿½???¿½?¿½??¿½?¿½?????¿½?¿½??¿½?¿½???¿½?¿½??¿½?¿½????¿½?¿½??¿½?¿½???¿½?¿½??¿½?¿½??????¿½?¿½??¿½?¿½???¿½?¿½??¿½?¿½????¿½?¿½??¿½?¿½???¿½?¿½??¿½?¿½?????¿½?¿½??¿½?¿½???¿½?¿½??¿½?¿½????¿½?¿½??¿½?¿½???¿½?¿½??¿½?¿½????????¿½?¿½??¿½?¿½???¿½?¿½??¿½?¿½????¿½?¿½??¿½?¿½???¿½?¿½??¿½?¿½?????¿½?¿½??¿½?¿½???¿½?¿½??¿½?¿½????¿½?¿½??¿½?¿½???¿½?¿½??¿½?¿½??????¿½?¿½??¿½?¿½???¿½?¿½??¿½?¿½????¿½?¿½??¿½?¿½???¿½?¿½??¿½?¿½?????¿½?¿½??¿½?¿½???¿½?¿½??¿½?¿½????¿½?¿½??¿½?¿½???¿½?¿½??¿½?¿½???????¿½?¿½??¿½?¿½???¿½?¿½??¿½?¿½????¿½?¿½??¿½?¿½???¿½?¿½??¿½?¿½?????¿½?¿½??¿½?¿½???¿½?¿½??¿½?¿½????¿½?¿½??¿½?¿½???¿½?¿½??¿½?¿½??????¿½?¿½??¿½?¿½???¿½?¿½??¿½?¿½????¿½?¿½??¿½?¿½???¿½?¿½??¿½?¿½?????¿½?¿½??¿½?¿½???¿½?¿½??¿½?¿½????¿½?¿½??¿½?¿½???¿½?¿½??¿½?¿½?)
 8000970:	9315      	str	r3, [sp, #84]	; 0x54
  filter.FilterScale          = CAN_FILTERSCALE_32BIT;    // ãƒ•ã‚£ãƒ«ã‚¿ãƒ¼ã‚¹ã‚±ãƒ¼ãƒ«
 8000972:	2201      	movs	r2, #1
 8000974:	9219      	str	r2, [sp, #100]	; 0x64
  filter.FilterFIFOAssignment = CAN_FILTER_FIFO0;         // ãƒ•ã‚£ãƒ«ã‚¿ãƒ¼ã«å‰²ã‚Šå½“ã¦ã‚‹FIFO
 8000976:	9316      	str	r3, [sp, #88]	; 0x58
  filter.FilterBank           = 0;                        // ãƒ•ã‚£ãƒ«ã‚¿ãƒ¼ãƒãƒ³ã‚¯No
 8000978:	9317      	str	r3, [sp, #92]	; 0x5c
  filter.FilterMode           = CAN_FILTERMODE_IDMASK;    // ãƒ•ã‚£ãƒ«ã‚¿ãƒ¼ãƒ¢ãƒ¼?????????¿½?¿½??¿½?¿½???¿½?¿½??¿½?¿½????¿½?¿½??¿½?¿½???¿½?¿½??¿½?¿½?????¿½?¿½??¿½?¿½???¿½?¿½??¿½?¿½????¿½?¿½??¿½?¿½???¿½?¿½??¿½?¿½??????¿½?¿½??¿½?¿½???¿½?¿½??¿½?¿½????¿½?¿½??¿½?¿½???¿½?¿½??¿½?¿½?????¿½?¿½??¿½?¿½???¿½?¿½??¿½?¿½????¿½?¿½??¿½?¿½???¿½?¿½??¿½?¿½???????¿½?¿½??¿½?¿½???¿½?¿½??¿½?¿½????¿½?¿½??¿½?¿½???¿½?¿½??¿½?¿½?????¿½?¿½??¿½?¿½???¿½?¿½??¿½?¿½????¿½?¿½??¿½?¿½???¿½?¿½??¿½?¿½??????¿½?¿½??¿½?¿½???¿½?¿½??¿½?¿½????¿½?¿½??¿½?¿½???¿½?¿½??¿½?¿½?????¿½?¿½??¿½?¿½???¿½?¿½??¿½?¿½????¿½?¿½??¿½?¿½???¿½?¿½??¿½?¿½????????¿½?¿½??¿½?¿½???¿½?¿½??¿½?¿½????¿½?¿½??¿½?¿½???¿½?¿½??¿½?¿½?????¿½?¿½??¿½?¿½???¿½?¿½??¿½?¿½????¿½?¿½??¿½?¿½???¿½?¿½??¿½?¿½??????¿½?¿½??¿½?¿½???¿½?¿½??¿½?¿½????¿½?¿½??¿½?¿½???¿½?¿½??¿½?¿½?????¿½?¿½??¿½?¿½???¿½?¿½??¿½?¿½????¿½?¿½??¿½?¿½???¿½?¿½??¿½?¿½???????¿½?¿½??¿½?¿½???¿½?¿½??¿½?¿½????¿½?¿½??¿½?¿½???¿½?¿½??¿½?¿½?????¿½?¿½??¿½?¿½???¿½?¿½??¿½?¿½????¿½?¿½??¿½?¿½???¿½?¿½??¿½?¿½??????¿½?¿½??¿½?¿½???¿½?¿½??¿½?¿½????¿½?¿½??¿½?¿½???¿½?¿½??¿½?¿½?????¿½?¿½??¿½?¿½???¿½?¿½??¿½?¿½????¿½?¿½??¿½?¿½???¿½?¿½??¿½?¿½?
 800097a:	9318      	str	r3, [sp, #96]	; 0x60
  filter.SlaveStartFilterBank = 14;                       // ã‚¹ãƒ¬ãƒ¼ãƒ–CANã®é–‹å§‹ãƒ•ã‚£ãƒ«ã‚¿ãƒ¼ãƒãƒ³ã‚¯No
 800097c:	230e      	movs	r3, #14
 800097e:	931b      	str	r3, [sp, #108]	; 0x6c
  filter.FilterActivation     = ENABLE;                   // ãƒ•ã‚£ãƒ«ã‚¿ãƒ¼ç„¡åŠ¹??????????¿½?¿½??¿½?¿½???¿½?¿½??¿½?¿½????¿½?¿½??¿½?¿½???¿½?¿½??¿½?¿½?????¿½?¿½??¿½?¿½???¿½?¿½??¿½?¿½????¿½?¿½??¿½?¿½???¿½?¿½??¿½?¿½??????¿½?¿½??¿½?¿½???¿½?¿½??¿½?¿½????¿½?¿½??¿½?¿½???¿½?¿½??¿½?¿½?????¿½?¿½??¿½?¿½???¿½?¿½??¿½?¿½????¿½?¿½??¿½?¿½???¿½?¿½??¿½?¿½???????¿½?¿½??¿½?¿½???¿½?¿½??¿½?¿½????¿½?¿½??¿½?¿½???¿½?¿½??¿½?¿½?????¿½?¿½??¿½?¿½???¿½?¿½??¿½?¿½????¿½?¿½??¿½?¿½???¿½?¿½??¿½?¿½??????¿½?¿½??¿½?¿½???¿½?¿½??¿½?¿½????¿½?¿½??¿½?¿½???¿½?¿½??¿½?¿½?????¿½?¿½??¿½?¿½???¿½?¿½??¿½?¿½????¿½?¿½??¿½?¿½???¿½?¿½??¿½?¿½????????¿½?¿½??¿½?¿½???¿½?¿½??¿½?¿½????¿½?¿½??¿½?¿½???¿½?¿½??¿½?¿½?????¿½?¿½??¿½?¿½???¿½?¿½??¿½?¿½????¿½?¿½??¿½?¿½???¿½?¿½??¿½?¿½??????¿½?¿½??¿½?¿½???¿½?¿½??¿½?¿½????¿½?¿½??¿½?¿½???¿½?¿½??¿½?¿½?????¿½?¿½??¿½?¿½???¿½?¿½??¿½?¿½????¿½?¿½??¿½?¿½???¿½?¿½??¿½?¿½???????¿½?¿½??¿½?¿½???¿½?¿½??¿½?¿½????¿½?¿½??¿½?¿½???¿½?¿½??¿½?¿½?????¿½?¿½??¿½?¿½???¿½?¿½??¿½?¿½????¿½?¿½??¿½?¿½???¿½?¿½??¿½?¿½??????¿½?¿½??¿½?¿½???¿½?¿½??¿½?¿½????¿½?¿½??¿½?¿½???¿½?¿½??¿½?¿½?????¿½?¿½??¿½?¿½???¿½?¿½??¿½?¿½????¿½?¿½??¿½?¿½???¿½?¿½??¿½?¿½?????????¿½?¿½??¿½?¿½???¿½?¿½??¿½?¿½????¿½?¿½??¿½?¿½???¿½?¿½??¿½?¿½?????¿½?¿½??¿½?¿½???¿½?¿½??¿½?¿½????¿½?¿½??¿½?¿½???¿½?¿½??¿½?¿½??????¿½?¿½??¿½?¿½???¿½?¿½??¿½?¿½????¿½?¿½??¿½?¿½???¿½?¿½??¿½?¿½?????¿½?¿½??¿½?¿½???¿½?¿½??¿½?¿½????¿½?¿½??¿½?¿½???¿½?¿½??¿½?¿½???????¿½?¿½??¿½?¿½???¿½?¿½??¿½?¿½????¿½?¿½??¿½?¿½???¿½?¿½??¿½?¿½?????¿½?¿½??¿½?¿½???¿½?¿½??¿½?¿½????¿½?¿½??¿½?¿½???¿½?¿½??¿½?¿½??????¿½?¿½??¿½?¿½???¿½?¿½??¿½?¿½????¿½?¿½??¿½?¿½???¿½?¿½??¿½?¿½?????¿½?¿½??¿½?¿½???¿½?¿½??¿½?¿½????¿½?¿½??¿½?¿½???¿½?¿½??¿½?¿½????????¿½?¿½??¿½?¿½???¿½?¿½??¿½?¿½????¿½?¿½??¿½?¿½???¿½?¿½??¿½?¿½?????¿½?¿½??¿½?¿½???¿½?¿½??¿½?¿½????¿½?¿½??¿½?¿½???¿½?¿½??¿½?¿½??????¿½?¿½??¿½?¿½???¿½?¿½??¿½?¿½????¿½?¿½??¿½?¿½???¿½?¿½??¿½?¿½?????¿½?¿½??¿½?¿½???¿½?¿½??¿½?¿½????¿½?¿½??¿½?¿½???¿½?¿½??¿½?¿½???????¿½?¿½??¿½?¿½???¿½?¿½??¿½?¿½????¿½?¿½??¿½?¿½???¿½?¿½??¿½?¿½?????¿½?¿½??¿½?¿½???¿½?¿½??¿½?¿½????¿½?¿½??¿½?¿½???¿½?¿½??¿½?¿½??????¿½?¿½??¿½?¿½???¿½?¿½??¿½?¿½????¿½?¿½??¿½?¿½???¿½?¿½??¿½?¿½?????¿½?¿½??¿½?¿½???¿½?¿½??¿½?¿½????¿½?¿½??¿½?¿½???¿½?¿½??¿½?¿½æœ‰åŠ¹
 8000980:	921a      	str	r2, [sp, #104]	; 0x68
  if(HAL_CAN_ConfigFilter(&hcan, &filter)!=HAL_OK ){
 8000982:	a912      	add	r1, sp, #72	; 0x48
 8000984:	480f      	ldr	r0, [pc, #60]	; (80009c4 <main+0x1e0>)
 8000986:	f000 fb00 	bl	8000f8a <HAL_CAN_ConfigFilter>
 800098a:	b168      	cbz	r0, 80009a8 <main+0x1c4>
    Error_Handler();
 800098c:	f7ff fedc 	bl	8000748 <Error_Handler>
    Error_Handler();
 8000990:	f7ff feda 	bl	8000748 <Error_Handler>
    Error_Handler();
 8000994:	f7ff fed8 	bl	8000748 <Error_Handler>
    Error_Handler();
 8000998:	f7ff fed6 	bl	8000748 <Error_Handler>
    Error_Handler();
 800099c:	f7ff fed4 	bl	8000748 <Error_Handler>
    Error_Handler();
 80009a0:	f7ff fed2 	bl	8000748 <Error_Handler>
    Error_Handler();
 80009a4:	f7ff fed0 	bl	8000748 <Error_Handler>
  if(HAL_CAN_ActivateNotification(&hcan, CAN_IT_RX_FIFO0_MSG_PENDING)!=HAL_OK){
 80009a8:	2102      	movs	r1, #2
 80009aa:	4806      	ldr	r0, [pc, #24]	; (80009c4 <main+0x1e0>)
 80009ac:	f000 fc2c 	bl	8001208 <HAL_CAN_ActivateNotification>
 80009b0:	b108      	cbz	r0, 80009b6 <main+0x1d2>
    Error_Handler();
 80009b2:	f7ff fec9 	bl	8000748 <Error_Handler>
  main_cpp();
 80009b6:	f000 f93d 	bl	8000c34 <main_cpp>
  while (1)
 80009ba:	e7fe      	b.n	80009ba <main+0x1d6>
 80009bc:	40021000 	.word	0x40021000
 80009c0:	48000400 	.word	0x48000400
 80009c4:	20000210 	.word	0x20000210
 80009c8:	40006400 	.word	0x40006400
 80009cc:	20000238 	.word	0x20000238
 80009d0:	40000400 	.word	0x40000400

080009d4 <HAL_MspInit>:
/* USER CODE END 0 */
/**
  * Initializes the Global MSP.
  */
void HAL_MspInit(void)
{
 80009d4:	b082      	sub	sp, #8
  /* USER CODE BEGIN MspInit 0 */

  /* USER CODE END MspInit 0 */

  __HAL_RCC_SYSCFG_CLK_ENABLE();
 80009d6:	4b0a      	ldr	r3, [pc, #40]	; (8000a00 <HAL_MspInit+0x2c>)
 80009d8:	699a      	ldr	r2, [r3, #24]
 80009da:	f042 0201 	orr.w	r2, r2, #1
 80009de:	619a      	str	r2, [r3, #24]
 80009e0:	699a      	ldr	r2, [r3, #24]
 80009e2:	f002 0201 	and.w	r2, r2, #1
 80009e6:	9200      	str	r2, [sp, #0]
 80009e8:	9a00      	ldr	r2, [sp, #0]
  __HAL_RCC_PWR_CLK_ENABLE();
 80009ea:	69da      	ldr	r2, [r3, #28]
 80009ec:	f042 5280 	orr.w	r2, r2, #268435456	; 0x10000000
 80009f0:	61da      	str	r2, [r3, #28]
 80009f2:	69db      	ldr	r3, [r3, #28]
 80009f4:	f003 5380 	and.w	r3, r3, #268435456	; 0x10000000
 80009f8:	9301      	str	r3, [sp, #4]
 80009fa:	9b01      	ldr	r3, [sp, #4]
  /* System interrupt init*/

  /* USER CODE BEGIN MspInit 1 */

  /* USER CODE END MspInit 1 */
}
 80009fc:	b002      	add	sp, #8
 80009fe:	4770      	bx	lr
 8000a00:	40021000 	.word	0x40021000

08000a04 <HAL_CAN_MspInit>:
* This function configures the hardware resources used in this example
* @param hcan: CAN handle pointer
* @retval None
*/
void HAL_CAN_MspInit(CAN_HandleTypeDef* hcan)
{
 8000a04:	b500      	push	{lr}
 8000a06:	b089      	sub	sp, #36	; 0x24
  GPIO_InitTypeDef GPIO_InitStruct = {0};
 8000a08:	2300      	movs	r3, #0
 8000a0a:	9303      	str	r3, [sp, #12]
 8000a0c:	9304      	str	r3, [sp, #16]
 8000a0e:	9305      	str	r3, [sp, #20]
 8000a10:	9306      	str	r3, [sp, #24]
 8000a12:	9307      	str	r3, [sp, #28]
  if(hcan->Instance==CAN)
 8000a14:	6802      	ldr	r2, [r0, #0]
 8000a16:	4b18      	ldr	r3, [pc, #96]	; (8000a78 <HAL_CAN_MspInit+0x74>)
 8000a18:	429a      	cmp	r2, r3
 8000a1a:	d002      	beq.n	8000a22 <HAL_CAN_MspInit+0x1e>
  /* USER CODE BEGIN CAN_MspInit 1 */

  /* USER CODE END CAN_MspInit 1 */
  }

}
 8000a1c:	b009      	add	sp, #36	; 0x24
 8000a1e:	f85d fb04 	ldr.w	pc, [sp], #4
    __HAL_RCC_CAN1_CLK_ENABLE();
 8000a22:	f503 33d6 	add.w	r3, r3, #109568	; 0x1ac00
 8000a26:	69da      	ldr	r2, [r3, #28]
 8000a28:	f042 7200 	orr.w	r2, r2, #33554432	; 0x2000000
 8000a2c:	61da      	str	r2, [r3, #28]
 8000a2e:	69da      	ldr	r2, [r3, #28]
 8000a30:	f002 7200 	and.w	r2, r2, #33554432	; 0x2000000
 8000a34:	9201      	str	r2, [sp, #4]
 8000a36:	9a01      	ldr	r2, [sp, #4]
    __HAL_RCC_GPIOB_CLK_ENABLE();
 8000a38:	695a      	ldr	r2, [r3, #20]
 8000a3a:	f442 2280 	orr.w	r2, r2, #262144	; 0x40000
 8000a3e:	615a      	str	r2, [r3, #20]
 8000a40:	695b      	ldr	r3, [r3, #20]
 8000a42:	f403 2380 	and.w	r3, r3, #262144	; 0x40000
 8000a46:	9302      	str	r3, [sp, #8]
 8000a48:	9b02      	ldr	r3, [sp, #8]
    GPIO_InitStruct.Pin = GPIO_PIN_8|GPIO_PIN_9;
 8000a4a:	f44f 7340 	mov.w	r3, #768	; 0x300
 8000a4e:	9303      	str	r3, [sp, #12]
    GPIO_InitStruct.Mode = GPIO_MODE_AF_PP;
 8000a50:	2302      	movs	r3, #2
 8000a52:	9304      	str	r3, [sp, #16]
    GPIO_InitStruct.Speed = GPIO_SPEED_FREQ_HIGH;
 8000a54:	2303      	movs	r3, #3
 8000a56:	9306      	str	r3, [sp, #24]
    GPIO_InitStruct.Alternate = GPIO_AF9_CAN;
 8000a58:	2309      	movs	r3, #9
 8000a5a:	9307      	str	r3, [sp, #28]
    HAL_GPIO_Init(GPIOB, &GPIO_InitStruct);
 8000a5c:	a903      	add	r1, sp, #12
 8000a5e:	4807      	ldr	r0, [pc, #28]	; (8000a7c <HAL_CAN_MspInit+0x78>)
 8000a60:	f000 fd82 	bl	8001568 <HAL_GPIO_Init>
    HAL_NVIC_SetPriority(USB_LP_CAN_RX0_IRQn, 1, 0);
 8000a64:	2200      	movs	r2, #0
 8000a66:	2101      	movs	r1, #1
 8000a68:	2014      	movs	r0, #20
 8000a6a:	f000 fd25 	bl	80014b8 <HAL_NVIC_SetPriority>
    HAL_NVIC_EnableIRQ(USB_LP_CAN_RX0_IRQn);
 8000a6e:	2014      	movs	r0, #20
 8000a70:	f000 fd58 	bl	8001524 <HAL_NVIC_EnableIRQ>
}
 8000a74:	e7d2      	b.n	8000a1c <HAL_CAN_MspInit+0x18>
 8000a76:	bf00      	nop
 8000a78:	40006400 	.word	0x40006400
 8000a7c:	48000400 	.word	0x48000400

08000a80 <HAL_TIM_Base_MspInit>:
* @param htim_base: TIM_Base handle pointer
* @retval None
*/
void HAL_TIM_Base_MspInit(TIM_HandleTypeDef* htim_base)
{
  if(htim_base->Instance==TIM3)
 8000a80:	6802      	ldr	r2, [r0, #0]
 8000a82:	4b0e      	ldr	r3, [pc, #56]	; (8000abc <HAL_TIM_Base_MspInit+0x3c>)
 8000a84:	429a      	cmp	r2, r3
 8000a86:	d000      	beq.n	8000a8a <HAL_TIM_Base_MspInit+0xa>
 8000a88:	4770      	bx	lr
{
 8000a8a:	b500      	push	{lr}
 8000a8c:	b083      	sub	sp, #12
  {
  /* USER CODE BEGIN TIM3_MspInit 0 */

  /* USER CODE END TIM3_MspInit 0 */
    /* Peripheral clock enable */
    __HAL_RCC_TIM3_CLK_ENABLE();
 8000a8e:	f503 3303 	add.w	r3, r3, #134144	; 0x20c00
 8000a92:	69da      	ldr	r2, [r3, #28]
 8000a94:	f042 0202 	orr.w	r2, r2, #2
 8000a98:	61da      	str	r2, [r3, #28]
 8000a9a:	69db      	ldr	r3, [r3, #28]
 8000a9c:	f003 0302 	and.w	r3, r3, #2
 8000aa0:	9301      	str	r3, [sp, #4]
 8000aa2:	9b01      	ldr	r3, [sp, #4]
    /* TIM3 interrupt Init */
    HAL_NVIC_SetPriority(TIM3_IRQn, 2, 0);
 8000aa4:	2200      	movs	r2, #0
 8000aa6:	2102      	movs	r1, #2
 8000aa8:	201d      	movs	r0, #29
 8000aaa:	f000 fd05 	bl	80014b8 <HAL_NVIC_SetPriority>
    HAL_NVIC_EnableIRQ(TIM3_IRQn);
 8000aae:	201d      	movs	r0, #29
 8000ab0:	f000 fd38 	bl	8001524 <HAL_NVIC_EnableIRQ>
  /* USER CODE BEGIN TIM3_MspInit 1 */

  /* USER CODE END TIM3_MspInit 1 */
  }

}
 8000ab4:	b003      	add	sp, #12
 8000ab6:	f85d fb04 	ldr.w	pc, [sp], #4
 8000aba:	bf00      	nop
 8000abc:	40000400 	.word	0x40000400

08000ac0 <NMI_Handler>:
{
  /* USER CODE BEGIN NonMaskableInt_IRQn 0 */

  /* USER CODE END NonMaskableInt_IRQn 0 */
  /* USER CODE BEGIN NonMaskableInt_IRQn 1 */
  while (1)
 8000ac0:	e7fe      	b.n	8000ac0 <NMI_Handler>

08000ac2 <HardFault_Handler>:
void HardFault_Handler(void)
{
  /* USER CODE BEGIN HardFault_IRQn 0 */

  /* USER CODE END HardFault_IRQn 0 */
  while (1)
 8000ac2:	e7fe      	b.n	8000ac2 <HardFault_Handler>

08000ac4 <MemManage_Handler>:
void MemManage_Handler(void)
{
  /* USER CODE BEGIN MemoryManagement_IRQn 0 */

  /* USER CODE END MemoryManagement_IRQn 0 */
  while (1)
 8000ac4:	e7fe      	b.n	8000ac4 <MemManage_Handler>

08000ac6 <BusFault_Handler>:
void BusFault_Handler(void)
{
  /* USER CODE BEGIN BusFault_IRQn 0 */

  /* USER CODE END BusFault_IRQn 0 */
  while (1)
 8000ac6:	e7fe      	b.n	8000ac6 <BusFault_Handler>

08000ac8 <UsageFault_Handler>:
void UsageFault_Handler(void)
{
  /* USER CODE BEGIN UsageFault_IRQn 0 */

  /* USER CODE END UsageFault_IRQn 0 */
  while (1)
 8000ac8:	e7fe      	b.n	8000ac8 <UsageFault_Handler>

08000aca <SVC_Handler>:

  /* USER CODE END SVCall_IRQn 0 */
  /* USER CODE BEGIN SVCall_IRQn 1 */

  /* USER CODE END SVCall_IRQn 1 */
}
 8000aca:	4770      	bx	lr

08000acc <DebugMon_Handler>:

  /* USER CODE END DebugMonitor_IRQn 0 */
  /* USER CODE BEGIN DebugMonitor_IRQn 1 */

  /* USER CODE END DebugMonitor_IRQn 1 */
}
 8000acc:	4770      	bx	lr

08000ace <PendSV_Handler>:

  /* USER CODE END PendSV_IRQn 0 */
  /* USER CODE BEGIN PendSV_IRQn 1 */

  /* USER CODE END PendSV_IRQn 1 */
}
 8000ace:	4770      	bx	lr

08000ad0 <SysTick_Handler>:

/**
  * @brief This function handles System tick timer.
  */
void SysTick_Handler(void)
{
 8000ad0:	b508      	push	{r3, lr}
  /* USER CODE BEGIN SysTick_IRQn 0 */

  /* USER CODE END SysTick_IRQn 0 */
  HAL_IncTick();
 8000ad2:	f000 f9b9 	bl	8000e48 <HAL_IncTick>
  /* USER CODE BEGIN SysTick_IRQn 1 */

  /* USER CODE END SysTick_IRQn 1 */
}
 8000ad6:	bd08      	pop	{r3, pc}

08000ad8 <EXTI1_IRQHandler>:

/**
  * @brief This function handles EXTI line1 interrupt.
  */
void EXTI1_IRQHandler(void)
{
 8000ad8:	b508      	push	{r3, lr}
  /* USER CODE BEGIN EXTI1_IRQn 0 */

  /* USER CODE END EXTI1_IRQn 0 */
  HAL_GPIO_EXTI_IRQHandler(EMS_Pin);
 8000ada:	2002      	movs	r0, #2
 8000adc:	f000 fe24 	bl	8001728 <HAL_GPIO_EXTI_IRQHandler>
  /* USER CODE BEGIN EXTI1_IRQn 1 */

  /* USER CODE END EXTI1_IRQn 1 */
}
 8000ae0:	bd08      	pop	{r3, pc}
	...

08000ae4 <USB_LP_CAN_RX0_IRQHandler>:

/**
  * @brief This function handles USB low priority or CAN_RX0 interrupts.
  */
void USB_LP_CAN_RX0_IRQHandler(void)
{
 8000ae4:	b508      	push	{r3, lr}
  /* USER CODE BEGIN USB_LP_CAN_RX0_IRQn 0 */
//	led_on(green);
  /* USER CODE END USB_LP_CAN_RX0_IRQn 0 */
  HAL_CAN_IRQHandler(&hcan);
 8000ae6:	4802      	ldr	r0, [pc, #8]	; (8000af0 <USB_LP_CAN_RX0_IRQHandler+0xc>)
 8000ae8:	f000 fbad 	bl	8001246 <HAL_CAN_IRQHandler>
  /* USER CODE BEGIN USB_LP_CAN_RX0_IRQn 1 */

  /* USER CODE END USB_LP_CAN_RX0_IRQn 1 */
}
 8000aec:	bd08      	pop	{r3, pc}
 8000aee:	bf00      	nop
 8000af0:	20000210 	.word	0x20000210

08000af4 <TIM3_IRQHandler>:

/**
  * @brief This function handles TIM3 global interrupt.
  */
void TIM3_IRQHandler(void)
{
 8000af4:	b508      	push	{r3, lr}
  /* USER CODE BEGIN TIM3_IRQn 0 */

  /* USER CODE END TIM3_IRQn 0 */
  HAL_TIM_IRQHandler(&htim3);
 8000af6:	4802      	ldr	r0, [pc, #8]	; (8000b00 <TIM3_IRQHandler+0xc>)
 8000af8:	f002 fc64 	bl	80033c4 <HAL_TIM_IRQHandler>
  /* USER CODE BEGIN TIM3_IRQn 1 */

  /* USER CODE END TIM3_IRQn 1 */
}
 8000afc:	bd08      	pop	{r3, pc}
 8000afe:	bf00      	nop
 8000b00:	20000238 	.word	0x20000238

08000b04 <USB_LP_IRQHandler>:

/**
  * @brief This function handles USB low priority interrupt remap.
  */
void USB_LP_IRQHandler(void)
{
 8000b04:	b508      	push	{r3, lr}
  /* USER CODE BEGIN USB_LP_IRQn 0 */

  /* USER CODE END USB_LP_IRQn 0 */
  HAL_PCD_IRQHandler(&hpcd_USB_FS);
 8000b06:	4802      	ldr	r0, [pc, #8]	; (8000b10 <USB_LP_IRQHandler+0xc>)
 8000b08:	f000 fead 	bl	8001866 <HAL_PCD_IRQHandler>
  /* USER CODE BEGIN USB_LP_IRQn 1 */

  /* USER CODE END USB_LP_IRQn 1 */
}
 8000b0c:	bd08      	pop	{r3, pc}
 8000b0e:	bf00      	nop
 8000b10:	2000112c 	.word	0x2000112c

08000b14 <SystemInit>:
  */
void SystemInit(void)
{
/* FPU settings --------------------------------------------------------------*/
#if (__FPU_PRESENT == 1) && (__FPU_USED == 1)
  SCB->CPACR |= ((3UL << 10*2)|(3UL << 11*2));  /* set CP10 and CP11 Full Access */
 8000b14:	4a03      	ldr	r2, [pc, #12]	; (8000b24 <SystemInit+0x10>)
 8000b16:	f8d2 3088 	ldr.w	r3, [r2, #136]	; 0x88
 8000b1a:	f443 0370 	orr.w	r3, r3, #15728640	; 0xf00000
 8000b1e:	f8c2 3088 	str.w	r3, [r2, #136]	; 0x88

  /* Configure the Vector Table location -------------------------------------*/
#if defined(USER_VECT_TAB_ADDRESS)
  SCB->VTOR = VECT_TAB_BASE_ADDRESS | VECT_TAB_OFFSET; /* Vector Table Relocation in Internal SRAM */
#endif /* USER_VECT_TAB_ADDRESS */
}
 8000b22:	4770      	bx	lr
 8000b24:	e000ed00 	.word	0xe000ed00

08000b28 <_ZN10MotorParamC1Ev>:
	vel,
	pos,
	hom,
};

struct MotorParam{
 8000b28:	b5b0      	push	{r4, r5, r7, lr}
 8000b2a:	b082      	sub	sp, #8
 8000b2c:	af00      	add	r7, sp, #0
 8000b2e:	6078      	str	r0, [r7, #4]
 8000b30:	687b      	ldr	r3, [r7, #4]
 8000b32:	4618      	mov	r0, r3
 8000b34:	2320      	movs	r3, #32
 8000b36:	461a      	mov	r2, r3
 8000b38:	2100      	movs	r1, #0
 8000b3a:	f004 ff9e 	bl	8005a7a <memset>
 8000b3e:	687b      	ldr	r3, [r7, #4]
 8000b40:	3320      	adds	r3, #32
 8000b42:	2220      	movs	r2, #32
 8000b44:	2100      	movs	r1, #0
 8000b46:	4618      	mov	r0, r3
 8000b48:	f004 ff97 	bl	8005a7a <memset>
 8000b4c:	687b      	ldr	r3, [r7, #4]
 8000b4e:	3340      	adds	r3, #64	; 0x40
 8000b50:	2220      	movs	r2, #32
 8000b52:	2100      	movs	r1, #0
 8000b54:	4618      	mov	r0, r3
 8000b56:	f004 ff90 	bl	8005a7a <memset>
 8000b5a:	687b      	ldr	r3, [r7, #4]
 8000b5c:	4a26      	ldr	r2, [pc, #152]	; (8000bf8 <_ZN10MotorParamC1Ev+0xd0>)
 8000b5e:	649a      	str	r2, [r3, #72]	; 0x48
 8000b60:	687b      	ldr	r3, [r7, #4]
 8000b62:	3360      	adds	r3, #96	; 0x60
 8000b64:	2220      	movs	r2, #32
 8000b66:	2100      	movs	r1, #0
 8000b68:	4618      	mov	r0, r3
 8000b6a:	f004 ff86 	bl	8005a7a <memset>
 8000b6e:	687b      	ldr	r3, [r7, #4]
 8000b70:	3380      	adds	r3, #128	; 0x80
 8000b72:	2220      	movs	r2, #32
 8000b74:	2100      	movs	r1, #0
 8000b76:	4618      	mov	r0, r3
 8000b78:	f004 ff7f 	bl	8005a7a <memset>
 8000b7c:	687b      	ldr	r3, [r7, #4]
 8000b7e:	33a0      	adds	r3, #160	; 0xa0
 8000b80:	2220      	movs	r2, #32
 8000b82:	2100      	movs	r1, #0
 8000b84:	4618      	mov	r0, r3
 8000b86:	f004 ff78 	bl	8005a7a <memset>
 8000b8a:	687b      	ldr	r3, [r7, #4]
 8000b8c:	33c0      	adds	r3, #192	; 0xc0
 8000b8e:	2220      	movs	r2, #32
 8000b90:	2100      	movs	r1, #0
 8000b92:	4618      	mov	r0, r3
 8000b94:	f004 ff71 	bl	8005a7a <memset>
 8000b98:	687b      	ldr	r3, [r7, #4]
 8000b9a:	33e0      	adds	r3, #224	; 0xe0
 8000b9c:	2200      	movs	r2, #0
 8000b9e:	601a      	str	r2, [r3, #0]
 8000ba0:	605a      	str	r2, [r3, #4]
 8000ba2:	687b      	ldr	r3, [r7, #4]
 8000ba4:	4a15      	ldr	r2, [pc, #84]	; (8000bfc <_ZN10MotorParamC1Ev+0xd4>)
 8000ba6:	33e8      	adds	r3, #232	; 0xe8
 8000ba8:	e892 0003 	ldmia.w	r2, {r0, r1}
 8000bac:	e883 0003 	stmia.w	r3, {r0, r1}
 8000bb0:	687b      	ldr	r3, [r7, #4]
 8000bb2:	33f0      	adds	r3, #240	; 0xf0
 8000bb4:	2220      	movs	r2, #32
 8000bb6:	2100      	movs	r1, #0
 8000bb8:	4618      	mov	r0, r3
 8000bba:	f004 ff5e 	bl	8005a7a <memset>
 8000bbe:	687b      	ldr	r3, [r7, #4]
 8000bc0:	4a0f      	ldr	r2, [pc, #60]	; (8000c00 <_ZN10MotorParamC1Ev+0xd8>)
 8000bc2:	f8c3 20f8 	str.w	r2, [r3, #248]	; 0xf8
 8000bc6:	687b      	ldr	r3, [r7, #4]
 8000bc8:	f503 7388 	add.w	r3, r3, #272	; 0x110
 8000bcc:	2220      	movs	r2, #32
 8000bce:	2100      	movs	r1, #0
 8000bd0:	4618      	mov	r0, r3
 8000bd2:	f004 ff52 	bl	8005a7a <memset>
 8000bd6:	687b      	ldr	r3, [r7, #4]
 8000bd8:	4a0a      	ldr	r2, [pc, #40]	; (8000c04 <_ZN10MotorParamC1Ev+0xdc>)
 8000bda:	f503 7498 	add.w	r4, r3, #304	; 0x130
 8000bde:	4615      	mov	r5, r2
 8000be0:	cd0f      	ldmia	r5!, {r0, r1, r2, r3}
 8000be2:	c40f      	stmia	r4!, {r0, r1, r2, r3}
 8000be4:	e895 000f 	ldmia.w	r5, {r0, r1, r2, r3}
 8000be8:	e884 000f 	stmia.w	r4, {r0, r1, r2, r3}
 8000bec:	687b      	ldr	r3, [r7, #4]
 8000bee:	4618      	mov	r0, r3
 8000bf0:	3708      	adds	r7, #8
 8000bf2:	46bd      	mov	sp, r7
 8000bf4:	bdb0      	pop	{r4, r5, r7, pc}
 8000bf6:	bf00      	nop
 8000bf8:	42c80000 	.word	0x42c80000
 8000bfc:	08005aec 	.word	0x08005aec
 8000c00:	38d1b717 	.word	0x38d1b717
 8000c04:	08005af4 	.word	0x08005af4

08000c08 <_ZN9MotorCtrlC1Ev>:
	float Kp[8] = {0.0,0.0,0.0001,0.0,0.0,0.0,0.0,0.0};
	float Ki[8] = {0.0,0.0,0.0,0.0,0.0,0.0,0.0,0.0};
	float Kd[8] = {0.8,0.0,0.0005,0.0,0.0,0.0,0.0,0.0};
};

class MotorCtrl{
 8000c08:	b580      	push	{r7, lr}
 8000c0a:	b082      	sub	sp, #8
 8000c0c:	af00      	add	r7, sp, #0
 8000c0e:	6078      	str	r0, [r7, #4]
 8000c10:	687b      	ldr	r3, [r7, #4]
 8000c12:	4618      	mov	r0, r3
 8000c14:	f7ff ff88 	bl	8000b28 <_ZN10MotorParamC1Ev>
 8000c18:	687b      	ldr	r3, [r7, #4]
 8000c1a:	f04f 0200 	mov.w	r2, #0
 8000c1e:	f8c3 2150 	str.w	r2, [r3, #336]	; 0x150
 8000c22:	687b      	ldr	r3, [r7, #4]
 8000c24:	2201      	movs	r2, #1
 8000c26:	f883 2164 	strb.w	r2, [r3, #356]	; 0x164
 8000c2a:	687b      	ldr	r3, [r7, #4]
 8000c2c:	4618      	mov	r0, r3
 8000c2e:	3708      	adds	r7, #8
 8000c30:	46bd      	mov	sp, r7
 8000c32:	bd80      	pop	{r7, pc}

08000c34 <main_cpp>:

CAN_TxHeaderTypeDef TxHeader1;
CAN_TxHeaderTypeDef TxHeader2;

void main_cpp()
{
 8000c34:	b580      	push	{r7, lr}
 8000c36:	b082      	sub	sp, #8
 8000c38:	af00      	add	r7, sp, #0
	TxHeader1.IDE = CAN_ID_STD;
 8000c3a:	4b3d      	ldr	r3, [pc, #244]	; (8000d30 <main_cpp+0xfc>)
 8000c3c:	2200      	movs	r2, #0
 8000c3e:	609a      	str	r2, [r3, #8]
	TxHeader1.RTR = CAN_RTR_DATA;
 8000c40:	4b3b      	ldr	r3, [pc, #236]	; (8000d30 <main_cpp+0xfc>)
 8000c42:	2200      	movs	r2, #0
 8000c44:	60da      	str	r2, [r3, #12]
	TxHeader1.StdId = 0x200;
 8000c46:	4b3a      	ldr	r3, [pc, #232]	; (8000d30 <main_cpp+0xfc>)
 8000c48:	f44f 7200 	mov.w	r2, #512	; 0x200
 8000c4c:	601a      	str	r2, [r3, #0]
	TxHeader1.DLC = 8;
 8000c4e:	4b38      	ldr	r3, [pc, #224]	; (8000d30 <main_cpp+0xfc>)
 8000c50:	2208      	movs	r2, #8
 8000c52:	611a      	str	r2, [r3, #16]
	TxHeader1.TransmitGlobalTime = DISABLE;
 8000c54:	4b36      	ldr	r3, [pc, #216]	; (8000d30 <main_cpp+0xfc>)
 8000c56:	2200      	movs	r2, #0
 8000c58:	751a      	strb	r2, [r3, #20]
	TxHeader2.IDE = CAN_ID_STD;
 8000c5a:	4b36      	ldr	r3, [pc, #216]	; (8000d34 <main_cpp+0x100>)
 8000c5c:	2200      	movs	r2, #0
 8000c5e:	609a      	str	r2, [r3, #8]
	TxHeader2.RTR = CAN_RTR_DATA;
 8000c60:	4b34      	ldr	r3, [pc, #208]	; (8000d34 <main_cpp+0x100>)
 8000c62:	2200      	movs	r2, #0
 8000c64:	60da      	str	r2, [r3, #12]
	TxHeader2.StdId = 0x1ff;
 8000c66:	4b33      	ldr	r3, [pc, #204]	; (8000d34 <main_cpp+0x100>)
 8000c68:	f240 12ff 	movw	r2, #511	; 0x1ff
 8000c6c:	601a      	str	r2, [r3, #0]
	TxHeader2.DLC = 8;
 8000c6e:	4b31      	ldr	r3, [pc, #196]	; (8000d34 <main_cpp+0x100>)
 8000c70:	2208      	movs	r2, #8
 8000c72:	611a      	str	r2, [r3, #16]
	TxHeader2.TransmitGlobalTime = DISABLE;
 8000c74:	4b2f      	ldr	r3, [pc, #188]	; (8000d34 <main_cpp+0x100>)
 8000c76:	2200      	movs	r2, #0
 8000c78:	751a      	strb	r2, [r3, #20]

	HAL_CAN_Start(&hcan);
 8000c7a:	482f      	ldr	r0, [pc, #188]	; (8000d38 <main_cpp+0x104>)
 8000c7c:	f000 fa08 	bl	8001090 <HAL_CAN_Start>
	HAL_TIM_Base_Start_IT(&htim3);
 8000c80:	482e      	ldr	r0, [pc, #184]	; (8000d3c <main_cpp+0x108>)
 8000c82:	f002 fb5b 	bl	800333c <HAL_TIM_Base_Start_IT>

	uint8_t debug_state = 0;
 8000c86:	2300      	movs	r3, #0
 8000c88:	71fb      	strb	r3, [r7, #7]
	while (true)
	{
		if (READ_BIT(CAN->MSR, CAN_MSR_INAK) == 1)
 8000c8a:	4b2d      	ldr	r3, [pc, #180]	; (8000d40 <main_cpp+0x10c>)
 8000c8c:	685b      	ldr	r3, [r3, #4]
 8000c8e:	f003 0301 	and.w	r3, r3, #1
 8000c92:	2b01      	cmp	r3, #1
 8000c94:	bf0c      	ite	eq
 8000c96:	2301      	moveq	r3, #1
 8000c98:	2300      	movne	r3, #0
 8000c9a:	b2db      	uxtb	r3, r3
 8000c9c:	2b00      	cmp	r3, #0
 8000c9e:	d008      	beq.n	8000cb2 <main_cpp+0x7e>
		{
			// can start
			CLEAR_BIT(CAN->MCR, CAN_MCR_INRQ);
 8000ca0:	4b27      	ldr	r3, [pc, #156]	; (8000d40 <main_cpp+0x10c>)
 8000ca2:	681b      	ldr	r3, [r3, #0]
 8000ca4:	4a26      	ldr	r2, [pc, #152]	; (8000d40 <main_cpp+0x10c>)
 8000ca6:	f023 0301 	bic.w	r3, r3, #1
 8000caa:	6013      	str	r3, [r2, #0]
			led_on(green);
 8000cac:	2001      	movs	r0, #1
 8000cae:	f7ff fd13 	bl	80006d8 <led_on>
		}
		if (debug_state == 0)
 8000cb2:	79fb      	ldrb	r3, [r7, #7]
 8000cb4:	2b00      	cmp	r3, #0
 8000cb6:	d126      	bne.n	8000d06 <main_cpp+0xd2>
		{
			switch (hUsbDeviceFS.dev_state)
 8000cb8:	4b22      	ldr	r3, [pc, #136]	; (8000d44 <main_cpp+0x110>)
 8000cba:	f893 329c 	ldrb.w	r3, [r3, #668]	; 0x29c
 8000cbe:	3b01      	subs	r3, #1
 8000cc0:	2b03      	cmp	r3, #3
 8000cc2:	d832      	bhi.n	8000d2a <main_cpp+0xf6>
 8000cc4:	a201      	add	r2, pc, #4	; (adr r2, 8000ccc <main_cpp+0x98>)
 8000cc6:	f852 f023 	ldr.w	pc, [r2, r3, lsl #2]
 8000cca:	bf00      	nop
 8000ccc:	08000cdd 	.word	0x08000cdd
 8000cd0:	08000ce5 	.word	0x08000ce5
 8000cd4:	08000cfb 	.word	0x08000cfb
 8000cd8:	08000ced 	.word	0x08000ced
			{
			case USBD_STATE_DEFAULT:
				led_on(red);
 8000cdc:	2003      	movs	r0, #3
 8000cde:	f7ff fcfb 	bl	80006d8 <led_on>
				break;
 8000ce2:	e022      	b.n	8000d2a <main_cpp+0xf6>
			case USBD_STATE_ADDRESSED:
				led_on(yellow);
 8000ce4:	2002      	movs	r0, #2
 8000ce6:	f7ff fcf7 	bl	80006d8 <led_on>
				break;
 8000cea:	e01e      	b.n	8000d2a <main_cpp+0xf6>
			case USBD_STATE_SUSPENDED:
				led_on(yellow);
 8000cec:	2002      	movs	r0, #2
 8000cee:	f7ff fcf3 	bl	80006d8 <led_on>
				led_on(red);
 8000cf2:	2003      	movs	r0, #3
 8000cf4:	f7ff fcf0 	bl	80006d8 <led_on>
				break;
 8000cf8:	e017      	b.n	8000d2a <main_cpp+0xf6>
			case USBD_STATE_CONFIGURED:
				led_on(green);
 8000cfa:	2001      	movs	r0, #1
 8000cfc:	f7ff fcec 	bl	80006d8 <led_on>
				debug_state = 1;
 8000d00:	2301      	movs	r3, #1
 8000d02:	71fb      	strb	r3, [r7, #7]
				break;
 8000d04:	e011      	b.n	8000d2a <main_cpp+0xf6>
			}
		}
		else if (debug_state == 1)
 8000d06:	79fb      	ldrb	r3, [r7, #7]
 8000d08:	2b01      	cmp	r3, #1
 8000d0a:	d10e      	bne.n	8000d2a <main_cpp+0xf6>
		{
			switch (hcan.ErrorCode)
 8000d0c:	4b0a      	ldr	r3, [pc, #40]	; (8000d38 <main_cpp+0x104>)
 8000d0e:	6a5b      	ldr	r3, [r3, #36]	; 0x24
 8000d10:	2b20      	cmp	r3, #32
 8000d12:	d005      	beq.n	8000d20 <main_cpp+0xec>
 8000d14:	2b80      	cmp	r3, #128	; 0x80
 8000d16:	d107      	bne.n	8000d28 <main_cpp+0xf4>
			{
			case HAL_CAN_ERROR_BD: // bit dominant error
				led_on(red);
 8000d18:	2003      	movs	r0, #3
 8000d1a:	f7ff fcdd 	bl	80006d8 <led_on>
				break;
 8000d1e:	e004      	b.n	8000d2a <main_cpp+0xf6>
			case HAL_CAN_ERROR_ACK: // acknowledge error
				led_on(yellow);
 8000d20:	2002      	movs	r0, #2
 8000d22:	f7ff fcd9 	bl	80006d8 <led_on>
				break;
 8000d26:	e000      	b.n	8000d2a <main_cpp+0xf6>
			default:
				break;
 8000d28:	bf00      	nop
			}
		}

		led_process(); //turn off all led
 8000d2a:	f7ff fcef 	bl	800070c <led_process>
		if (READ_BIT(CAN->MSR, CAN_MSR_INAK) == 1)
 8000d2e:	e7ac      	b.n	8000c8a <main_cpp+0x56>
 8000d30:	200003ec 	.word	0x200003ec
 8000d34:	20000404 	.word	0x20000404
 8000d38:	20000210 	.word	0x20000210
 8000d3c:	20000238 	.word	0x20000238
 8000d40:	40006400 	.word	0x40006400
 8000d44:	20000424 	.word	0x20000424

08000d48 <_Z41__static_initialization_and_destruction_0ii>:
	}
}
 8000d48:	b580      	push	{r7, lr}
 8000d4a:	b082      	sub	sp, #8
 8000d4c:	af00      	add	r7, sp, #0
 8000d4e:	6078      	str	r0, [r7, #4]
 8000d50:	6039      	str	r1, [r7, #0]
 8000d52:	687b      	ldr	r3, [r7, #4]
 8000d54:	2b01      	cmp	r3, #1
 8000d56:	d107      	bne.n	8000d68 <_Z41__static_initialization_and_destruction_0ii+0x20>
 8000d58:	683b      	ldr	r3, [r7, #0]
 8000d5a:	f64f 72ff 	movw	r2, #65535	; 0xffff
 8000d5e:	4293      	cmp	r3, r2
 8000d60:	d102      	bne.n	8000d68 <_Z41__static_initialization_and_destruction_0ii+0x20>
MotorCtrl motor;
 8000d62:	4803      	ldr	r0, [pc, #12]	; (8000d70 <_Z41__static_initialization_and_destruction_0ii+0x28>)
 8000d64:	f7ff ff50 	bl	8000c08 <_ZN9MotorCtrlC1Ev>
}
 8000d68:	bf00      	nop
 8000d6a:	3708      	adds	r7, #8
 8000d6c:	46bd      	mov	sp, r7
 8000d6e:	bd80      	pop	{r7, pc}
 8000d70:	20000284 	.word	0x20000284

08000d74 <_GLOBAL__sub_I_motor>:
 8000d74:	b580      	push	{r7, lr}
 8000d76:	af00      	add	r7, sp, #0
 8000d78:	f64f 71ff 	movw	r1, #65535	; 0xffff
 8000d7c:	2001      	movs	r0, #1
 8000d7e:	f7ff ffe3 	bl	8000d48 <_Z41__static_initialization_and_destruction_0ii>
 8000d82:	bd80      	pop	{r7, pc}

08000d84 <Reset_Handler>:

    .section	.text.Reset_Handler
	.weak	Reset_Handler
	.type	Reset_Handler, %function
Reset_Handler:
  ldr   sp, =_estack    /* Atollic update: set stack pointer */
 8000d84:	f8df d034 	ldr.w	sp, [pc, #52]	; 8000dbc <LoopForever+0x2>

/* Copy the data segment initializers from flash to SRAM */
  ldr r0, =_sdata
 8000d88:	480d      	ldr	r0, [pc, #52]	; (8000dc0 <LoopForever+0x6>)
  ldr r1, =_edata
 8000d8a:	490e      	ldr	r1, [pc, #56]	; (8000dc4 <LoopForever+0xa>)
  ldr r2, =_sidata
 8000d8c:	4a0e      	ldr	r2, [pc, #56]	; (8000dc8 <LoopForever+0xe>)
  movs r3, #0
 8000d8e:	2300      	movs	r3, #0
  b LoopCopyDataInit
 8000d90:	e002      	b.n	8000d98 <LoopCopyDataInit>

08000d92 <CopyDataInit>:

CopyDataInit:
  ldr r4, [r2, r3]
 8000d92:	58d4      	ldr	r4, [r2, r3]
  str r4, [r0, r3]
 8000d94:	50c4      	str	r4, [r0, r3]
  adds r3, r3, #4
 8000d96:	3304      	adds	r3, #4

08000d98 <LoopCopyDataInit>:

LoopCopyDataInit:
  adds r4, r0, r3
 8000d98:	18c4      	adds	r4, r0, r3
  cmp r4, r1
 8000d9a:	428c      	cmp	r4, r1
  bcc CopyDataInit
 8000d9c:	d3f9      	bcc.n	8000d92 <CopyDataInit>
  
/* Zero fill the bss segment. */
  ldr r2, =_sbss
 8000d9e:	4a0b      	ldr	r2, [pc, #44]	; (8000dcc <LoopForever+0x12>)
  ldr r4, =_ebss
 8000da0:	4c0b      	ldr	r4, [pc, #44]	; (8000dd0 <LoopForever+0x16>)
  movs r3, #0
 8000da2:	2300      	movs	r3, #0
  b LoopFillZerobss
 8000da4:	e001      	b.n	8000daa <LoopFillZerobss>

08000da6 <FillZerobss>:

FillZerobss:
  str  r3, [r2]
 8000da6:	6013      	str	r3, [r2, #0]
  adds r2, r2, #4
 8000da8:	3204      	adds	r2, #4

08000daa <LoopFillZerobss>:

LoopFillZerobss:
  cmp r2, r4
 8000daa:	42a2      	cmp	r2, r4
  bcc FillZerobss
 8000dac:	d3fb      	bcc.n	8000da6 <FillZerobss>

/* Call the clock system intitialization function.*/
    bl  SystemInit
 8000dae:	f7ff feb1 	bl	8000b14 <SystemInit>
/* Call static constructors */
    bl __libc_init_array
 8000db2:	f004 fe6b 	bl	8005a8c <__libc_init_array>
/* Call the application's entry point.*/
	bl	main
 8000db6:	f7ff fd15 	bl	80007e4 <main>

08000dba <LoopForever>:

LoopForever:
    b LoopForever
 8000dba:	e7fe      	b.n	8000dba <LoopForever>
  ldr   sp, =_estack    /* Atollic update: set stack pointer */
 8000dbc:	20008000 	.word	0x20008000
  ldr r0, =_sdata
 8000dc0:	20000000 	.word	0x20000000
  ldr r1, =_edata
 8000dc4:	200001d8 	.word	0x200001d8
  ldr r2, =_sidata
 8000dc8:	08005b88 	.word	0x08005b88
  ldr r2, =_sbss
 8000dcc:	200001d8 	.word	0x200001d8
  ldr r4, =_ebss
 8000dd0:	20001638 	.word	0x20001638

08000dd4 <ADC1_2_IRQHandler>:
 * @retval : None
*/
    .section	.text.Default_Handler,"ax",%progbits
Default_Handler:
Infinite_Loop:
	b	Infinite_Loop
 8000dd4:	e7fe      	b.n	8000dd4 <ADC1_2_IRQHandler>
	...

08000dd8 <HAL_InitTick>:
  *         implementation  in user file.
  * @param TickPriority Tick interrupt priority.
  * @retval HAL status
  */
__weak HAL_StatusTypeDef HAL_InitTick(uint32_t TickPriority)
{
 8000dd8:	b510      	push	{r4, lr}
 8000dda:	4604      	mov	r4, r0
  /* Configure the SysTick to have interrupt in 1ms time basis*/
  if (HAL_SYSTICK_Config(SystemCoreClock / (1000U / uwTickFreq)) > 0U)
 8000ddc:	4b0e      	ldr	r3, [pc, #56]	; (8000e18 <HAL_InitTick+0x40>)
 8000dde:	781a      	ldrb	r2, [r3, #0]
 8000de0:	f44f 737a 	mov.w	r3, #1000	; 0x3e8
 8000de4:	fbb3 f3f2 	udiv	r3, r3, r2
 8000de8:	4a0c      	ldr	r2, [pc, #48]	; (8000e1c <HAL_InitTick+0x44>)
 8000dea:	6810      	ldr	r0, [r2, #0]
 8000dec:	fbb0 f0f3 	udiv	r0, r0, r3
 8000df0:	f000 fba6 	bl	8001540 <HAL_SYSTICK_Config>
 8000df4:	b968      	cbnz	r0, 8000e12 <HAL_InitTick+0x3a>
  {
    return HAL_ERROR;
  }

  /* Configure the SysTick IRQ priority */
  if (TickPriority < (1UL << __NVIC_PRIO_BITS))
 8000df6:	2c0f      	cmp	r4, #15
 8000df8:	d901      	bls.n	8000dfe <HAL_InitTick+0x26>
    HAL_NVIC_SetPriority(SysTick_IRQn, TickPriority, 0U);
    uwTickPrio = TickPriority;
  }
  else
  {
    return HAL_ERROR;
 8000dfa:	2001      	movs	r0, #1
 8000dfc:	e00a      	b.n	8000e14 <HAL_InitTick+0x3c>
    HAL_NVIC_SetPriority(SysTick_IRQn, TickPriority, 0U);
 8000dfe:	2200      	movs	r2, #0
 8000e00:	4621      	mov	r1, r4
 8000e02:	f04f 30ff 	mov.w	r0, #4294967295
 8000e06:	f000 fb57 	bl	80014b8 <HAL_NVIC_SetPriority>
    uwTickPrio = TickPriority;
 8000e0a:	4b05      	ldr	r3, [pc, #20]	; (8000e20 <HAL_InitTick+0x48>)
 8000e0c:	601c      	str	r4, [r3, #0]
  }
   /* Return function status */
  return HAL_OK;
 8000e0e:	2000      	movs	r0, #0
 8000e10:	e000      	b.n	8000e14 <HAL_InitTick+0x3c>
    return HAL_ERROR;
 8000e12:	2001      	movs	r0, #1
}
 8000e14:	bd10      	pop	{r4, pc}
 8000e16:	bf00      	nop
 8000e18:	20000054 	.word	0x20000054
 8000e1c:	20000050 	.word	0x20000050
 8000e20:	20000058 	.word	0x20000058

08000e24 <HAL_Init>:
{
 8000e24:	b508      	push	{r3, lr}
  __HAL_FLASH_PREFETCH_BUFFER_ENABLE();
 8000e26:	4a07      	ldr	r2, [pc, #28]	; (8000e44 <HAL_Init+0x20>)
 8000e28:	6813      	ldr	r3, [r2, #0]
 8000e2a:	f043 0310 	orr.w	r3, r3, #16
 8000e2e:	6013      	str	r3, [r2, #0]
  HAL_NVIC_SetPriorityGrouping(NVIC_PRIORITYGROUP_4);
 8000e30:	2003      	movs	r0, #3
 8000e32:	f000 fb2f 	bl	8001494 <HAL_NVIC_SetPriorityGrouping>
  HAL_InitTick(TICK_INT_PRIORITY);
 8000e36:	200f      	movs	r0, #15
 8000e38:	f7ff ffce 	bl	8000dd8 <HAL_InitTick>
  HAL_MspInit();
 8000e3c:	f7ff fdca 	bl	80009d4 <HAL_MspInit>
}
 8000e40:	2000      	movs	r0, #0
 8000e42:	bd08      	pop	{r3, pc}
 8000e44:	40022000 	.word	0x40022000

08000e48 <HAL_IncTick>:
  *         implementations  in user file.
  * @retval None
  */
__weak void HAL_IncTick(void)
{
  uwTick += uwTickFreq;
 8000e48:	4a03      	ldr	r2, [pc, #12]	; (8000e58 <HAL_IncTick+0x10>)
 8000e4a:	6811      	ldr	r1, [r2, #0]
 8000e4c:	4b03      	ldr	r3, [pc, #12]	; (8000e5c <HAL_IncTick+0x14>)
 8000e4e:	781b      	ldrb	r3, [r3, #0]
 8000e50:	440b      	add	r3, r1
 8000e52:	6013      	str	r3, [r2, #0]
}
 8000e54:	4770      	bx	lr
 8000e56:	bf00      	nop
 8000e58:	2000041c 	.word	0x2000041c
 8000e5c:	20000054 	.word	0x20000054

08000e60 <HAL_GetTick>:
  *         implementations  in user file.
  * @retval tick value
  */
__weak uint32_t HAL_GetTick(void)
{
  return uwTick;  
 8000e60:	4b01      	ldr	r3, [pc, #4]	; (8000e68 <HAL_GetTick+0x8>)
 8000e62:	6818      	ldr	r0, [r3, #0]
}
 8000e64:	4770      	bx	lr
 8000e66:	bf00      	nop
 8000e68:	2000041c 	.word	0x2000041c

08000e6c <HAL_CAN_Init>:
HAL_StatusTypeDef HAL_CAN_Init(CAN_HandleTypeDef *hcan)
{
  uint32_t tickstart;

  /* Check CAN handle */
  if (hcan == NULL)
 8000e6c:	2800      	cmp	r0, #0
 8000e6e:	f000 808a 	beq.w	8000f86 <HAL_CAN_Init+0x11a>
{
 8000e72:	b538      	push	{r3, r4, r5, lr}
 8000e74:	4604      	mov	r4, r0
    /* Init the low level hardware: CLOCK, NVIC */
    hcan->MspInitCallback(hcan);
  }

#else
  if (hcan->State == HAL_CAN_STATE_RESET)
 8000e76:	f890 3020 	ldrb.w	r3, [r0, #32]
 8000e7a:	b1d3      	cbz	r3, 8000eb2 <HAL_CAN_Init+0x46>
    HAL_CAN_MspInit(hcan);
  }
#endif /* (USE_HAL_CAN_REGISTER_CALLBACKS) */

  /* Request initialisation */
  SET_BIT(hcan->Instance->MCR, CAN_MCR_INRQ);
 8000e7c:	6822      	ldr	r2, [r4, #0]
 8000e7e:	6813      	ldr	r3, [r2, #0]
 8000e80:	f043 0301 	orr.w	r3, r3, #1
 8000e84:	6013      	str	r3, [r2, #0]

  /* Get tick */
  tickstart = HAL_GetTick();
 8000e86:	f7ff ffeb 	bl	8000e60 <HAL_GetTick>
 8000e8a:	4605      	mov	r5, r0

  /* Wait initialisation acknowledge */
  while ((hcan->Instance->MSR & CAN_MSR_INAK) == 0U)
 8000e8c:	6823      	ldr	r3, [r4, #0]
 8000e8e:	685a      	ldr	r2, [r3, #4]
 8000e90:	f012 0f01 	tst.w	r2, #1
 8000e94:	d110      	bne.n	8000eb8 <HAL_CAN_Init+0x4c>
  {
    if ((HAL_GetTick() - tickstart) > CAN_TIMEOUT_VALUE)
 8000e96:	f7ff ffe3 	bl	8000e60 <HAL_GetTick>
 8000e9a:	1b40      	subs	r0, r0, r5
 8000e9c:	280a      	cmp	r0, #10
 8000e9e:	d9f5      	bls.n	8000e8c <HAL_CAN_Init+0x20>
    {
      /* Update error code */
      hcan->ErrorCode |= HAL_CAN_ERROR_TIMEOUT;
 8000ea0:	6a63      	ldr	r3, [r4, #36]	; 0x24
 8000ea2:	f443 3300 	orr.w	r3, r3, #131072	; 0x20000
 8000ea6:	6263      	str	r3, [r4, #36]	; 0x24

      /* Change CAN state */
      hcan->State = HAL_CAN_STATE_ERROR;
 8000ea8:	2305      	movs	r3, #5
 8000eaa:	f884 3020 	strb.w	r3, [r4, #32]

      return HAL_ERROR;
 8000eae:	2001      	movs	r0, #1
  /* Initialize the CAN state */
  hcan->State = HAL_CAN_STATE_READY;

  /* Return function status */
  return HAL_OK;
}
 8000eb0:	bd38      	pop	{r3, r4, r5, pc}
    HAL_CAN_MspInit(hcan);
 8000eb2:	f7ff fda7 	bl	8000a04 <HAL_CAN_MspInit>
 8000eb6:	e7e1      	b.n	8000e7c <HAL_CAN_Init+0x10>
  CLEAR_BIT(hcan->Instance->MCR, CAN_MCR_SLEEP);
 8000eb8:	681a      	ldr	r2, [r3, #0]
 8000eba:	f022 0202 	bic.w	r2, r2, #2
 8000ebe:	601a      	str	r2, [r3, #0]
  tickstart = HAL_GetTick();
 8000ec0:	f7ff ffce 	bl	8000e60 <HAL_GetTick>
 8000ec4:	4605      	mov	r5, r0
  while ((hcan->Instance->MSR & CAN_MSR_SLAK) != 0U)
 8000ec6:	6823      	ldr	r3, [r4, #0]
 8000ec8:	685a      	ldr	r2, [r3, #4]
 8000eca:	f012 0f02 	tst.w	r2, #2
 8000ece:	d00d      	beq.n	8000eec <HAL_CAN_Init+0x80>
    if ((HAL_GetTick() - tickstart) > CAN_TIMEOUT_VALUE)
 8000ed0:	f7ff ffc6 	bl	8000e60 <HAL_GetTick>
 8000ed4:	1b40      	subs	r0, r0, r5
 8000ed6:	280a      	cmp	r0, #10
 8000ed8:	d9f5      	bls.n	8000ec6 <HAL_CAN_Init+0x5a>
      hcan->ErrorCode |= HAL_CAN_ERROR_TIMEOUT;
 8000eda:	6a63      	ldr	r3, [r4, #36]	; 0x24
 8000edc:	f443 3300 	orr.w	r3, r3, #131072	; 0x20000
 8000ee0:	6263      	str	r3, [r4, #36]	; 0x24
      hcan->State = HAL_CAN_STATE_ERROR;
 8000ee2:	2305      	movs	r3, #5
 8000ee4:	f884 3020 	strb.w	r3, [r4, #32]
      return HAL_ERROR;
 8000ee8:	2001      	movs	r0, #1
 8000eea:	e7e1      	b.n	8000eb0 <HAL_CAN_Init+0x44>
  if (hcan->Init.TimeTriggeredMode == ENABLE)
 8000eec:	7e22      	ldrb	r2, [r4, #24]
 8000eee:	2a01      	cmp	r2, #1
    SET_BIT(hcan->Instance->MCR, CAN_MCR_TTCM);
 8000ef0:	681a      	ldr	r2, [r3, #0]
 8000ef2:	bf0c      	ite	eq
 8000ef4:	f042 0280 	orreq.w	r2, r2, #128	; 0x80
    CLEAR_BIT(hcan->Instance->MCR, CAN_MCR_TTCM);
 8000ef8:	f022 0280 	bicne.w	r2, r2, #128	; 0x80
 8000efc:	601a      	str	r2, [r3, #0]
  if (hcan->Init.AutoBusOff == ENABLE)
 8000efe:	7e63      	ldrb	r3, [r4, #25]
 8000f00:	2b01      	cmp	r3, #1
    SET_BIT(hcan->Instance->MCR, CAN_MCR_ABOM);
 8000f02:	6822      	ldr	r2, [r4, #0]
 8000f04:	6813      	ldr	r3, [r2, #0]
 8000f06:	bf0c      	ite	eq
 8000f08:	f043 0340 	orreq.w	r3, r3, #64	; 0x40
    CLEAR_BIT(hcan->Instance->MCR, CAN_MCR_ABOM);
 8000f0c:	f023 0340 	bicne.w	r3, r3, #64	; 0x40
 8000f10:	6013      	str	r3, [r2, #0]
  if (hcan->Init.AutoWakeUp == ENABLE)
 8000f12:	7ea3      	ldrb	r3, [r4, #26]
 8000f14:	2b01      	cmp	r3, #1
    SET_BIT(hcan->Instance->MCR, CAN_MCR_AWUM);
 8000f16:	6822      	ldr	r2, [r4, #0]
 8000f18:	6813      	ldr	r3, [r2, #0]
 8000f1a:	bf0c      	ite	eq
 8000f1c:	f043 0320 	orreq.w	r3, r3, #32
    CLEAR_BIT(hcan->Instance->MCR, CAN_MCR_AWUM);
 8000f20:	f023 0320 	bicne.w	r3, r3, #32
 8000f24:	6013      	str	r3, [r2, #0]
  if (hcan->Init.AutoRetransmission == ENABLE)
 8000f26:	7ee3      	ldrb	r3, [r4, #27]
 8000f28:	2b01      	cmp	r3, #1
    CLEAR_BIT(hcan->Instance->MCR, CAN_MCR_NART);
 8000f2a:	6822      	ldr	r2, [r4, #0]
 8000f2c:	6813      	ldr	r3, [r2, #0]
 8000f2e:	bf0c      	ite	eq
 8000f30:	f023 0310 	biceq.w	r3, r3, #16
    SET_BIT(hcan->Instance->MCR, CAN_MCR_NART);
 8000f34:	f043 0310 	orrne.w	r3, r3, #16
 8000f38:	6013      	str	r3, [r2, #0]
  if (hcan->Init.ReceiveFifoLocked == ENABLE)
 8000f3a:	7f23      	ldrb	r3, [r4, #28]
 8000f3c:	2b01      	cmp	r3, #1
    SET_BIT(hcan->Instance->MCR, CAN_MCR_RFLM);
 8000f3e:	6822      	ldr	r2, [r4, #0]
 8000f40:	6813      	ldr	r3, [r2, #0]
 8000f42:	bf0c      	ite	eq
 8000f44:	f043 0308 	orreq.w	r3, r3, #8
    CLEAR_BIT(hcan->Instance->MCR, CAN_MCR_RFLM);
 8000f48:	f023 0308 	bicne.w	r3, r3, #8
 8000f4c:	6013      	str	r3, [r2, #0]
  if (hcan->Init.TransmitFifoPriority == ENABLE)
 8000f4e:	7f63      	ldrb	r3, [r4, #29]
 8000f50:	2b01      	cmp	r3, #1
    SET_BIT(hcan->Instance->MCR, CAN_MCR_TXFP);
 8000f52:	6822      	ldr	r2, [r4, #0]
 8000f54:	6813      	ldr	r3, [r2, #0]
 8000f56:	bf0c      	ite	eq
 8000f58:	f043 0304 	orreq.w	r3, r3, #4
    CLEAR_BIT(hcan->Instance->MCR, CAN_MCR_TXFP);
 8000f5c:	f023 0304 	bicne.w	r3, r3, #4
 8000f60:	6013      	str	r3, [r2, #0]
  WRITE_REG(hcan->Instance->BTR, (uint32_t)(hcan->Init.Mode           |
 8000f62:	6821      	ldr	r1, [r4, #0]
 8000f64:	68a3      	ldr	r3, [r4, #8]
 8000f66:	68e2      	ldr	r2, [r4, #12]
 8000f68:	4313      	orrs	r3, r2
 8000f6a:	6922      	ldr	r2, [r4, #16]
 8000f6c:	4313      	orrs	r3, r2
 8000f6e:	6962      	ldr	r2, [r4, #20]
 8000f70:	4313      	orrs	r3, r2
 8000f72:	6862      	ldr	r2, [r4, #4]
 8000f74:	3a01      	subs	r2, #1
 8000f76:	4313      	orrs	r3, r2
 8000f78:	61cb      	str	r3, [r1, #28]
  hcan->ErrorCode = HAL_CAN_ERROR_NONE;
 8000f7a:	2000      	movs	r0, #0
 8000f7c:	6260      	str	r0, [r4, #36]	; 0x24
  hcan->State = HAL_CAN_STATE_READY;
 8000f7e:	2301      	movs	r3, #1
 8000f80:	f884 3020 	strb.w	r3, [r4, #32]
  return HAL_OK;
 8000f84:	e794      	b.n	8000eb0 <HAL_CAN_Init+0x44>
    return HAL_ERROR;
 8000f86:	2001      	movs	r0, #1
}
 8000f88:	4770      	bx	lr

08000f8a <HAL_CAN_ConfigFilter>:
  * @retval None
  */
HAL_StatusTypeDef HAL_CAN_ConfigFilter(CAN_HandleTypeDef *hcan, const CAN_FilterTypeDef *sFilterConfig)
{
  uint32_t filternbrbitpos;
  CAN_TypeDef *can_ip = hcan->Instance;
 8000f8a:	6802      	ldr	r2, [r0, #0]
  HAL_CAN_StateTypeDef state = hcan->State;
 8000f8c:	f890 3020 	ldrb.w	r3, [r0, #32]

  if ((state == HAL_CAN_STATE_READY) ||
 8000f90:	3b01      	subs	r3, #1
 8000f92:	b2db      	uxtb	r3, r3
 8000f94:	2b01      	cmp	r3, #1
 8000f96:	d905      	bls.n	8000fa4 <HAL_CAN_ConfigFilter+0x1a>
    return HAL_OK;
  }
  else
  {
    /* Update error code */
    hcan->ErrorCode |= HAL_CAN_ERROR_NOT_INITIALIZED;
 8000f98:	6a43      	ldr	r3, [r0, #36]	; 0x24
 8000f9a:	f443 2380 	orr.w	r3, r3, #262144	; 0x40000
 8000f9e:	6243      	str	r3, [r0, #36]	; 0x24

    return HAL_ERROR;
 8000fa0:	2001      	movs	r0, #1
  }
}
 8000fa2:	4770      	bx	lr
{
 8000fa4:	b430      	push	{r4, r5}
    SET_BIT(can_ip->FMR, CAN_FMR_FINIT);
 8000fa6:	f8d2 3200 	ldr.w	r3, [r2, #512]	; 0x200
 8000faa:	f043 0301 	orr.w	r3, r3, #1
 8000fae:	f8c2 3200 	str.w	r3, [r2, #512]	; 0x200
    filternbrbitpos = (uint32_t)1 << (sFilterConfig->FilterBank & 0x1FU);
 8000fb2:	694b      	ldr	r3, [r1, #20]
 8000fb4:	f003 031f 	and.w	r3, r3, #31
 8000fb8:	2001      	movs	r0, #1
 8000fba:	fa00 f303 	lsl.w	r3, r0, r3
    CLEAR_BIT(can_ip->FA1R, filternbrbitpos);
 8000fbe:	f8d2 021c 	ldr.w	r0, [r2, #540]	; 0x21c
 8000fc2:	ea6f 0c03 	mvn.w	ip, r3
 8000fc6:	ea20 0003 	bic.w	r0, r0, r3
 8000fca:	f8c2 021c 	str.w	r0, [r2, #540]	; 0x21c
    if (sFilterConfig->FilterScale == CAN_FILTERSCALE_16BIT)
 8000fce:	69c8      	ldr	r0, [r1, #28]
 8000fd0:	b9b0      	cbnz	r0, 8001000 <HAL_CAN_ConfigFilter+0x76>
      CLEAR_BIT(can_ip->FS1R, filternbrbitpos);
 8000fd2:	f8d2 020c 	ldr.w	r0, [r2, #524]	; 0x20c
 8000fd6:	ea0c 0000 	and.w	r0, ip, r0
 8000fda:	f8c2 020c 	str.w	r0, [r2, #524]	; 0x20c
      can_ip->sFilterRegister[sFilterConfig->FilterBank].FR1 =
 8000fde:	6948      	ldr	r0, [r1, #20]
        (0x0000FFFFU & (uint32_t)sFilterConfig->FilterIdLow);
 8000fe0:	888c      	ldrh	r4, [r1, #4]
        ((0x0000FFFFU & (uint32_t)sFilterConfig->FilterMaskIdLow) << 16U) |
 8000fe2:	68cd      	ldr	r5, [r1, #12]
 8000fe4:	ea44 4405 	orr.w	r4, r4, r5, lsl #16
      can_ip->sFilterRegister[sFilterConfig->FilterBank].FR1 =
 8000fe8:	3048      	adds	r0, #72	; 0x48
 8000fea:	f842 4030 	str.w	r4, [r2, r0, lsl #3]
      can_ip->sFilterRegister[sFilterConfig->FilterBank].FR2 =
 8000fee:	6948      	ldr	r0, [r1, #20]
        (0x0000FFFFU & (uint32_t)sFilterConfig->FilterIdHigh);
 8000ff0:	880c      	ldrh	r4, [r1, #0]
        ((0x0000FFFFU & (uint32_t)sFilterConfig->FilterMaskIdHigh) << 16U) |
 8000ff2:	688d      	ldr	r5, [r1, #8]
 8000ff4:	ea44 4405 	orr.w	r4, r4, r5, lsl #16
      can_ip->sFilterRegister[sFilterConfig->FilterBank].FR2 =
 8000ff8:	3048      	adds	r0, #72	; 0x48
 8000ffa:	eb02 00c0 	add.w	r0, r2, r0, lsl #3
 8000ffe:	6044      	str	r4, [r0, #4]
    if (sFilterConfig->FilterScale == CAN_FILTERSCALE_32BIT)
 8001000:	69c8      	ldr	r0, [r1, #28]
 8001002:	2801      	cmp	r0, #1
 8001004:	d01b      	beq.n	800103e <HAL_CAN_ConfigFilter+0xb4>
    if (sFilterConfig->FilterMode == CAN_FILTERMODE_IDMASK)
 8001006:	6988      	ldr	r0, [r1, #24]
 8001008:	bb80      	cbnz	r0, 800106c <HAL_CAN_ConfigFilter+0xe2>
      CLEAR_BIT(can_ip->FM1R, filternbrbitpos);
 800100a:	f8d2 0204 	ldr.w	r0, [r2, #516]	; 0x204
 800100e:	ea0c 0000 	and.w	r0, ip, r0
 8001012:	f8c2 0204 	str.w	r0, [r2, #516]	; 0x204
    if (sFilterConfig->FilterFIFOAssignment == CAN_FILTER_FIFO0)
 8001016:	6908      	ldr	r0, [r1, #16]
 8001018:	bb70      	cbnz	r0, 8001078 <HAL_CAN_ConfigFilter+0xee>
      CLEAR_BIT(can_ip->FFA1R, filternbrbitpos);
 800101a:	f8d2 0214 	ldr.w	r0, [r2, #532]	; 0x214
 800101e:	ea0c 0000 	and.w	r0, ip, r0
 8001022:	f8c2 0214 	str.w	r0, [r2, #532]	; 0x214
    if (sFilterConfig->FilterActivation == CAN_FILTER_ENABLE)
 8001026:	6a09      	ldr	r1, [r1, #32]
 8001028:	2901      	cmp	r1, #1
 800102a:	d02b      	beq.n	8001084 <HAL_CAN_ConfigFilter+0xfa>
    CLEAR_BIT(can_ip->FMR, CAN_FMR_FINIT);
 800102c:	f8d2 3200 	ldr.w	r3, [r2, #512]	; 0x200
 8001030:	f023 0301 	bic.w	r3, r3, #1
 8001034:	f8c2 3200 	str.w	r3, [r2, #512]	; 0x200
    return HAL_OK;
 8001038:	2000      	movs	r0, #0
}
 800103a:	bc30      	pop	{r4, r5}
 800103c:	4770      	bx	lr
      SET_BIT(can_ip->FS1R, filternbrbitpos);
 800103e:	f8d2 020c 	ldr.w	r0, [r2, #524]	; 0x20c
 8001042:	4318      	orrs	r0, r3
 8001044:	f8c2 020c 	str.w	r0, [r2, #524]	; 0x20c
      can_ip->sFilterRegister[sFilterConfig->FilterBank].FR1 =
 8001048:	6948      	ldr	r0, [r1, #20]
        (0x0000FFFFU & (uint32_t)sFilterConfig->FilterIdLow);
 800104a:	888c      	ldrh	r4, [r1, #4]
        ((0x0000FFFFU & (uint32_t)sFilterConfig->FilterIdHigh) << 16U) |
 800104c:	680d      	ldr	r5, [r1, #0]
 800104e:	ea44 4405 	orr.w	r4, r4, r5, lsl #16
      can_ip->sFilterRegister[sFilterConfig->FilterBank].FR1 =
 8001052:	3048      	adds	r0, #72	; 0x48
 8001054:	f842 4030 	str.w	r4, [r2, r0, lsl #3]
      can_ip->sFilterRegister[sFilterConfig->FilterBank].FR2 =
 8001058:	6948      	ldr	r0, [r1, #20]
        (0x0000FFFFU & (uint32_t)sFilterConfig->FilterMaskIdLow);
 800105a:	898c      	ldrh	r4, [r1, #12]
        ((0x0000FFFFU & (uint32_t)sFilterConfig->FilterMaskIdHigh) << 16U) |
 800105c:	688d      	ldr	r5, [r1, #8]
 800105e:	ea44 4405 	orr.w	r4, r4, r5, lsl #16
      can_ip->sFilterRegister[sFilterConfig->FilterBank].FR2 =
 8001062:	3048      	adds	r0, #72	; 0x48
 8001064:	eb02 00c0 	add.w	r0, r2, r0, lsl #3
 8001068:	6044      	str	r4, [r0, #4]
 800106a:	e7cc      	b.n	8001006 <HAL_CAN_ConfigFilter+0x7c>
      SET_BIT(can_ip->FM1R, filternbrbitpos);
 800106c:	f8d2 0204 	ldr.w	r0, [r2, #516]	; 0x204
 8001070:	4318      	orrs	r0, r3
 8001072:	f8c2 0204 	str.w	r0, [r2, #516]	; 0x204
 8001076:	e7ce      	b.n	8001016 <HAL_CAN_ConfigFilter+0x8c>
      SET_BIT(can_ip->FFA1R, filternbrbitpos);
 8001078:	f8d2 0214 	ldr.w	r0, [r2, #532]	; 0x214
 800107c:	4318      	orrs	r0, r3
 800107e:	f8c2 0214 	str.w	r0, [r2, #532]	; 0x214
 8001082:	e7d0      	b.n	8001026 <HAL_CAN_ConfigFilter+0x9c>
      SET_BIT(can_ip->FA1R, filternbrbitpos);
 8001084:	f8d2 121c 	ldr.w	r1, [r2, #540]	; 0x21c
 8001088:	430b      	orrs	r3, r1
 800108a:	f8c2 321c 	str.w	r3, [r2, #540]	; 0x21c
 800108e:	e7cd      	b.n	800102c <HAL_CAN_ConfigFilter+0xa2>

08001090 <HAL_CAN_Start>:
  * @param  hcan pointer to an CAN_HandleTypeDef structure that contains
  *         the configuration information for the specified CAN.
  * @retval HAL status
  */
HAL_StatusTypeDef HAL_CAN_Start(CAN_HandleTypeDef *hcan)
{
 8001090:	b570      	push	{r4, r5, r6, lr}
 8001092:	4604      	mov	r4, r0
  uint32_t tickstart;

  if (hcan->State == HAL_CAN_STATE_READY)
 8001094:	f890 5020 	ldrb.w	r5, [r0, #32]
 8001098:	b2ed      	uxtb	r5, r5
 800109a:	2d01      	cmp	r5, #1
 800109c:	d006      	beq.n	80010ac <HAL_CAN_Start+0x1c>
    return HAL_OK;
  }
  else
  {
    /* Update error code */
    hcan->ErrorCode |= HAL_CAN_ERROR_NOT_READY;
 800109e:	6a43      	ldr	r3, [r0, #36]	; 0x24
 80010a0:	f443 2300 	orr.w	r3, r3, #524288	; 0x80000
 80010a4:	6243      	str	r3, [r0, #36]	; 0x24

    return HAL_ERROR;
 80010a6:	2501      	movs	r5, #1
  }
}
 80010a8:	4628      	mov	r0, r5
 80010aa:	bd70      	pop	{r4, r5, r6, pc}
    hcan->State = HAL_CAN_STATE_LISTENING;
 80010ac:	2302      	movs	r3, #2
 80010ae:	f880 3020 	strb.w	r3, [r0, #32]
    CLEAR_BIT(hcan->Instance->MCR, CAN_MCR_INRQ);
 80010b2:	6802      	ldr	r2, [r0, #0]
 80010b4:	6813      	ldr	r3, [r2, #0]
 80010b6:	f023 0301 	bic.w	r3, r3, #1
 80010ba:	6013      	str	r3, [r2, #0]
    tickstart = HAL_GetTick();
 80010bc:	f7ff fed0 	bl	8000e60 <HAL_GetTick>
 80010c0:	4606      	mov	r6, r0
    while ((hcan->Instance->MSR & CAN_MSR_INAK) != 0U)
 80010c2:	6823      	ldr	r3, [r4, #0]
 80010c4:	685b      	ldr	r3, [r3, #4]
 80010c6:	f013 0f01 	tst.w	r3, #1
 80010ca:	d00c      	beq.n	80010e6 <HAL_CAN_Start+0x56>
      if ((HAL_GetTick() - tickstart) > CAN_TIMEOUT_VALUE)
 80010cc:	f7ff fec8 	bl	8000e60 <HAL_GetTick>
 80010d0:	1b83      	subs	r3, r0, r6
 80010d2:	2b0a      	cmp	r3, #10
 80010d4:	d9f5      	bls.n	80010c2 <HAL_CAN_Start+0x32>
        hcan->ErrorCode |= HAL_CAN_ERROR_TIMEOUT;
 80010d6:	6a63      	ldr	r3, [r4, #36]	; 0x24
 80010d8:	f443 3300 	orr.w	r3, r3, #131072	; 0x20000
 80010dc:	6263      	str	r3, [r4, #36]	; 0x24
        hcan->State = HAL_CAN_STATE_ERROR;
 80010de:	2305      	movs	r3, #5
 80010e0:	f884 3020 	strb.w	r3, [r4, #32]
        return HAL_ERROR;
 80010e4:	e7e0      	b.n	80010a8 <HAL_CAN_Start+0x18>
    hcan->ErrorCode = HAL_CAN_ERROR_NONE;
 80010e6:	2500      	movs	r5, #0
 80010e8:	6265      	str	r5, [r4, #36]	; 0x24
    return HAL_OK;
 80010ea:	e7dd      	b.n	80010a8 <HAL_CAN_Start+0x18>

080010ec <HAL_CAN_AddTxMessage>:
  *         This parameter can be a value of @arg CAN_Tx_Mailboxes.
  * @retval HAL status
  */
HAL_StatusTypeDef HAL_CAN_AddTxMessage(CAN_HandleTypeDef *hcan, const CAN_TxHeaderTypeDef *pHeader,
                                       const uint8_t aData[], uint32_t *pTxMailbox)
{
 80010ec:	b570      	push	{r4, r5, r6, lr}
  uint32_t transmitmailbox;
  HAL_CAN_StateTypeDef state = hcan->State;
 80010ee:	f890 c020 	ldrb.w	ip, [r0, #32]
  uint32_t tsr = READ_REG(hcan->Instance->TSR);
 80010f2:	6804      	ldr	r4, [r0, #0]
 80010f4:	68a4      	ldr	r4, [r4, #8]
  {
    assert_param(IS_CAN_EXTID(pHeader->ExtId));
  }
  assert_param(IS_FUNCTIONAL_STATE(pHeader->TransmitGlobalTime));

  if ((state == HAL_CAN_STATE_READY) ||
 80010f6:	f10c 3cff 	add.w	ip, ip, #4294967295
 80010fa:	fa5f fc8c 	uxtb.w	ip, ip
 80010fe:	f1bc 0f01 	cmp.w	ip, #1
 8001102:	d864      	bhi.n	80011ce <HAL_CAN_AddTxMessage+0xe2>
      (state == HAL_CAN_STATE_LISTENING))
  {
    /* Check that all the Tx mailboxes are not full */
    if (((tsr & CAN_TSR_TME0) != 0U) ||
 8001104:	f014 5fe0 	tst.w	r4, #469762048	; 0x1c000000
 8001108:	d05b      	beq.n	80011c2 <HAL_CAN_AddTxMessage+0xd6>
        ((tsr & CAN_TSR_TME1) != 0U) ||
        ((tsr & CAN_TSR_TME2) != 0U))
    {
      /* Select an empty transmit mailbox */
      transmitmailbox = (tsr & CAN_TSR_CODE) >> CAN_TSR_CODE_Pos;
 800110a:	f3c4 6c01 	ubfx	ip, r4, #24, #2

      /* Store the Tx mailbox */
      *pTxMailbox = (uint32_t)1 << transmitmailbox;
 800110e:	2401      	movs	r4, #1
 8001110:	fa04 f40c 	lsl.w	r4, r4, ip
 8001114:	601c      	str	r4, [r3, #0]

      /* Set up the Id */
      if (pHeader->IDE == CAN_ID_STD)
 8001116:	688b      	ldr	r3, [r1, #8]
 8001118:	2b00      	cmp	r3, #0
 800111a:	d13b      	bne.n	8001194 <HAL_CAN_AddTxMessage+0xa8>
      {
        hcan->Instance->sTxMailBox[transmitmailbox].TIR = ((pHeader->StdId << CAN_TI0R_STID_Pos) |
 800111c:	6804      	ldr	r4, [r0, #0]
 800111e:	680d      	ldr	r5, [r1, #0]
 8001120:	68cb      	ldr	r3, [r1, #12]
 8001122:	ea43 5545 	orr.w	r5, r3, r5, lsl #21
 8001126:	f10c 0318 	add.w	r3, ip, #24
 800112a:	011b      	lsls	r3, r3, #4
 800112c:	50e5      	str	r5, [r4, r3]
                                                           pHeader->IDE |
                                                           pHeader->RTR);
      }

      /* Set up the DLC */
      hcan->Instance->sTxMailBox[transmitmailbox].TDTR = (pHeader->DLC);
 800112e:	6803      	ldr	r3, [r0, #0]
 8001130:	690c      	ldr	r4, [r1, #16]
 8001132:	f10c 0e18 	add.w	lr, ip, #24
 8001136:	eb03 130e 	add.w	r3, r3, lr, lsl #4
 800113a:	605c      	str	r4, [r3, #4]

      /* Set up the Transmit Global Time mode */
      if (pHeader->TransmitGlobalTime == ENABLE)
 800113c:	7d0b      	ldrb	r3, [r1, #20]
 800113e:	2b01      	cmp	r3, #1
 8001140:	d035      	beq.n	80011ae <HAL_CAN_AddTxMessage+0xc2>
      {
        SET_BIT(hcan->Instance->sTxMailBox[transmitmailbox].TDTR, CAN_TDT0R_TGT);
      }

      /* Set up the data field */
      WRITE_REG(hcan->Instance->sTxMailBox[transmitmailbox].TDHR,
 8001142:	6801      	ldr	r1, [r0, #0]
 8001144:	79d4      	ldrb	r4, [r2, #7]
 8001146:	7993      	ldrb	r3, [r2, #6]
 8001148:	041b      	lsls	r3, r3, #16
 800114a:	ea43 6304 	orr.w	r3, r3, r4, lsl #24
 800114e:	7914      	ldrb	r4, [r2, #4]
 8001150:	4323      	orrs	r3, r4
 8001152:	7954      	ldrb	r4, [r2, #5]
 8001154:	ea43 2304 	orr.w	r3, r3, r4, lsl #8
 8001158:	eb01 110c 	add.w	r1, r1, ip, lsl #4
 800115c:	f8c1 318c 	str.w	r3, [r1, #396]	; 0x18c
                ((uint32_t)aData[7] << CAN_TDH0R_DATA7_Pos) |
                ((uint32_t)aData[6] << CAN_TDH0R_DATA6_Pos) |
                ((uint32_t)aData[5] << CAN_TDH0R_DATA5_Pos) |
                ((uint32_t)aData[4] << CAN_TDH0R_DATA4_Pos));
      WRITE_REG(hcan->Instance->sTxMailBox[transmitmailbox].TDLR,
 8001160:	6801      	ldr	r1, [r0, #0]
 8001162:	78d4      	ldrb	r4, [r2, #3]
 8001164:	7893      	ldrb	r3, [r2, #2]
 8001166:	041b      	lsls	r3, r3, #16
 8001168:	ea43 6304 	orr.w	r3, r3, r4, lsl #24
 800116c:	7814      	ldrb	r4, [r2, #0]
 800116e:	4323      	orrs	r3, r4
 8001170:	7852      	ldrb	r2, [r2, #1]
 8001172:	ea43 2302 	orr.w	r3, r3, r2, lsl #8
 8001176:	eb01 110c 	add.w	r1, r1, ip, lsl #4
 800117a:	f8c1 3188 	str.w	r3, [r1, #392]	; 0x188
                ((uint32_t)aData[2] << CAN_TDL0R_DATA2_Pos) |
                ((uint32_t)aData[1] << CAN_TDL0R_DATA1_Pos) |
                ((uint32_t)aData[0] << CAN_TDL0R_DATA0_Pos));

      /* Request transmission */
      SET_BIT(hcan->Instance->sTxMailBox[transmitmailbox].TIR, CAN_TI0R_TXRQ);
 800117e:	6803      	ldr	r3, [r0, #0]
 8001180:	eb03 130c 	add.w	r3, r3, ip, lsl #4
 8001184:	f8d3 2180 	ldr.w	r2, [r3, #384]	; 0x180
 8001188:	f042 0201 	orr.w	r2, r2, #1
 800118c:	f8c3 2180 	str.w	r2, [r3, #384]	; 0x180

      /* Return function status */
      return HAL_OK;
 8001190:	2000      	movs	r0, #0
 8001192:	e021      	b.n	80011d8 <HAL_CAN_AddTxMessage+0xec>
        hcan->Instance->sTxMailBox[transmitmailbox].TIR = ((pHeader->ExtId << CAN_TI0R_EXID_Pos) |
 8001194:	6804      	ldr	r4, [r0, #0]
 8001196:	684d      	ldr	r5, [r1, #4]
                                                           pHeader->IDE |
 8001198:	68ce      	ldr	r6, [r1, #12]
 800119a:	4333      	orrs	r3, r6
 800119c:	ea43 03c5 	orr.w	r3, r3, r5, lsl #3
        hcan->Instance->sTxMailBox[transmitmailbox].TIR = ((pHeader->ExtId << CAN_TI0R_EXID_Pos) |
 80011a0:	f10c 0e18 	add.w	lr, ip, #24
 80011a4:	ea4f 1e0e 	mov.w	lr, lr, lsl #4
 80011a8:	f844 300e 	str.w	r3, [r4, lr]
 80011ac:	e7bf      	b.n	800112e <HAL_CAN_AddTxMessage+0x42>
        SET_BIT(hcan->Instance->sTxMailBox[transmitmailbox].TDTR, CAN_TDT0R_TGT);
 80011ae:	6803      	ldr	r3, [r0, #0]
 80011b0:	eb03 130c 	add.w	r3, r3, ip, lsl #4
 80011b4:	f8d3 1184 	ldr.w	r1, [r3, #388]	; 0x184
 80011b8:	f441 7180 	orr.w	r1, r1, #256	; 0x100
 80011bc:	f8c3 1184 	str.w	r1, [r3, #388]	; 0x184
 80011c0:	e7bf      	b.n	8001142 <HAL_CAN_AddTxMessage+0x56>
    }
    else
    {
      /* Update error code */
      hcan->ErrorCode |= HAL_CAN_ERROR_PARAM;
 80011c2:	6a43      	ldr	r3, [r0, #36]	; 0x24
 80011c4:	f443 1300 	orr.w	r3, r3, #2097152	; 0x200000
 80011c8:	6243      	str	r3, [r0, #36]	; 0x24

      return HAL_ERROR;
 80011ca:	2001      	movs	r0, #1
 80011cc:	e004      	b.n	80011d8 <HAL_CAN_AddTxMessage+0xec>
    }
  }
  else
  {
    /* Update error code */
    hcan->ErrorCode |= HAL_CAN_ERROR_NOT_INITIALIZED;
 80011ce:	6a43      	ldr	r3, [r0, #36]	; 0x24
 80011d0:	f443 2380 	orr.w	r3, r3, #262144	; 0x40000
 80011d4:	6243      	str	r3, [r0, #36]	; 0x24

    return HAL_ERROR;
 80011d6:	2001      	movs	r0, #1
  }
}
 80011d8:	bd70      	pop	{r4, r5, r6, pc}

080011da <HAL_CAN_GetTxMailboxesFreeLevel>:
  * @retval Number of free Tx Mailboxes.
  */
uint32_t HAL_CAN_GetTxMailboxesFreeLevel(const CAN_HandleTypeDef *hcan)
{
  uint32_t freelevel = 0U;
  HAL_CAN_StateTypeDef state = hcan->State;
 80011da:	f890 3020 	ldrb.w	r3, [r0, #32]

  if ((state == HAL_CAN_STATE_READY) ||
 80011de:	3b01      	subs	r3, #1
 80011e0:	b2db      	uxtb	r3, r3
 80011e2:	2b01      	cmp	r3, #1
 80011e4:	d901      	bls.n	80011ea <HAL_CAN_GetTxMailboxesFreeLevel+0x10>
  uint32_t freelevel = 0U;
 80011e6:	2000      	movs	r0, #0
    }
  }

  /* Return Tx Mailboxes free level */
  return freelevel;
}
 80011e8:	4770      	bx	lr
    if ((hcan->Instance->TSR & CAN_TSR_TME0) != 0U)
 80011ea:	6803      	ldr	r3, [r0, #0]
 80011ec:	6898      	ldr	r0, [r3, #8]
 80011ee:	f3c0 6080 	ubfx	r0, r0, #26, #1
    if ((hcan->Instance->TSR & CAN_TSR_TME1) != 0U)
 80011f2:	689a      	ldr	r2, [r3, #8]
 80011f4:	f012 6f00 	tst.w	r2, #134217728	; 0x8000000
      freelevel++;
 80011f8:	bf18      	it	ne
 80011fa:	3001      	addne	r0, #1
    if ((hcan->Instance->TSR & CAN_TSR_TME2) != 0U)
 80011fc:	689b      	ldr	r3, [r3, #8]
 80011fe:	f013 5f80 	tst.w	r3, #268435456	; 0x10000000
 8001202:	d0f1      	beq.n	80011e8 <HAL_CAN_GetTxMailboxesFreeLevel+0xe>
      freelevel++;
 8001204:	3001      	adds	r0, #1
 8001206:	4770      	bx	lr

08001208 <HAL_CAN_ActivateNotification>:
  *         This parameter can be any combination of @arg CAN_Interrupts.
  * @retval HAL status
  */
HAL_StatusTypeDef HAL_CAN_ActivateNotification(CAN_HandleTypeDef *hcan, uint32_t ActiveITs)
{
  HAL_CAN_StateTypeDef state = hcan->State;
 8001208:	f890 3020 	ldrb.w	r3, [r0, #32]

  /* Check function parameters */
  assert_param(IS_CAN_IT(ActiveITs));

  if ((state == HAL_CAN_STATE_READY) ||
 800120c:	3b01      	subs	r3, #1
 800120e:	b2db      	uxtb	r3, r3
 8001210:	2b01      	cmp	r3, #1
 8001212:	d905      	bls.n	8001220 <HAL_CAN_ActivateNotification+0x18>
    return HAL_OK;
  }
  else
  {
    /* Update error code */
    hcan->ErrorCode |= HAL_CAN_ERROR_NOT_INITIALIZED;
 8001214:	6a43      	ldr	r3, [r0, #36]	; 0x24
 8001216:	f443 2380 	orr.w	r3, r3, #262144	; 0x40000
 800121a:	6243      	str	r3, [r0, #36]	; 0x24

    return HAL_ERROR;
 800121c:	2001      	movs	r0, #1
  }
}
 800121e:	4770      	bx	lr
    __HAL_CAN_ENABLE_IT(hcan, ActiveITs);
 8001220:	6802      	ldr	r2, [r0, #0]
 8001222:	6953      	ldr	r3, [r2, #20]
 8001224:	430b      	orrs	r3, r1
 8001226:	6153      	str	r3, [r2, #20]
    return HAL_OK;
 8001228:	2000      	movs	r0, #0
 800122a:	4770      	bx	lr

0800122c <HAL_CAN_TxMailbox0CompleteCallback>:

  /* NOTE : This function Should not be modified, when the callback is needed,
            the HAL_CAN_TxMailbox0CompleteCallback could be implemented in the
            user file
   */
}
 800122c:	4770      	bx	lr

0800122e <HAL_CAN_TxMailbox1CompleteCallback>:

  /* NOTE : This function Should not be modified, when the callback is needed,
            the HAL_CAN_TxMailbox1CompleteCallback could be implemented in the
            user file
   */
}
 800122e:	4770      	bx	lr

08001230 <HAL_CAN_TxMailbox2CompleteCallback>:

  /* NOTE : This function Should not be modified, when the callback is needed,
            the HAL_CAN_TxMailbox2CompleteCallback could be implemented in the
            user file
   */
}
 8001230:	4770      	bx	lr

08001232 <HAL_CAN_TxMailbox0AbortCallback>:

  /* NOTE : This function Should not be modified, when the callback is needed,
            the HAL_CAN_TxMailbox0AbortCallback could be implemented in the
            user file
   */
}
 8001232:	4770      	bx	lr

08001234 <HAL_CAN_TxMailbox1AbortCallback>:

  /* NOTE : This function Should not be modified, when the callback is needed,
            the HAL_CAN_TxMailbox1AbortCallback could be implemented in the
            user file
   */
}
 8001234:	4770      	bx	lr

08001236 <HAL_CAN_TxMailbox2AbortCallback>:

  /* NOTE : This function Should not be modified, when the callback is needed,
            the HAL_CAN_TxMailbox2AbortCallback could be implemented in the
            user file
   */
}
 8001236:	4770      	bx	lr

08001238 <HAL_CAN_RxFifo0MsgPendingCallback>:

  /* NOTE : This function Should not be modified, when the callback is needed,
            the HAL_CAN_RxFifo0MsgPendingCallback could be implemented in the
            user file
   */
}
 8001238:	4770      	bx	lr

0800123a <HAL_CAN_RxFifo0FullCallback>:

  /* NOTE : This function Should not be modified, when the callback is needed,
            the HAL_CAN_RxFifo0FullCallback could be implemented in the user
            file
   */
}
 800123a:	4770      	bx	lr

0800123c <HAL_CAN_RxFifo1MsgPendingCallback>:

  /* NOTE : This function Should not be modified, when the callback is needed,
            the HAL_CAN_RxFifo1MsgPendingCallback could be implemented in the
            user file
   */
}
 800123c:	4770      	bx	lr

0800123e <HAL_CAN_RxFifo1FullCallback>:

  /* NOTE : This function Should not be modified, when the callback is needed,
            the HAL_CAN_RxFifo1FullCallback could be implemented in the user
            file
   */
}
 800123e:	4770      	bx	lr

08001240 <HAL_CAN_SleepCallback>:
  UNUSED(hcan);

  /* NOTE : This function Should not be modified, when the callback is needed,
            the HAL_CAN_SleepCallback could be implemented in the user file
   */
}
 8001240:	4770      	bx	lr

08001242 <HAL_CAN_WakeUpFromRxMsgCallback>:

  /* NOTE : This function Should not be modified, when the callback is needed,
            the HAL_CAN_WakeUpFromRxMsgCallback could be implemented in the
            user file
   */
}
 8001242:	4770      	bx	lr

08001244 <HAL_CAN_ErrorCallback>:
  UNUSED(hcan);

  /* NOTE : This function Should not be modified, when the callback is needed,
            the HAL_CAN_ErrorCallback could be implemented in the user file
   */
}
 8001244:	4770      	bx	lr

08001246 <HAL_CAN_IRQHandler>:
{
 8001246:	e92d 4ff8 	stmdb	sp!, {r3, r4, r5, r6, r7, r8, r9, sl, fp, lr}
 800124a:	4605      	mov	r5, r0
  uint32_t interrupts = READ_REG(hcan->Instance->IER);
 800124c:	6803      	ldr	r3, [r0, #0]
 800124e:	695c      	ldr	r4, [r3, #20]
  uint32_t msrflags = READ_REG(hcan->Instance->MSR);
 8001250:	f8d3 8004 	ldr.w	r8, [r3, #4]
  uint32_t tsrflags = READ_REG(hcan->Instance->TSR);
 8001254:	689f      	ldr	r7, [r3, #8]
  uint32_t rf0rflags = READ_REG(hcan->Instance->RF0R);
 8001256:	f8d3 b00c 	ldr.w	fp, [r3, #12]
  uint32_t rf1rflags = READ_REG(hcan->Instance->RF1R);
 800125a:	f8d3 a010 	ldr.w	sl, [r3, #16]
  uint32_t esrflags = READ_REG(hcan->Instance->ESR);
 800125e:	f8d3 9018 	ldr.w	r9, [r3, #24]
  if ((interrupts & CAN_IT_TX_MAILBOX_EMPTY) != 0U)
 8001262:	f014 0601 	ands.w	r6, r4, #1
 8001266:	d03b      	beq.n	80012e0 <HAL_CAN_IRQHandler+0x9a>
    if ((tsrflags & CAN_TSR_RQCP0) != 0U)
 8001268:	f017 0601 	ands.w	r6, r7, #1
 800126c:	d016      	beq.n	800129c <HAL_CAN_IRQHandler+0x56>
      __HAL_CAN_CLEAR_FLAG(hcan, CAN_FLAG_RQCP0);
 800126e:	2201      	movs	r2, #1
 8001270:	609a      	str	r2, [r3, #8]
      if ((tsrflags & CAN_TSR_TXOK0) != 0U)
 8001272:	f017 0f02 	tst.w	r7, #2
 8001276:	d108      	bne.n	800128a <HAL_CAN_IRQHandler+0x44>
        if ((tsrflags & CAN_TSR_ALST0) != 0U)
 8001278:	f017 0f04 	tst.w	r7, #4
 800127c:	d10c      	bne.n	8001298 <HAL_CAN_IRQHandler+0x52>
        else if ((tsrflags & CAN_TSR_TERR0) != 0U)
 800127e:	f017 0608 	ands.w	r6, r7, #8
 8001282:	d006      	beq.n	8001292 <HAL_CAN_IRQHandler+0x4c>
          errorcode |= HAL_CAN_ERROR_TX_TERR0;
 8001284:	f44f 5680 	mov.w	r6, #4096	; 0x1000
 8001288:	e008      	b.n	800129c <HAL_CAN_IRQHandler+0x56>
        HAL_CAN_TxMailbox0CompleteCallback(hcan);
 800128a:	f7ff ffcf 	bl	800122c <HAL_CAN_TxMailbox0CompleteCallback>
  uint32_t errorcode = HAL_CAN_ERROR_NONE;
 800128e:	2600      	movs	r6, #0
 8001290:	e004      	b.n	800129c <HAL_CAN_IRQHandler+0x56>
          HAL_CAN_TxMailbox0AbortCallback(hcan);
 8001292:	f7ff ffce 	bl	8001232 <HAL_CAN_TxMailbox0AbortCallback>
 8001296:	e001      	b.n	800129c <HAL_CAN_IRQHandler+0x56>
          errorcode |= HAL_CAN_ERROR_TX_ALST0;
 8001298:	f44f 6600 	mov.w	r6, #2048	; 0x800
    if ((tsrflags & CAN_TSR_RQCP1) != 0U)
 800129c:	f417 7f80 	tst.w	r7, #256	; 0x100
 80012a0:	d00d      	beq.n	80012be <HAL_CAN_IRQHandler+0x78>
      __HAL_CAN_CLEAR_FLAG(hcan, CAN_FLAG_RQCP1);
 80012a2:	682b      	ldr	r3, [r5, #0]
 80012a4:	f44f 7280 	mov.w	r2, #256	; 0x100
 80012a8:	609a      	str	r2, [r3, #8]
      if ((tsrflags & CAN_TSR_TXOK1) != 0U)
 80012aa:	f417 7f00 	tst.w	r7, #512	; 0x200
 80012ae:	f040 8087 	bne.w	80013c0 <HAL_CAN_IRQHandler+0x17a>
        if ((tsrflags & CAN_TSR_ALST1) != 0U)
 80012b2:	f417 6f80 	tst.w	r7, #1024	; 0x400
 80012b6:	f000 8087 	beq.w	80013c8 <HAL_CAN_IRQHandler+0x182>
          errorcode |= HAL_CAN_ERROR_TX_ALST1;
 80012ba:	f446 5600 	orr.w	r6, r6, #8192	; 0x2000
    if ((tsrflags & CAN_TSR_RQCP2) != 0U)
 80012be:	f417 3f80 	tst.w	r7, #65536	; 0x10000
 80012c2:	d00d      	beq.n	80012e0 <HAL_CAN_IRQHandler+0x9a>
      __HAL_CAN_CLEAR_FLAG(hcan, CAN_FLAG_RQCP2);
 80012c4:	682b      	ldr	r3, [r5, #0]
 80012c6:	f44f 3280 	mov.w	r2, #65536	; 0x10000
 80012ca:	609a      	str	r2, [r3, #8]
      if ((tsrflags & CAN_TSR_TXOK2) != 0U)
 80012cc:	f417 3f00 	tst.w	r7, #131072	; 0x20000
 80012d0:	f040 8084 	bne.w	80013dc <HAL_CAN_IRQHandler+0x196>
        if ((tsrflags & CAN_TSR_ALST2) != 0U)
 80012d4:	f417 2f80 	tst.w	r7, #262144	; 0x40000
 80012d8:	f000 8084 	beq.w	80013e4 <HAL_CAN_IRQHandler+0x19e>
          errorcode |= HAL_CAN_ERROR_TX_ALST2;
 80012dc:	f446 4600 	orr.w	r6, r6, #32768	; 0x8000
  if ((interrupts & CAN_IT_RX_FIFO0_OVERRUN) != 0U)
 80012e0:	f014 0f08 	tst.w	r4, #8
 80012e4:	d007      	beq.n	80012f6 <HAL_CAN_IRQHandler+0xb0>
    if ((rf0rflags & CAN_RF0R_FOVR0) != 0U)
 80012e6:	f01b 0f10 	tst.w	fp, #16
 80012ea:	d004      	beq.n	80012f6 <HAL_CAN_IRQHandler+0xb0>
      errorcode |= HAL_CAN_ERROR_RX_FOV0;
 80012ec:	f446 7600 	orr.w	r6, r6, #512	; 0x200
      __HAL_CAN_CLEAR_FLAG(hcan, CAN_FLAG_FOV0);
 80012f0:	682b      	ldr	r3, [r5, #0]
 80012f2:	2210      	movs	r2, #16
 80012f4:	60da      	str	r2, [r3, #12]
  if ((interrupts & CAN_IT_RX_FIFO0_FULL) != 0U)
 80012f6:	f014 0f04 	tst.w	r4, #4
 80012fa:	d002      	beq.n	8001302 <HAL_CAN_IRQHandler+0xbc>
    if ((rf0rflags & CAN_RF0R_FULL0) != 0U)
 80012fc:	f01b 0f08 	tst.w	fp, #8
 8001300:	d17a      	bne.n	80013f8 <HAL_CAN_IRQHandler+0x1b2>
  if ((interrupts & CAN_IT_RX_FIFO0_MSG_PENDING) != 0U)
 8001302:	f014 0f02 	tst.w	r4, #2
 8001306:	d004      	beq.n	8001312 <HAL_CAN_IRQHandler+0xcc>
    if ((hcan->Instance->RF0R & CAN_RF0R_FMP0) != 0U)
 8001308:	682b      	ldr	r3, [r5, #0]
 800130a:	68db      	ldr	r3, [r3, #12]
 800130c:	f013 0f03 	tst.w	r3, #3
 8001310:	d179      	bne.n	8001406 <HAL_CAN_IRQHandler+0x1c0>
  if ((interrupts & CAN_IT_RX_FIFO1_OVERRUN) != 0U)
 8001312:	f014 0f40 	tst.w	r4, #64	; 0x40
 8001316:	d007      	beq.n	8001328 <HAL_CAN_IRQHandler+0xe2>
    if ((rf1rflags & CAN_RF1R_FOVR1) != 0U)
 8001318:	f01a 0f10 	tst.w	sl, #16
 800131c:	d004      	beq.n	8001328 <HAL_CAN_IRQHandler+0xe2>
      errorcode |= HAL_CAN_ERROR_RX_FOV1;
 800131e:	f446 6680 	orr.w	r6, r6, #1024	; 0x400
      __HAL_CAN_CLEAR_FLAG(hcan, CAN_FLAG_FOV1);
 8001322:	682b      	ldr	r3, [r5, #0]
 8001324:	2210      	movs	r2, #16
 8001326:	611a      	str	r2, [r3, #16]
  if ((interrupts & CAN_IT_RX_FIFO1_FULL) != 0U)
 8001328:	f014 0f20 	tst.w	r4, #32
 800132c:	d002      	beq.n	8001334 <HAL_CAN_IRQHandler+0xee>
    if ((rf1rflags & CAN_RF1R_FULL1) != 0U)
 800132e:	f01a 0f08 	tst.w	sl, #8
 8001332:	d16c      	bne.n	800140e <HAL_CAN_IRQHandler+0x1c8>
  if ((interrupts & CAN_IT_RX_FIFO1_MSG_PENDING) != 0U)
 8001334:	f014 0f10 	tst.w	r4, #16
 8001338:	d004      	beq.n	8001344 <HAL_CAN_IRQHandler+0xfe>
    if ((hcan->Instance->RF1R & CAN_RF1R_FMP1) != 0U)
 800133a:	682b      	ldr	r3, [r5, #0]
 800133c:	691b      	ldr	r3, [r3, #16]
 800133e:	f013 0f03 	tst.w	r3, #3
 8001342:	d16b      	bne.n	800141c <HAL_CAN_IRQHandler+0x1d6>
  if ((interrupts & CAN_IT_SLEEP_ACK) != 0U)
 8001344:	f414 3f00 	tst.w	r4, #131072	; 0x20000
 8001348:	d002      	beq.n	8001350 <HAL_CAN_IRQHandler+0x10a>
    if ((msrflags & CAN_MSR_SLAKI) != 0U)
 800134a:	f018 0f10 	tst.w	r8, #16
 800134e:	d169      	bne.n	8001424 <HAL_CAN_IRQHandler+0x1de>
  if ((interrupts & CAN_IT_WAKEUP) != 0U)
 8001350:	f414 3f80 	tst.w	r4, #65536	; 0x10000
 8001354:	d002      	beq.n	800135c <HAL_CAN_IRQHandler+0x116>
    if ((msrflags & CAN_MSR_WKUI) != 0U)
 8001356:	f018 0f08 	tst.w	r8, #8
 800135a:	d16a      	bne.n	8001432 <HAL_CAN_IRQHandler+0x1ec>
  if ((interrupts & CAN_IT_ERROR) != 0U)
 800135c:	f414 4f00 	tst.w	r4, #32768	; 0x8000
 8001360:	f000 8084 	beq.w	800146c <HAL_CAN_IRQHandler+0x226>
    if ((msrflags & CAN_MSR_ERRI) != 0U)
 8001364:	f018 0f04 	tst.w	r8, #4
 8001368:	d07d      	beq.n	8001466 <HAL_CAN_IRQHandler+0x220>
      if (((interrupts & CAN_IT_ERROR_WARNING) != 0U) &&
 800136a:	f414 7f80 	tst.w	r4, #256	; 0x100
 800136e:	d004      	beq.n	800137a <HAL_CAN_IRQHandler+0x134>
 8001370:	f019 0f01 	tst.w	r9, #1
        errorcode |= HAL_CAN_ERROR_EWG;
 8001374:	bf18      	it	ne
 8001376:	f046 0601 	orrne.w	r6, r6, #1
      if (((interrupts & CAN_IT_ERROR_PASSIVE) != 0U) &&
 800137a:	f414 7f00 	tst.w	r4, #512	; 0x200
 800137e:	d004      	beq.n	800138a <HAL_CAN_IRQHandler+0x144>
 8001380:	f019 0f02 	tst.w	r9, #2
        errorcode |= HAL_CAN_ERROR_EPV;
 8001384:	bf18      	it	ne
 8001386:	f046 0602 	orrne.w	r6, r6, #2
      if (((interrupts & CAN_IT_BUSOFF) != 0U) &&
 800138a:	f414 6f80 	tst.w	r4, #1024	; 0x400
 800138e:	d004      	beq.n	800139a <HAL_CAN_IRQHandler+0x154>
 8001390:	f019 0f04 	tst.w	r9, #4
        errorcode |= HAL_CAN_ERROR_BOF;
 8001394:	bf18      	it	ne
 8001396:	f046 0604 	orrne.w	r6, r6, #4
      if (((interrupts & CAN_IT_LAST_ERROR_CODE) != 0U) &&
 800139a:	f414 6f00 	tst.w	r4, #2048	; 0x800
 800139e:	d062      	beq.n	8001466 <HAL_CAN_IRQHandler+0x220>
 80013a0:	f019 0970 	ands.w	r9, r9, #112	; 0x70
 80013a4:	d05f      	beq.n	8001466 <HAL_CAN_IRQHandler+0x220>
        switch (esrflags & CAN_ESR_LEC)
 80013a6:	f1b9 0f40 	cmp.w	r9, #64	; 0x40
 80013aa:	d065      	beq.n	8001478 <HAL_CAN_IRQHandler+0x232>
 80013ac:	d84e      	bhi.n	800144c <HAL_CAN_IRQHandler+0x206>
 80013ae:	f1b9 0f20 	cmp.w	r9, #32
 80013b2:	d05e      	beq.n	8001472 <HAL_CAN_IRQHandler+0x22c>
 80013b4:	f1b9 0f30 	cmp.w	r9, #48	; 0x30
 80013b8:	d142      	bne.n	8001440 <HAL_CAN_IRQHandler+0x1fa>
            errorcode |= HAL_CAN_ERROR_ACK;
 80013ba:	f046 0620 	orr.w	r6, r6, #32
            break;
 80013be:	e04d      	b.n	800145c <HAL_CAN_IRQHandler+0x216>
        HAL_CAN_TxMailbox1CompleteCallback(hcan);
 80013c0:	4628      	mov	r0, r5
 80013c2:	f7ff ff34 	bl	800122e <HAL_CAN_TxMailbox1CompleteCallback>
 80013c6:	e77a      	b.n	80012be <HAL_CAN_IRQHandler+0x78>
        else if ((tsrflags & CAN_TSR_TERR1) != 0U)
 80013c8:	f417 6f00 	tst.w	r7, #2048	; 0x800
 80013cc:	d002      	beq.n	80013d4 <HAL_CAN_IRQHandler+0x18e>
          errorcode |= HAL_CAN_ERROR_TX_TERR1;
 80013ce:	f446 4680 	orr.w	r6, r6, #16384	; 0x4000
 80013d2:	e774      	b.n	80012be <HAL_CAN_IRQHandler+0x78>
          HAL_CAN_TxMailbox1AbortCallback(hcan);
 80013d4:	4628      	mov	r0, r5
 80013d6:	f7ff ff2d 	bl	8001234 <HAL_CAN_TxMailbox1AbortCallback>
 80013da:	e770      	b.n	80012be <HAL_CAN_IRQHandler+0x78>
        HAL_CAN_TxMailbox2CompleteCallback(hcan);
 80013dc:	4628      	mov	r0, r5
 80013de:	f7ff ff27 	bl	8001230 <HAL_CAN_TxMailbox2CompleteCallback>
 80013e2:	e77d      	b.n	80012e0 <HAL_CAN_IRQHandler+0x9a>
        else if ((tsrflags & CAN_TSR_TERR2) != 0U)
 80013e4:	f417 2f00 	tst.w	r7, #524288	; 0x80000
 80013e8:	d002      	beq.n	80013f0 <HAL_CAN_IRQHandler+0x1aa>
          errorcode |= HAL_CAN_ERROR_TX_TERR2;
 80013ea:	f446 3680 	orr.w	r6, r6, #65536	; 0x10000
 80013ee:	e777      	b.n	80012e0 <HAL_CAN_IRQHandler+0x9a>
          HAL_CAN_TxMailbox2AbortCallback(hcan);
 80013f0:	4628      	mov	r0, r5
 80013f2:	f7ff ff20 	bl	8001236 <HAL_CAN_TxMailbox2AbortCallback>
 80013f6:	e773      	b.n	80012e0 <HAL_CAN_IRQHandler+0x9a>
      __HAL_CAN_CLEAR_FLAG(hcan, CAN_FLAG_FF0);
 80013f8:	682b      	ldr	r3, [r5, #0]
 80013fa:	2208      	movs	r2, #8
 80013fc:	60da      	str	r2, [r3, #12]
      HAL_CAN_RxFifo0FullCallback(hcan);
 80013fe:	4628      	mov	r0, r5
 8001400:	f7ff ff1b 	bl	800123a <HAL_CAN_RxFifo0FullCallback>
 8001404:	e77d      	b.n	8001302 <HAL_CAN_IRQHandler+0xbc>
      HAL_CAN_RxFifo0MsgPendingCallback(hcan);
 8001406:	4628      	mov	r0, r5
 8001408:	f7ff ff16 	bl	8001238 <HAL_CAN_RxFifo0MsgPendingCallback>
 800140c:	e781      	b.n	8001312 <HAL_CAN_IRQHandler+0xcc>
      __HAL_CAN_CLEAR_FLAG(hcan, CAN_FLAG_FF1);
 800140e:	682b      	ldr	r3, [r5, #0]
 8001410:	2208      	movs	r2, #8
 8001412:	611a      	str	r2, [r3, #16]
      HAL_CAN_RxFifo1FullCallback(hcan);
 8001414:	4628      	mov	r0, r5
 8001416:	f7ff ff12 	bl	800123e <HAL_CAN_RxFifo1FullCallback>
 800141a:	e78b      	b.n	8001334 <HAL_CAN_IRQHandler+0xee>
      HAL_CAN_RxFifo1MsgPendingCallback(hcan);
 800141c:	4628      	mov	r0, r5
 800141e:	f7ff ff0d 	bl	800123c <HAL_CAN_RxFifo1MsgPendingCallback>
 8001422:	e78f      	b.n	8001344 <HAL_CAN_IRQHandler+0xfe>
      __HAL_CAN_CLEAR_FLAG(hcan, CAN_FLAG_SLAKI);
 8001424:	682b      	ldr	r3, [r5, #0]
 8001426:	2210      	movs	r2, #16
 8001428:	605a      	str	r2, [r3, #4]
      HAL_CAN_SleepCallback(hcan);
 800142a:	4628      	mov	r0, r5
 800142c:	f7ff ff08 	bl	8001240 <HAL_CAN_SleepCallback>
 8001430:	e78e      	b.n	8001350 <HAL_CAN_IRQHandler+0x10a>
      __HAL_CAN_CLEAR_FLAG(hcan, CAN_FLAG_WKU);
 8001432:	682b      	ldr	r3, [r5, #0]
 8001434:	2208      	movs	r2, #8
 8001436:	605a      	str	r2, [r3, #4]
      HAL_CAN_WakeUpFromRxMsgCallback(hcan);
 8001438:	4628      	mov	r0, r5
 800143a:	f7ff ff02 	bl	8001242 <HAL_CAN_WakeUpFromRxMsgCallback>
 800143e:	e78d      	b.n	800135c <HAL_CAN_IRQHandler+0x116>
        switch (esrflags & CAN_ESR_LEC)
 8001440:	f1b9 0f10 	cmp.w	r9, #16
 8001444:	d10a      	bne.n	800145c <HAL_CAN_IRQHandler+0x216>
            errorcode |= HAL_CAN_ERROR_STF;
 8001446:	f046 0608 	orr.w	r6, r6, #8
            break;
 800144a:	e007      	b.n	800145c <HAL_CAN_IRQHandler+0x216>
        switch (esrflags & CAN_ESR_LEC)
 800144c:	f1b9 0f50 	cmp.w	r9, #80	; 0x50
 8001450:	d015      	beq.n	800147e <HAL_CAN_IRQHandler+0x238>
 8001452:	f1b9 0f60 	cmp.w	r9, #96	; 0x60
            errorcode |= HAL_CAN_ERROR_CRC;
 8001456:	bf08      	it	eq
 8001458:	f446 7680 	orreq.w	r6, r6, #256	; 0x100
        CLEAR_BIT(hcan->Instance->ESR, CAN_ESR_LEC);
 800145c:	682a      	ldr	r2, [r5, #0]
 800145e:	6993      	ldr	r3, [r2, #24]
 8001460:	f023 0370 	bic.w	r3, r3, #112	; 0x70
 8001464:	6193      	str	r3, [r2, #24]
    __HAL_CAN_CLEAR_FLAG(hcan, CAN_FLAG_ERRI);
 8001466:	682b      	ldr	r3, [r5, #0]
 8001468:	2204      	movs	r2, #4
 800146a:	605a      	str	r2, [r3, #4]
  if (errorcode != HAL_CAN_ERROR_NONE)
 800146c:	b956      	cbnz	r6, 8001484 <HAL_CAN_IRQHandler+0x23e>
}
 800146e:	e8bd 8ff8 	ldmia.w	sp!, {r3, r4, r5, r6, r7, r8, r9, sl, fp, pc}
            errorcode |= HAL_CAN_ERROR_FOR;
 8001472:	f046 0610 	orr.w	r6, r6, #16
            break;
 8001476:	e7f1      	b.n	800145c <HAL_CAN_IRQHandler+0x216>
            errorcode |= HAL_CAN_ERROR_BR;
 8001478:	f046 0640 	orr.w	r6, r6, #64	; 0x40
            break;
 800147c:	e7ee      	b.n	800145c <HAL_CAN_IRQHandler+0x216>
            errorcode |= HAL_CAN_ERROR_BD;
 800147e:	f046 0680 	orr.w	r6, r6, #128	; 0x80
            break;
 8001482:	e7eb      	b.n	800145c <HAL_CAN_IRQHandler+0x216>
    hcan->ErrorCode |= errorcode;
 8001484:	6a6b      	ldr	r3, [r5, #36]	; 0x24
 8001486:	4333      	orrs	r3, r6
 8001488:	626b      	str	r3, [r5, #36]	; 0x24
    HAL_CAN_ErrorCallback(hcan);
 800148a:	4628      	mov	r0, r5
 800148c:	f7ff feda 	bl	8001244 <HAL_CAN_ErrorCallback>
}
 8001490:	e7ed      	b.n	800146e <HAL_CAN_IRQHandler+0x228>
	...

08001494 <HAL_NVIC_SetPriorityGrouping>:
__STATIC_INLINE void __NVIC_SetPriorityGrouping(uint32_t PriorityGroup)
{
  uint32_t reg_value;
  uint32_t PriorityGroupTmp = (PriorityGroup & (uint32_t)0x07UL);             /* only values 0..7 are used          */

  reg_value  =  SCB->AIRCR;                                                   /* read old register configuration    */
 8001494:	4907      	ldr	r1, [pc, #28]	; (80014b4 <HAL_NVIC_SetPriorityGrouping+0x20>)
 8001496:	68ca      	ldr	r2, [r1, #12]
  reg_value &= ~((uint32_t)(SCB_AIRCR_VECTKEY_Msk | SCB_AIRCR_PRIGROUP_Msk)); /* clear bits to change               */
  reg_value  =  (reg_value                                   |
                ((uint32_t)0x5FAUL << SCB_AIRCR_VECTKEY_Pos) |
                (PriorityGroupTmp << SCB_AIRCR_PRIGROUP_Pos)  );              /* Insert write key and priority group */
 8001498:	0203      	lsls	r3, r0, #8
 800149a:	f403 63e0 	and.w	r3, r3, #1792	; 0x700
  reg_value &= ~((uint32_t)(SCB_AIRCR_VECTKEY_Msk | SCB_AIRCR_PRIGROUP_Msk)); /* clear bits to change               */
 800149e:	f422 62e0 	bic.w	r2, r2, #1792	; 0x700
 80014a2:	0412      	lsls	r2, r2, #16
 80014a4:	0c12      	lsrs	r2, r2, #16
                ((uint32_t)0x5FAUL << SCB_AIRCR_VECTKEY_Pos) |
 80014a6:	4313      	orrs	r3, r2
  reg_value  =  (reg_value                                   |
 80014a8:	f043 63bf 	orr.w	r3, r3, #100139008	; 0x5f80000
 80014ac:	f443 3300 	orr.w	r3, r3, #131072	; 0x20000
  SCB->AIRCR =  reg_value;
 80014b0:	60cb      	str	r3, [r1, #12]
  /* Check the parameters */
  assert_param(IS_NVIC_PRIORITY_GROUP(PriorityGroup));

  /* Set the PRIGROUP[10:8] bits according to the PriorityGroup parameter value */
  NVIC_SetPriorityGrouping(PriorityGroup);
}
 80014b2:	4770      	bx	lr
 80014b4:	e000ed00 	.word	0xe000ed00

080014b8 <HAL_NVIC_SetPriority>:
  *         This parameter can be a value between 0 and 15 as described in the table CORTEX_NVIC_Priority_Table
  *         A lower priority value indicates a higher priority.
  * @retval None
  */
void HAL_NVIC_SetPriority(IRQn_Type IRQn, uint32_t PreemptPriority, uint32_t SubPriority)
{
 80014b8:	b500      	push	{lr}
  \details Reads the priority grouping field from the NVIC Interrupt Controller.
  \return                Priority grouping field (SCB->AIRCR [10:8] PRIGROUP field).
 */
__STATIC_INLINE uint32_t __NVIC_GetPriorityGrouping(void)
{
  return ((uint32_t)((SCB->AIRCR & SCB_AIRCR_PRIGROUP_Msk) >> SCB_AIRCR_PRIGROUP_Pos));
 80014ba:	4b18      	ldr	r3, [pc, #96]	; (800151c <HAL_NVIC_SetPriority+0x64>)
 80014bc:	68db      	ldr	r3, [r3, #12]
 80014be:	f3c3 2302 	ubfx	r3, r3, #8, #3
{
  uint32_t PriorityGroupTmp = (PriorityGroup & (uint32_t)0x07UL);   /* only values 0..7 are used          */
  uint32_t PreemptPriorityBits;
  uint32_t SubPriorityBits;

  PreemptPriorityBits = ((7UL - PriorityGroupTmp) > (uint32_t)(__NVIC_PRIO_BITS)) ? (uint32_t)(__NVIC_PRIO_BITS) : (uint32_t)(7UL - PriorityGroupTmp);
 80014c2:	f1c3 0c07 	rsb	ip, r3, #7
 80014c6:	f1bc 0f04 	cmp.w	ip, #4
 80014ca:	bf28      	it	cs
 80014cc:	f04f 0c04 	movcs.w	ip, #4
  SubPriorityBits     = ((PriorityGroupTmp + (uint32_t)(__NVIC_PRIO_BITS)) < (uint32_t)7UL) ? (uint32_t)0UL : (uint32_t)((PriorityGroupTmp - 7UL) + (uint32_t)(__NVIC_PRIO_BITS));
 80014d0:	f103 0e04 	add.w	lr, r3, #4
 80014d4:	f1be 0f06 	cmp.w	lr, #6
 80014d8:	bf8c      	ite	hi
 80014da:	3b03      	subhi	r3, #3
 80014dc:	2300      	movls	r3, #0

  return (
           ((PreemptPriority & (uint32_t)((1UL << (PreemptPriorityBits)) - 1UL)) << SubPriorityBits) |
 80014de:	f04f 3eff 	mov.w	lr, #4294967295
 80014e2:	fa0e fc0c 	lsl.w	ip, lr, ip
 80014e6:	ea21 010c 	bic.w	r1, r1, ip
 80014ea:	4099      	lsls	r1, r3
           ((SubPriority     & (uint32_t)((1UL << (SubPriorityBits    )) - 1UL)))
 80014ec:	fa0e fe03 	lsl.w	lr, lr, r3
 80014f0:	ea22 020e 	bic.w	r2, r2, lr
           ((PreemptPriority & (uint32_t)((1UL << (PreemptPriorityBits)) - 1UL)) << SubPriorityBits) |
 80014f4:	4311      	orrs	r1, r2
  if ((int32_t)(IRQn) >= 0)
 80014f6:	2800      	cmp	r0, #0
 80014f8:	db09      	blt.n	800150e <HAL_NVIC_SetPriority+0x56>
    NVIC->IP[((uint32_t)IRQn)]               = (uint8_t)((priority << (8U - __NVIC_PRIO_BITS)) & (uint32_t)0xFFUL);
 80014fa:	0109      	lsls	r1, r1, #4
 80014fc:	b2c9      	uxtb	r1, r1
 80014fe:	f100 4060 	add.w	r0, r0, #3758096384	; 0xe0000000
 8001502:	f500 4061 	add.w	r0, r0, #57600	; 0xe100
 8001506:	f880 1300 	strb.w	r1, [r0, #768]	; 0x300
  assert_param(IS_NVIC_PREEMPTION_PRIORITY(PreemptPriority));
  
  prioritygroup = NVIC_GetPriorityGrouping();
  
  NVIC_SetPriority(IRQn, NVIC_EncodePriority(prioritygroup, PreemptPriority, SubPriority));
}
 800150a:	f85d fb04 	ldr.w	pc, [sp], #4
    SCB->SHP[(((uint32_t)IRQn) & 0xFUL)-4UL] = (uint8_t)((priority << (8U - __NVIC_PRIO_BITS)) & (uint32_t)0xFFUL);
 800150e:	f000 000f 	and.w	r0, r0, #15
 8001512:	0109      	lsls	r1, r1, #4
 8001514:	b2c9      	uxtb	r1, r1
 8001516:	4b02      	ldr	r3, [pc, #8]	; (8001520 <HAL_NVIC_SetPriority+0x68>)
 8001518:	5419      	strb	r1, [r3, r0]
 800151a:	e7f6      	b.n	800150a <HAL_NVIC_SetPriority+0x52>
 800151c:	e000ed00 	.word	0xe000ed00
 8001520:	e000ed14 	.word	0xe000ed14

08001524 <HAL_NVIC_EnableIRQ>:
  if ((int32_t)(IRQn) >= 0)
 8001524:	2800      	cmp	r0, #0
 8001526:	db07      	blt.n	8001538 <HAL_NVIC_EnableIRQ+0x14>
    NVIC->ISER[(((uint32_t)IRQn) >> 5UL)] = (uint32_t)(1UL << (((uint32_t)IRQn) & 0x1FUL));
 8001528:	0941      	lsrs	r1, r0, #5
 800152a:	f000 001f 	and.w	r0, r0, #31
 800152e:	2301      	movs	r3, #1
 8001530:	4083      	lsls	r3, r0
 8001532:	4a02      	ldr	r2, [pc, #8]	; (800153c <HAL_NVIC_EnableIRQ+0x18>)
 8001534:	f842 3021 	str.w	r3, [r2, r1, lsl #2]
  /* Check the parameters */
  assert_param(IS_NVIC_DEVICE_IRQ(IRQn));
  
  /* Enable interrupt */
  NVIC_EnableIRQ(IRQn);
}
 8001538:	4770      	bx	lr
 800153a:	bf00      	nop
 800153c:	e000e100 	.word	0xe000e100

08001540 <HAL_SYSTICK_Config>:
           function <b>SysTick_Config</b> is not included. In this case, the file <b><i>device</i>.h</b>
           must contain a vendor-specific implementation of this function.
 */
__STATIC_INLINE uint32_t SysTick_Config(uint32_t ticks)
{
  if ((ticks - 1UL) > SysTick_LOAD_RELOAD_Msk)
 8001540:	3801      	subs	r0, #1
 8001542:	f1b0 7f80 	cmp.w	r0, #16777216	; 0x1000000
 8001546:	d20b      	bcs.n	8001560 <HAL_SYSTICK_Config+0x20>
  {
    return (1UL);                                                   /* Reload value impossible */
  }

  SysTick->LOAD  = (uint32_t)(ticks - 1UL);                         /* set reload register */
 8001548:	f04f 23e0 	mov.w	r3, #3758153728	; 0xe000e000
 800154c:	6158      	str	r0, [r3, #20]
    SCB->SHP[(((uint32_t)IRQn) & 0xFUL)-4UL] = (uint8_t)((priority << (8U - __NVIC_PRIO_BITS)) & (uint32_t)0xFFUL);
 800154e:	4a05      	ldr	r2, [pc, #20]	; (8001564 <HAL_SYSTICK_Config+0x24>)
 8001550:	21f0      	movs	r1, #240	; 0xf0
 8001552:	f882 1023 	strb.w	r1, [r2, #35]	; 0x23
  NVIC_SetPriority (SysTick_IRQn, (1UL << __NVIC_PRIO_BITS) - 1UL); /* set Priority for Systick Interrupt */
  SysTick->VAL   = 0UL;                                             /* Load the SysTick Counter Value */
 8001556:	2000      	movs	r0, #0
 8001558:	6198      	str	r0, [r3, #24]
  SysTick->CTRL  = SysTick_CTRL_CLKSOURCE_Msk |
 800155a:	2207      	movs	r2, #7
 800155c:	611a      	str	r2, [r3, #16]
                   SysTick_CTRL_TICKINT_Msk   |
                   SysTick_CTRL_ENABLE_Msk;                         /* Enable SysTick IRQ and SysTick Timer */
  return (0UL);                                                     /* Function successful */
 800155e:	4770      	bx	lr
    return (1UL);                                                   /* Reload value impossible */
 8001560:	2001      	movs	r0, #1
  *                  - 1  Function failed.
  */
uint32_t HAL_SYSTICK_Config(uint32_t TicksNumb)
{
   return SysTick_Config(TicksNumb);
}
 8001562:	4770      	bx	lr
 8001564:	e000ed00 	.word	0xe000ed00

08001568 <HAL_GPIO_Init>:
  assert_param(IS_GPIO_ALL_INSTANCE(GPIOx));
  assert_param(IS_GPIO_PIN(GPIO_Init->Pin));
  assert_param(IS_GPIO_MODE(GPIO_Init->Mode));

  /* Configure the port pins */
  while (((GPIO_Init->Pin) >> position) != 0x00u)
 8001568:	680b      	ldr	r3, [r1, #0]
 800156a:	2b00      	cmp	r3, #0
 800156c:	f000 80ce 	beq.w	800170c <HAL_GPIO_Init+0x1a4>
{
 8001570:	e92d 4ff0 	stmdb	sp!, {r4, r5, r6, r7, r8, r9, sl, fp, lr}
 8001574:	b083      	sub	sp, #12
  while (((GPIO_Init->Pin) >> position) != 0x00u)
 8001576:	f04f 0c00 	mov.w	ip, #0
  uint32_t position = 0x00u;
 800157a:	4662      	mov	r2, ip
  {
    /* Get current io position */
    iocurrent = (GPIO_Init->Pin) & (1uL << position);
 800157c:	2501      	movs	r5, #1
        GPIOx->AFR[position >> 3u] = temp;
      }

      /* Configure IO Direction mode (Input, Output, Alternate or Analog) */
      temp = GPIOx->MODER;
      temp &= ~(GPIO_MODER_MODER0 << (position * 2u));
 800157e:	f04f 0e03 	mov.w	lr, #3
      {
        /* Enable SYSCFG Clock */
        __HAL_RCC_SYSCFG_CLK_ENABLE();

        temp = SYSCFG->EXTICR[position >> 2u];
        temp &= ~(0x0FuL << (4u * (position & 0x03u)));
 8001582:	f04f 080f 	mov.w	r8, #15
        temp |= (GPIO_GET_INDEX(GPIOx) << (4u * (position & 0x03u)));
        SYSCFG->EXTICR[position >> 2u] = temp;

        /* Clear Rising Falling edge configuration */
        temp = EXTI->RTSR;
 8001586:	4c62      	ldr	r4, [pc, #392]	; (8001710 <HAL_GPIO_Init+0x1a8>)
 8001588:	e047      	b.n	800161a <HAL_GPIO_Init+0xb2>
        temp = GPIOx->OSPEEDR;
 800158a:	6883      	ldr	r3, [r0, #8]
        temp &= ~(GPIO_OSPEEDER_OSPEEDR0 << (position * 2u));
 800158c:	fa0e fa0c 	lsl.w	sl, lr, ip
 8001590:	ea23 0a0a 	bic.w	sl, r3, sl
        temp |= (GPIO_Init->Speed << (position * 2u));
 8001594:	68cb      	ldr	r3, [r1, #12]
 8001596:	fa03 f30c 	lsl.w	r3, r3, ip
 800159a:	ea43 030a 	orr.w	r3, r3, sl
        GPIOx->OSPEEDR = temp;
 800159e:	6083      	str	r3, [r0, #8]
        temp = GPIOx->OTYPER;
 80015a0:	6843      	ldr	r3, [r0, #4]
        temp &= ~(GPIO_OTYPER_OT_0 << position) ;
 80015a2:	ea23 0707 	bic.w	r7, r3, r7
        temp |= (((GPIO_Init->Mode & OUTPUT_TYPE) >> OUTPUT_TYPE_Pos) << position);
 80015a6:	684b      	ldr	r3, [r1, #4]
 80015a8:	f3c3 1300 	ubfx	r3, r3, #4, #1
 80015ac:	4093      	lsls	r3, r2
 80015ae:	433b      	orrs	r3, r7
        GPIOx->OTYPER = temp;
 80015b0:	6043      	str	r3, [r0, #4]
 80015b2:	e03d      	b.n	8001630 <HAL_GPIO_Init+0xc8>
        temp |= (GPIO_GET_INDEX(GPIOx) << (4u * (position & 0x03u)));
 80015b4:	2700      	movs	r7, #0
 80015b6:	fa07 f70b 	lsl.w	r7, r7, fp
 80015ba:	ea47 070a 	orr.w	r7, r7, sl
        SYSCFG->EXTICR[position >> 2u] = temp;
 80015be:	609f      	str	r7, [r3, #8]
        temp = EXTI->RTSR;
 80015c0:	68a3      	ldr	r3, [r4, #8]
        temp &= ~(iocurrent);
 80015c2:	ea6f 0709 	mvn.w	r7, r9
        if((GPIO_Init->Mode & TRIGGER_RISING) != 0x00u)
 80015c6:	684e      	ldr	r6, [r1, #4]
 80015c8:	f416 1f80 	tst.w	r6, #1048576	; 0x100000
        temp &= ~(iocurrent);
 80015cc:	bf0c      	ite	eq
 80015ce:	403b      	andeq	r3, r7
        {
          temp |= iocurrent;
 80015d0:	ea49 0303 	orrne.w	r3, r9, r3
        }
        EXTI->RTSR = temp;
 80015d4:	60a3      	str	r3, [r4, #8]

        temp = EXTI->FTSR;
 80015d6:	68e3      	ldr	r3, [r4, #12]
        temp &= ~(iocurrent);
        if((GPIO_Init->Mode & TRIGGER_FALLING) != 0x00u)
 80015d8:	684e      	ldr	r6, [r1, #4]
 80015da:	f416 1f00 	tst.w	r6, #2097152	; 0x200000
        temp &= ~(iocurrent);
 80015de:	bf0c      	ite	eq
 80015e0:	403b      	andeq	r3, r7
        {
          temp |= iocurrent;
 80015e2:	ea49 0303 	orrne.w	r3, r9, r3
        }
        EXTI->FTSR = temp;
 80015e6:	60e3      	str	r3, [r4, #12]

        temp = EXTI->EMR;
 80015e8:	6863      	ldr	r3, [r4, #4]
        temp &= ~(iocurrent);
        if((GPIO_Init->Mode & EXTI_EVT) != 0x00u)
 80015ea:	684e      	ldr	r6, [r1, #4]
 80015ec:	f416 3f00 	tst.w	r6, #131072	; 0x20000
        temp &= ~(iocurrent);
 80015f0:	bf0c      	ite	eq
 80015f2:	403b      	andeq	r3, r7
        {
          temp |= iocurrent;
 80015f4:	ea49 0303 	orrne.w	r3, r9, r3
        }
        EXTI->EMR = temp;
 80015f8:	6063      	str	r3, [r4, #4]

        /* Clear EXTI line configuration */
        temp = EXTI->IMR;
 80015fa:	6823      	ldr	r3, [r4, #0]
        temp &= ~(iocurrent);
        if((GPIO_Init->Mode & EXTI_IT) != 0x00u)
 80015fc:	684e      	ldr	r6, [r1, #4]
 80015fe:	f416 3f80 	tst.w	r6, #65536	; 0x10000
        temp &= ~(iocurrent);
 8001602:	bf0c      	ite	eq
 8001604:	401f      	andeq	r7, r3
        {
          temp |= iocurrent;
 8001606:	ea49 0703 	orrne.w	r7, r9, r3
        }
        EXTI->IMR = temp;
 800160a:	6027      	str	r7, [r4, #0]
      }
    }

    position++;
 800160c:	3201      	adds	r2, #1
  while (((GPIO_Init->Pin) >> position) != 0x00u)
 800160e:	680b      	ldr	r3, [r1, #0]
 8001610:	f10c 0c02 	add.w	ip, ip, #2
 8001614:	fa33 f702 	lsrs.w	r7, r3, r2
 8001618:	d075      	beq.n	8001706 <HAL_GPIO_Init+0x19e>
    iocurrent = (GPIO_Init->Pin) & (1uL << position);
 800161a:	fa05 f702 	lsl.w	r7, r5, r2
    if (iocurrent != 0x00u)
 800161e:	ea17 0903 	ands.w	r9, r7, r3
 8001622:	d0f3      	beq.n	800160c <HAL_GPIO_Init+0xa4>
      if(((GPIO_Init->Mode & GPIO_MODE) == MODE_OUTPUT) || ((GPIO_Init->Mode & GPIO_MODE) == MODE_AF))
 8001624:	684b      	ldr	r3, [r1, #4]
 8001626:	f003 0303 	and.w	r3, r3, #3
 800162a:	3b01      	subs	r3, #1
 800162c:	2b01      	cmp	r3, #1
 800162e:	d9ac      	bls.n	800158a <HAL_GPIO_Init+0x22>
      if((GPIO_Init->Mode & GPIO_MODE) != MODE_ANALOG)
 8001630:	684b      	ldr	r3, [r1, #4]
 8001632:	f003 0303 	and.w	r3, r3, #3
 8001636:	2b03      	cmp	r3, #3
 8001638:	d020      	beq.n	800167c <HAL_GPIO_Init+0x114>
        temp = GPIOx->PUPDR;
 800163a:	68c7      	ldr	r7, [r0, #12]
        temp &= ~(GPIO_PUPDR_PUPDR0 << (position * 2u));
 800163c:	fa0e f30c 	lsl.w	r3, lr, ip
 8001640:	ea27 0703 	bic.w	r7, r7, r3
        temp |= ((GPIO_Init->Pull) << (position * 2u));
 8001644:	688b      	ldr	r3, [r1, #8]
 8001646:	fa03 f30c 	lsl.w	r3, r3, ip
 800164a:	433b      	orrs	r3, r7
        GPIOx->PUPDR = temp;
 800164c:	60c3      	str	r3, [r0, #12]
      if((GPIO_Init->Mode & GPIO_MODE) == MODE_AF)
 800164e:	684b      	ldr	r3, [r1, #4]
 8001650:	f003 0303 	and.w	r3, r3, #3
 8001654:	2b02      	cmp	r3, #2
 8001656:	d111      	bne.n	800167c <HAL_GPIO_Init+0x114>
        temp = GPIOx->AFR[position >> 3u];
 8001658:	08d7      	lsrs	r7, r2, #3
 800165a:	eb00 0787 	add.w	r7, r0, r7, lsl #2
 800165e:	6a3b      	ldr	r3, [r7, #32]
        temp &= ~(0xFu << ((position & 0x07u) * 4u));
 8001660:	f002 0b07 	and.w	fp, r2, #7
 8001664:	ea4f 0b8b 	mov.w	fp, fp, lsl #2
 8001668:	fa08 fa0b 	lsl.w	sl, r8, fp
 800166c:	ea23 0a0a 	bic.w	sl, r3, sl
        temp |= ((GPIO_Init->Alternate) << ((position & 0x07u) * 4u));
 8001670:	690b      	ldr	r3, [r1, #16]
 8001672:	fa03 f30b 	lsl.w	r3, r3, fp
 8001676:	ea43 030a 	orr.w	r3, r3, sl
        GPIOx->AFR[position >> 3u] = temp;
 800167a:	623b      	str	r3, [r7, #32]
      temp = GPIOx->MODER;
 800167c:	6807      	ldr	r7, [r0, #0]
      temp &= ~(GPIO_MODER_MODER0 << (position * 2u));
 800167e:	fa0e f30c 	lsl.w	r3, lr, ip
 8001682:	ea27 0703 	bic.w	r7, r7, r3
      temp |= ((GPIO_Init->Mode & GPIO_MODE) << (position * 2u));
 8001686:	684b      	ldr	r3, [r1, #4]
 8001688:	f003 0303 	and.w	r3, r3, #3
 800168c:	fa03 f30c 	lsl.w	r3, r3, ip
 8001690:	433b      	orrs	r3, r7
      GPIOx->MODER = temp;
 8001692:	6003      	str	r3, [r0, #0]
      if((GPIO_Init->Mode & EXTI_MODE) != 0x00u)
 8001694:	684b      	ldr	r3, [r1, #4]
 8001696:	f413 3f40 	tst.w	r3, #196608	; 0x30000
 800169a:	d0b7      	beq.n	800160c <HAL_GPIO_Init+0xa4>
        __HAL_RCC_SYSCFG_CLK_ENABLE();
 800169c:	4e1d      	ldr	r6, [pc, #116]	; (8001714 <HAL_GPIO_Init+0x1ac>)
 800169e:	69b3      	ldr	r3, [r6, #24]
 80016a0:	f043 0301 	orr.w	r3, r3, #1
 80016a4:	61b3      	str	r3, [r6, #24]
 80016a6:	69b3      	ldr	r3, [r6, #24]
 80016a8:	f003 0301 	and.w	r3, r3, #1
 80016ac:	9301      	str	r3, [sp, #4]
 80016ae:	9b01      	ldr	r3, [sp, #4]
        temp = SYSCFG->EXTICR[position >> 2u];
 80016b0:	f022 0303 	bic.w	r3, r2, #3
 80016b4:	f103 4380 	add.w	r3, r3, #1073741824	; 0x40000000
 80016b8:	f503 3380 	add.w	r3, r3, #65536	; 0x10000
 80016bc:	689f      	ldr	r7, [r3, #8]
        temp &= ~(0x0FuL << (4u * (position & 0x03u)));
 80016be:	f002 0b03 	and.w	fp, r2, #3
 80016c2:	ea4f 0b8b 	mov.w	fp, fp, lsl #2
 80016c6:	fa08 fa0b 	lsl.w	sl, r8, fp
 80016ca:	ea27 0a0a 	bic.w	sl, r7, sl
        temp |= (GPIO_GET_INDEX(GPIOx) << (4u * (position & 0x03u)));
 80016ce:	f1b0 4f90 	cmp.w	r0, #1207959552	; 0x48000000
 80016d2:	f43f af6f 	beq.w	80015b4 <HAL_GPIO_Init+0x4c>
 80016d6:	4e10      	ldr	r6, [pc, #64]	; (8001718 <HAL_GPIO_Init+0x1b0>)
 80016d8:	42b0      	cmp	r0, r6
 80016da:	d00e      	beq.n	80016fa <HAL_GPIO_Init+0x192>
 80016dc:	f506 6680 	add.w	r6, r6, #1024	; 0x400
 80016e0:	42b0      	cmp	r0, r6
 80016e2:	d00c      	beq.n	80016fe <HAL_GPIO_Init+0x196>
 80016e4:	f506 6680 	add.w	r6, r6, #1024	; 0x400
 80016e8:	42b0      	cmp	r0, r6
 80016ea:	d00a      	beq.n	8001702 <HAL_GPIO_Init+0x19a>
 80016ec:	f506 6680 	add.w	r6, r6, #1024	; 0x400
 80016f0:	42b0      	cmp	r0, r6
 80016f2:	bf0c      	ite	eq
 80016f4:	2704      	moveq	r7, #4
 80016f6:	2705      	movne	r7, #5
 80016f8:	e75d      	b.n	80015b6 <HAL_GPIO_Init+0x4e>
 80016fa:	462f      	mov	r7, r5
 80016fc:	e75b      	b.n	80015b6 <HAL_GPIO_Init+0x4e>
 80016fe:	2702      	movs	r7, #2
 8001700:	e759      	b.n	80015b6 <HAL_GPIO_Init+0x4e>
 8001702:	4677      	mov	r7, lr
 8001704:	e757      	b.n	80015b6 <HAL_GPIO_Init+0x4e>
  }
}
 8001706:	b003      	add	sp, #12
 8001708:	e8bd 8ff0 	ldmia.w	sp!, {r4, r5, r6, r7, r8, r9, sl, fp, pc}
 800170c:	4770      	bx	lr
 800170e:	bf00      	nop
 8001710:	40010400 	.word	0x40010400
 8001714:	40021000 	.word	0x40021000
 8001718:	48000400 	.word	0x48000400

0800171c <HAL_GPIO_WritePin>:
{
  /* Check the parameters */
  assert_param(IS_GPIO_PIN(GPIO_Pin));
  assert_param(IS_GPIO_PIN_ACTION(PinState));

  if(PinState != GPIO_PIN_RESET)
 800171c:	b10a      	cbz	r2, 8001722 <HAL_GPIO_WritePin+0x6>
  {
    GPIOx->BSRR = (uint32_t)GPIO_Pin;
 800171e:	6181      	str	r1, [r0, #24]
 8001720:	4770      	bx	lr
  }
  else
  {
    GPIOx->BRR = (uint32_t)GPIO_Pin;
 8001722:	6281      	str	r1, [r0, #40]	; 0x28
  }
}
 8001724:	4770      	bx	lr

08001726 <HAL_GPIO_EXTI_Callback>:
  UNUSED(GPIO_Pin);

  /* NOTE: This function should not be modified, when the callback is needed,
           the HAL_GPIO_EXTI_Callback could be implemented in the user file
   */
}
 8001726:	4770      	bx	lr

08001728 <HAL_GPIO_EXTI_IRQHandler>:
{
 8001728:	b508      	push	{r3, lr}
  if(__HAL_GPIO_EXTI_GET_IT(GPIO_Pin) != 0x00u)
 800172a:	4b05      	ldr	r3, [pc, #20]	; (8001740 <HAL_GPIO_EXTI_IRQHandler+0x18>)
 800172c:	695b      	ldr	r3, [r3, #20]
 800172e:	4203      	tst	r3, r0
 8001730:	d100      	bne.n	8001734 <HAL_GPIO_EXTI_IRQHandler+0xc>
}
 8001732:	bd08      	pop	{r3, pc}
    __HAL_GPIO_EXTI_CLEAR_IT(GPIO_Pin);
 8001734:	4b02      	ldr	r3, [pc, #8]	; (8001740 <HAL_GPIO_EXTI_IRQHandler+0x18>)
 8001736:	6158      	str	r0, [r3, #20]
    HAL_GPIO_EXTI_Callback(GPIO_Pin);
 8001738:	f7ff fff5 	bl	8001726 <HAL_GPIO_EXTI_Callback>
}
 800173c:	e7f9      	b.n	8001732 <HAL_GPIO_EXTI_IRQHandler+0xa>
 800173e:	bf00      	nop
 8001740:	40010400 	.word	0x40010400

08001744 <HAL_PCD_Init>:
HAL_StatusTypeDef HAL_PCD_Init(PCD_HandleTypeDef *hpcd)
{
  uint8_t i;

  /* Check the PCD handle allocation */
  if (hpcd == NULL)
 8001744:	2800      	cmp	r0, #0
 8001746:	d05f      	beq.n	8001808 <HAL_PCD_Init+0xc4>
{
 8001748:	b530      	push	{r4, r5, lr}
 800174a:	b087      	sub	sp, #28
 800174c:	4604      	mov	r4, r0
  }

  /* Check the parameters */
  assert_param(IS_PCD_ALL_INSTANCE(hpcd->Instance));

  if (hpcd->State == HAL_PCD_STATE_RESET)
 800174e:	f890 32a9 	ldrb.w	r3, [r0, #681]	; 0x2a9
 8001752:	2b00      	cmp	r3, #0
 8001754:	d053      	beq.n	80017fe <HAL_PCD_Init+0xba>
    /* Init the low level hardware : GPIO, CLOCK, NVIC... */
    HAL_PCD_MspInit(hpcd);
#endif /* (USE_HAL_PCD_REGISTER_CALLBACKS) */
  }

  hpcd->State = HAL_PCD_STATE_BUSY;
 8001756:	2303      	movs	r3, #3
 8001758:	f884 32a9 	strb.w	r3, [r4, #681]	; 0x2a9

  /* Disable the Interrupts */
  __HAL_PCD_DISABLE(hpcd);
 800175c:	6820      	ldr	r0, [r4, #0]
 800175e:	f002 f9cd 	bl	8003afc <USB_DisableGlobalInt>

  /* Init endpoints structures */
  for (i = 0U; i < hpcd->Init.dev_endpoints; i++)
 8001762:	6860      	ldr	r0, [r4, #4]
 8001764:	b390      	cbz	r0, 80017cc <HAL_PCD_Init+0x88>
 8001766:	2300      	movs	r3, #0
  {
    /* Init ep structure */
    hpcd->IN_ep[i].is_in = 1U;
 8001768:	f04f 0c01 	mov.w	ip, #1
    hpcd->IN_ep[i].num = i;
    /* Control until ep is activated */
    hpcd->IN_ep[i].type = EP_TYPE_CTRL;
 800176c:	4619      	mov	r1, r3
    hpcd->IN_ep[i].is_in = 1U;
 800176e:	eb03 0283 	add.w	r2, r3, r3, lsl #2
 8001772:	eb04 02c2 	add.w	r2, r4, r2, lsl #3
 8001776:	f882 c029 	strb.w	ip, [r2, #41]	; 0x29
    hpcd->IN_ep[i].num = i;
 800177a:	f882 3028 	strb.w	r3, [r2, #40]	; 0x28
    hpcd->IN_ep[i].type = EP_TYPE_CTRL;
 800177e:	f882 102b 	strb.w	r1, [r2, #43]	; 0x2b
    hpcd->IN_ep[i].maxpacket = 0U;
 8001782:	6391      	str	r1, [r2, #56]	; 0x38
    hpcd->IN_ep[i].xfer_buff = 0U;
 8001784:	63d1      	str	r1, [r2, #60]	; 0x3c
    hpcd->IN_ep[i].xfer_len = 0U;
 8001786:	eb03 0283 	add.w	r2, r3, r3, lsl #2
 800178a:	eb04 02c2 	add.w	r2, r4, r2, lsl #3
 800178e:	6411      	str	r1, [r2, #64]	; 0x40
  for (i = 0U; i < hpcd->Init.dev_endpoints; i++)
 8001790:	3301      	adds	r3, #1
 8001792:	b2db      	uxtb	r3, r3
 8001794:	4283      	cmp	r3, r0
 8001796:	d3ea      	bcc.n	800176e <HAL_PCD_Init+0x2a>
 8001798:	2300      	movs	r3, #0
  }

  for (i = 0U; i < hpcd->Init.dev_endpoints; i++)
  {
    hpcd->OUT_ep[i].is_in = 0U;
 800179a:	4619      	mov	r1, r3
 800179c:	eb03 0283 	add.w	r2, r3, r3, lsl #2
 80017a0:	eb04 02c2 	add.w	r2, r4, r2, lsl #3
 80017a4:	f882 1169 	strb.w	r1, [r2, #361]	; 0x169
    hpcd->OUT_ep[i].num = i;
 80017a8:	f882 3168 	strb.w	r3, [r2, #360]	; 0x168
    /* Control until ep is activated */
    hpcd->OUT_ep[i].type = EP_TYPE_CTRL;
 80017ac:	f882 116b 	strb.w	r1, [r2, #363]	; 0x16b
    hpcd->OUT_ep[i].maxpacket = 0U;
 80017b0:	f8c2 1178 	str.w	r1, [r2, #376]	; 0x178
    hpcd->OUT_ep[i].xfer_buff = 0U;
 80017b4:	f8c2 117c 	str.w	r1, [r2, #380]	; 0x17c
    hpcd->OUT_ep[i].xfer_len = 0U;
 80017b8:	eb03 0283 	add.w	r2, r3, r3, lsl #2
 80017bc:	eb04 02c2 	add.w	r2, r4, r2, lsl #3
 80017c0:	f8c2 1180 	str.w	r1, [r2, #384]	; 0x180
  for (i = 0U; i < hpcd->Init.dev_endpoints; i++)
 80017c4:	3301      	adds	r3, #1
 80017c6:	b2db      	uxtb	r3, r3
 80017c8:	4283      	cmp	r3, r0
 80017ca:	d3e7      	bcc.n	800179c <HAL_PCD_Init+0x58>
  }

  /* Init Device */
  (void)USB_DevInit(hpcd->Instance, hpcd->Init);
 80017cc:	46a4      	mov	ip, r4
 80017ce:	f85c 5b10 	ldr.w	r5, [ip], #16
 80017d2:	46ee      	mov	lr, sp
 80017d4:	e8bc 000f 	ldmia.w	ip!, {r0, r1, r2, r3}
 80017d8:	e8ae 000f 	stmia.w	lr!, {r0, r1, r2, r3}
 80017dc:	f8dc 3000 	ldr.w	r3, [ip]
 80017e0:	f8ce 3000 	str.w	r3, [lr]
 80017e4:	1d23      	adds	r3, r4, #4
 80017e6:	cb0e      	ldmia	r3, {r1, r2, r3}
 80017e8:	4628      	mov	r0, r5
 80017ea:	f002 f991 	bl	8003b10 <USB_DevInit>

  hpcd->USB_Address = 0U;
 80017ee:	2000      	movs	r0, #0
 80017f0:	f884 0024 	strb.w	r0, [r4, #36]	; 0x24
  hpcd->State = HAL_PCD_STATE_READY;
 80017f4:	2301      	movs	r3, #1
 80017f6:	f884 32a9 	strb.w	r3, [r4, #681]	; 0x2a9
  return HAL_OK;
}
 80017fa:	b007      	add	sp, #28
 80017fc:	bd30      	pop	{r4, r5, pc}
    hpcd->Lock = HAL_UNLOCKED;
 80017fe:	f880 32a8 	strb.w	r3, [r0, #680]	; 0x2a8
    HAL_PCD_MspInit(hpcd);
 8001802:	f003 fff5 	bl	80057f0 <HAL_PCD_MspInit>
 8001806:	e7a6      	b.n	8001756 <HAL_PCD_Init+0x12>
    return HAL_ERROR;
 8001808:	2001      	movs	r0, #1
}
 800180a:	4770      	bx	lr

0800180c <HAL_PCD_Start>:
  * @brief  Start the USB device
  * @param  hpcd PCD handle
  * @retval HAL status
  */
HAL_StatusTypeDef HAL_PCD_Start(PCD_HandleTypeDef *hpcd)
{
 800180c:	b538      	push	{r3, r4, r5, lr}
  __HAL_LOCK(hpcd);
 800180e:	f890 32a8 	ldrb.w	r3, [r0, #680]	; 0x2a8
 8001812:	2b01      	cmp	r3, #1
 8001814:	d011      	beq.n	800183a <HAL_PCD_Start+0x2e>
 8001816:	4604      	mov	r4, r0
 8001818:	2501      	movs	r5, #1
 800181a:	f880 52a8 	strb.w	r5, [r0, #680]	; 0x2a8
  __HAL_PCD_ENABLE(hpcd);
 800181e:	6800      	ldr	r0, [r0, #0]
 8001820:	f002 f963 	bl	8003aea <USB_EnableGlobalInt>

  HAL_PCDEx_SetConnectionState(hpcd, 1U);
 8001824:	4629      	mov	r1, r5
 8001826:	4620      	mov	r0, r4
 8001828:	f004 f91b 	bl	8005a62 <HAL_PCDEx_SetConnectionState>

  (void)USB_DevConnect(hpcd->Instance);
 800182c:	6820      	ldr	r0, [r4, #0]
 800182e:	f002 fcad 	bl	800418c <USB_DevConnect>
  __HAL_UNLOCK(hpcd);
 8001832:	2000      	movs	r0, #0
 8001834:	f884 02a8 	strb.w	r0, [r4, #680]	; 0x2a8

  return HAL_OK;
}
 8001838:	bd38      	pop	{r3, r4, r5, pc}
  __HAL_LOCK(hpcd);
 800183a:	2002      	movs	r0, #2
 800183c:	e7fc      	b.n	8001838 <HAL_PCD_Start+0x2c>

0800183e <HAL_PCD_SetAddress>:
  * @param  address new device address
  * @retval HAL status
  */
HAL_StatusTypeDef HAL_PCD_SetAddress(PCD_HandleTypeDef *hpcd, uint8_t address)
{
  __HAL_LOCK(hpcd);
 800183e:	f890 32a8 	ldrb.w	r3, [r0, #680]	; 0x2a8
 8001842:	2b01      	cmp	r3, #1
 8001844:	d00d      	beq.n	8001862 <HAL_PCD_SetAddress+0x24>
{
 8001846:	b510      	push	{r4, lr}
 8001848:	4604      	mov	r4, r0
  __HAL_LOCK(hpcd);
 800184a:	2301      	movs	r3, #1
 800184c:	f880 32a8 	strb.w	r3, [r0, #680]	; 0x2a8
  hpcd->USB_Address = address;
 8001850:	f880 1024 	strb.w	r1, [r0, #36]	; 0x24
  (void)USB_SetDevAddress(hpcd->Instance, address);
 8001854:	6800      	ldr	r0, [r0, #0]
 8001856:	f002 fc93 	bl	8004180 <USB_SetDevAddress>
  __HAL_UNLOCK(hpcd);
 800185a:	2000      	movs	r0, #0
 800185c:	f884 02a8 	strb.w	r0, [r4, #680]	; 0x2a8

  return HAL_OK;
}
 8001860:	bd10      	pop	{r4, pc}
  __HAL_LOCK(hpcd);
 8001862:	2002      	movs	r0, #2
}
 8001864:	4770      	bx	lr

08001866 <HAL_PCD_IRQHandler>:
{
 8001866:	e92d 47f0 	stmdb	sp!, {r4, r5, r6, r7, r8, r9, sl, lr}
 800186a:	4605      	mov	r5, r0
  uint32_t wIstr = USB_ReadInterrupts(hpcd->Instance);
 800186c:	6800      	ldr	r0, [r0, #0]
 800186e:	f002 fc8f 	bl	8004190 <USB_ReadInterrupts>
  if ((wIstr & USB_ISTR_CTR) == USB_ISTR_CTR)
 8001872:	f410 4f00 	tst.w	r0, #32768	; 0x8000
 8001876:	d126      	bne.n	80018c6 <HAL_PCD_IRQHandler+0x60>
  if ((wIstr & USB_ISTR_RESET) == USB_ISTR_RESET)
 8001878:	f410 6f80 	tst.w	r0, #1024	; 0x400
 800187c:	f040 84cb 	bne.w	8002216 <HAL_PCD_IRQHandler+0x9b0>
  if ((wIstr & USB_ISTR_PMAOVR) == USB_ISTR_PMAOVR)
 8001880:	f410 4f80 	tst.w	r0, #16384	; 0x4000
 8001884:	f040 84d8 	bne.w	8002238 <HAL_PCD_IRQHandler+0x9d2>
  if ((wIstr & USB_ISTR_ERR) == USB_ISTR_ERR)
 8001888:	f410 5f00 	tst.w	r0, #8192	; 0x2000
 800188c:	f040 84df 	bne.w	800224e <HAL_PCD_IRQHandler+0x9e8>
  if ((wIstr & USB_ISTR_WKUP) == USB_ISTR_WKUP)
 8001890:	f410 5f80 	tst.w	r0, #4096	; 0x1000
 8001894:	f040 84e5 	bne.w	8002262 <HAL_PCD_IRQHandler+0x9fc>
  if ((wIstr & USB_ISTR_SUSP) == USB_ISTR_SUSP)
 8001898:	f410 6f00 	tst.w	r0, #2048	; 0x800
 800189c:	f040 8500 	bne.w	80022a0 <HAL_PCD_IRQHandler+0xa3a>
  if ((wIstr & USB_ISTR_SOF) == USB_ISTR_SOF)
 80018a0:	f410 7f00 	tst.w	r0, #512	; 0x200
 80018a4:	f040 8519 	bne.w	80022da <HAL_PCD_IRQHandler+0xa74>
  if ((wIstr & USB_ISTR_ESOF) == USB_ISTR_ESOF)
 80018a8:	f410 7f80 	tst.w	r0, #256	; 0x100
 80018ac:	f000 84cd 	beq.w	800224a <HAL_PCD_IRQHandler+0x9e4>
    __HAL_PCD_CLEAR_FLAG(hpcd, USB_ISTR_ESOF);
 80018b0:	682a      	ldr	r2, [r5, #0]
 80018b2:	f8b2 3044 	ldrh.w	r3, [r2, #68]	; 0x44
 80018b6:	f423 7380 	bic.w	r3, r3, #256	; 0x100
 80018ba:	041b      	lsls	r3, r3, #16
 80018bc:	0c1b      	lsrs	r3, r3, #16
 80018be:	f8a2 3044 	strh.w	r3, [r2, #68]	; 0x44
    return;
 80018c2:	f000 bcc2 	b.w	800224a <HAL_PCD_IRQHandler+0x9e4>
#if (USE_USB_DOUBLE_BUFFER != 1U)
  count = 0U;
#endif /* USE_USB_DOUBLE_BUFFER */

  /* stay in loop while pending interrupts */
  while ((hpcd->Instance->ISTR & USB_ISTR_CTR) != 0U)
 80018c6:	6828      	ldr	r0, [r5, #0]
 80018c8:	f8b0 3044 	ldrh.w	r3, [r0, #68]	; 0x44
 80018cc:	f413 4f00 	tst.w	r3, #32768	; 0x8000
 80018d0:	f000 84bb 	beq.w	800224a <HAL_PCD_IRQHandler+0x9e4>
      }
    }
  }

  /*enable endpoint IN*/
  PCD_SET_EP_TX_STATUS(hpcd->Instance, ep->num, USB_EP_TX_VALID);
 80018d4:	f248 0780 	movw	r7, #32896	; 0x8080
 80018d8:	2600      	movs	r6, #0
        PCD_FREE_USER_BUFFER(hpcd->Instance, ep->num, 1U);
 80018da:	f24c 0880 	movw	r8, #49280	; 0xc080
 80018de:	e058      	b.n	8001992 <HAL_PCD_IRQHandler+0x12c>
        PCD_CLEAR_TX_EP_CTR(hpcd->Instance, PCD_ENDP0);
 80018e0:	8803      	ldrh	r3, [r0, #0]
 80018e2:	b29b      	uxth	r3, r3
 80018e4:	f423 43e1 	bic.w	r3, r3, #28800	; 0x7080
 80018e8:	f023 0370 	bic.w	r3, r3, #112	; 0x70
 80018ec:	ea6f 4343 	mvn.w	r3, r3, lsl #17
 80018f0:	ea6f 4353 	mvn.w	r3, r3, lsr #17
 80018f4:	b29b      	uxth	r3, r3
 80018f6:	8003      	strh	r3, [r0, #0]
        ep->xfer_count = PCD_GET_EP_TX_CNT(hpcd->Instance, ep->num);
 80018f8:	682b      	ldr	r3, [r5, #0]
 80018fa:	f8b3 2050 	ldrh.w	r2, [r3, #80]	; 0x50
 80018fe:	f895 1028 	ldrb.w	r1, [r5, #40]	; 0x28
 8001902:	00c9      	lsls	r1, r1, #3
 8001904:	fa11 f282 	uxtah	r2, r1, r2
 8001908:	eb03 0342 	add.w	r3, r3, r2, lsl #1
 800190c:	f8b3 3404 	ldrh.w	r3, [r3, #1028]	; 0x404
 8001910:	f3c3 0309 	ubfx	r3, r3, #0, #10
 8001914:	646b      	str	r3, [r5, #68]	; 0x44
        ep->xfer_buff += ep->xfer_count;
 8001916:	6bea      	ldr	r2, [r5, #60]	; 0x3c
 8001918:	441a      	add	r2, r3
 800191a:	63ea      	str	r2, [r5, #60]	; 0x3c
        HAL_PCD_DataInStageCallback(hpcd, 0U);
 800191c:	4631      	mov	r1, r6
 800191e:	4628      	mov	r0, r5
 8001920:	f003 ffbe 	bl	80058a0 <HAL_PCD_DataInStageCallback>
        if ((hpcd->USB_Address > 0U) && (ep->xfer_len == 0U))
 8001924:	f895 3024 	ldrb.w	r3, [r5, #36]	; 0x24
 8001928:	b363      	cbz	r3, 8001984 <HAL_PCD_IRQHandler+0x11e>
 800192a:	6c2b      	ldr	r3, [r5, #64]	; 0x40
 800192c:	bb53      	cbnz	r3, 8001984 <HAL_PCD_IRQHandler+0x11e>
          hpcd->Instance->DADDR = ((uint16_t)hpcd->USB_Address | USB_DADDR_EF);
 800192e:	f895 3024 	ldrb.w	r3, [r5, #36]	; 0x24
 8001932:	682a      	ldr	r2, [r5, #0]
 8001934:	f043 0380 	orr.w	r3, r3, #128	; 0x80
 8001938:	f8a2 304c 	strh.w	r3, [r2, #76]	; 0x4c
          hpcd->USB_Address = 0U;
 800193c:	f885 6024 	strb.w	r6, [r5, #36]	; 0x24
 8001940:	e020      	b.n	8001984 <HAL_PCD_IRQHandler+0x11e>
          ep->xfer_count = PCD_GET_EP_RX_CNT(hpcd->Instance, ep->num);
 8001942:	f8b0 3050 	ldrh.w	r3, [r0, #80]	; 0x50
 8001946:	f895 2168 	ldrb.w	r2, [r5, #360]	; 0x168
 800194a:	00d2      	lsls	r2, r2, #3
 800194c:	fa12 f383 	uxtah	r3, r2, r3
 8001950:	eb00 0343 	add.w	r3, r0, r3, lsl #1
 8001954:	f8b3 340c 	ldrh.w	r3, [r3, #1036]	; 0x40c
 8001958:	f3c3 0309 	ubfx	r3, r3, #0, #10
 800195c:	f8c5 3184 	str.w	r3, [r5, #388]	; 0x184
          USB_ReadPMA(hpcd->Instance, (uint8_t *)hpcd->Setup,
 8001960:	f8b5 216e 	ldrh.w	r2, [r5, #366]	; 0x16e
 8001964:	f505 712c 	add.w	r1, r5, #688	; 0x2b0
 8001968:	f002 ff88 	bl	800487c <USB_ReadPMA>
          PCD_CLEAR_RX_EP_CTR(hpcd->Instance, PCD_ENDP0);
 800196c:	682a      	ldr	r2, [r5, #0]
 800196e:	8813      	ldrh	r3, [r2, #0]
 8001970:	f023 0370 	bic.w	r3, r3, #112	; 0x70
 8001974:	051b      	lsls	r3, r3, #20
 8001976:	0d1b      	lsrs	r3, r3, #20
 8001978:	f043 0380 	orr.w	r3, r3, #128	; 0x80
 800197c:	8013      	strh	r3, [r2, #0]
          HAL_PCD_SetupStageCallback(hpcd);
 800197e:	4628      	mov	r0, r5
 8001980:	f003 ff7a 	bl	8005878 <HAL_PCD_SetupStageCallback>
  while ((hpcd->Instance->ISTR & USB_ISTR_CTR) != 0U)
 8001984:	6828      	ldr	r0, [r5, #0]
 8001986:	f8b0 3044 	ldrh.w	r3, [r0, #68]	; 0x44
 800198a:	f413 4f00 	tst.w	r3, #32768	; 0x8000
 800198e:	f000 845c 	beq.w	800224a <HAL_PCD_IRQHandler+0x9e4>
    wIstr = hpcd->Instance->ISTR;
 8001992:	f8b0 4044 	ldrh.w	r4, [r0, #68]	; 0x44
 8001996:	b2a3      	uxth	r3, r4
    if (epindex == 0U)
 8001998:	f014 040f 	ands.w	r4, r4, #15
 800199c:	d17e      	bne.n	8001a9c <HAL_PCD_IRQHandler+0x236>
      if ((wIstr & USB_ISTR_DIR) == 0U)
 800199e:	f013 0f10 	tst.w	r3, #16
 80019a2:	d09d      	beq.n	80018e0 <HAL_PCD_IRQHandler+0x7a>
        wEPVal = PCD_GET_ENDPOINT(hpcd->Instance, PCD_ENDP0);
 80019a4:	8803      	ldrh	r3, [r0, #0]
 80019a6:	b29a      	uxth	r2, r3
        if ((wEPVal & USB_EP_SETUP) != 0U)
 80019a8:	f413 6f00 	tst.w	r3, #2048	; 0x800
 80019ac:	d1c9      	bne.n	8001942 <HAL_PCD_IRQHandler+0xdc>
        else if ((wEPVal & USB_EP_CTR_RX) != 0U)
 80019ae:	f412 4f00 	tst.w	r2, #32768	; 0x8000
 80019b2:	d0e7      	beq.n	8001984 <HAL_PCD_IRQHandler+0x11e>
          PCD_CLEAR_RX_EP_CTR(hpcd->Instance, PCD_ENDP0);
 80019b4:	8803      	ldrh	r3, [r0, #0]
 80019b6:	f023 0370 	bic.w	r3, r3, #112	; 0x70
 80019ba:	051b      	lsls	r3, r3, #20
 80019bc:	0d1b      	lsrs	r3, r3, #20
 80019be:	f043 0380 	orr.w	r3, r3, #128	; 0x80
 80019c2:	8003      	strh	r3, [r0, #0]
          ep->xfer_count = PCD_GET_EP_RX_CNT(hpcd->Instance, ep->num);
 80019c4:	6828      	ldr	r0, [r5, #0]
 80019c6:	f8b0 3050 	ldrh.w	r3, [r0, #80]	; 0x50
 80019ca:	f895 2168 	ldrb.w	r2, [r5, #360]	; 0x168
 80019ce:	00d2      	lsls	r2, r2, #3
 80019d0:	fa12 f383 	uxtah	r3, r2, r3
 80019d4:	eb00 0343 	add.w	r3, r0, r3, lsl #1
 80019d8:	f8b3 340c 	ldrh.w	r3, [r3, #1036]	; 0x40c
 80019dc:	f3c3 0309 	ubfx	r3, r3, #0, #10
 80019e0:	f8c5 3184 	str.w	r3, [r5, #388]	; 0x184
          if ((ep->xfer_count != 0U) && (ep->xfer_buff != 0U))
 80019e4:	b18b      	cbz	r3, 8001a0a <HAL_PCD_IRQHandler+0x1a4>
 80019e6:	f8d5 117c 	ldr.w	r1, [r5, #380]	; 0x17c
 80019ea:	b171      	cbz	r1, 8001a0a <HAL_PCD_IRQHandler+0x1a4>
            USB_ReadPMA(hpcd->Instance, ep->xfer_buff,
 80019ec:	f8b5 216e 	ldrh.w	r2, [r5, #366]	; 0x16e
 80019f0:	f002 ff44 	bl	800487c <USB_ReadPMA>
            ep->xfer_buff += ep->xfer_count;
 80019f4:	f8d5 317c 	ldr.w	r3, [r5, #380]	; 0x17c
 80019f8:	f8d5 2184 	ldr.w	r2, [r5, #388]	; 0x184
 80019fc:	4413      	add	r3, r2
 80019fe:	f8c5 317c 	str.w	r3, [r5, #380]	; 0x17c
            HAL_PCD_DataOutStageCallback(hpcd, 0U);
 8001a02:	4631      	mov	r1, r6
 8001a04:	4628      	mov	r0, r5
 8001a06:	f003 ff3f 	bl	8005888 <HAL_PCD_DataOutStageCallback>
          wEPVal = (uint16_t)PCD_GET_ENDPOINT(hpcd->Instance, PCD_ENDP0);
 8001a0a:	682a      	ldr	r2, [r5, #0]
 8001a0c:	8813      	ldrh	r3, [r2, #0]
 8001a0e:	b299      	uxth	r1, r3
          if (((wEPVal & USB_EP_SETUP) == 0U) && ((wEPVal & USB_EP_RX_STRX) != USB_EP_RX_VALID))
 8001a10:	f413 6f00 	tst.w	r3, #2048	; 0x800
 8001a14:	d1b6      	bne.n	8001984 <HAL_PCD_IRQHandler+0x11e>
 8001a16:	f401 5140 	and.w	r1, r1, #12288	; 0x3000
 8001a1a:	f5b1 5f40 	cmp.w	r1, #12288	; 0x3000
 8001a1e:	d0b1      	beq.n	8001984 <HAL_PCD_IRQHandler+0x11e>
            PCD_SET_EP_RX_CNT(hpcd->Instance, PCD_ENDP0, ep->maxpacket);
 8001a20:	f8b2 3050 	ldrh.w	r3, [r2, #80]	; 0x50
 8001a24:	b29b      	uxth	r3, r3
 8001a26:	f202 420c 	addw	r2, r2, #1036	; 0x40c
 8001a2a:	5ad1      	ldrh	r1, [r2, r3]
 8001a2c:	f3c1 0109 	ubfx	r1, r1, #0, #10
 8001a30:	52d1      	strh	r1, [r2, r3]
 8001a32:	f8d5 1178 	ldr.w	r1, [r5, #376]	; 0x178
 8001a36:	293e      	cmp	r1, #62	; 0x3e
 8001a38:	d91b      	bls.n	8001a72 <HAL_PCD_IRQHandler+0x20c>
 8001a3a:	0948      	lsrs	r0, r1, #5
 8001a3c:	f011 0f1f 	tst.w	r1, #31
 8001a40:	bf08      	it	eq
 8001a42:	f100 30ff 	addeq.w	r0, r0, #4294967295
 8001a46:	5ad1      	ldrh	r1, [r2, r3]
 8001a48:	b289      	uxth	r1, r1
 8001a4a:	ea41 2180 	orr.w	r1, r1, r0, lsl #10
 8001a4e:	ea6f 4141 	mvn.w	r1, r1, lsl #17
 8001a52:	ea6f 4151 	mvn.w	r1, r1, lsr #17
 8001a56:	b289      	uxth	r1, r1
 8001a58:	52d1      	strh	r1, [r2, r3]
            PCD_SET_EP_RX_STATUS(hpcd->Instance, PCD_ENDP0, USB_EP_RX_VALID);
 8001a5a:	682a      	ldr	r2, [r5, #0]
 8001a5c:	8813      	ldrh	r3, [r2, #0]
 8001a5e:	b29b      	uxth	r3, r3
 8001a60:	f423 4380 	bic.w	r3, r3, #16384	; 0x4000
 8001a64:	f023 0370 	bic.w	r3, r3, #112	; 0x70
 8001a68:	f483 5340 	eor.w	r3, r3, #12288	; 0x3000
 8001a6c:	433b      	orrs	r3, r7
 8001a6e:	8013      	strh	r3, [r2, #0]
 8001a70:	e788      	b.n	8001984 <HAL_PCD_IRQHandler+0x11e>
            PCD_SET_EP_RX_CNT(hpcd->Instance, PCD_ENDP0, ep->maxpacket);
 8001a72:	b939      	cbnz	r1, 8001a84 <HAL_PCD_IRQHandler+0x21e>
 8001a74:	5ad1      	ldrh	r1, [r2, r3]
 8001a76:	ea6f 4141 	mvn.w	r1, r1, lsl #17
 8001a7a:	ea6f 4151 	mvn.w	r1, r1, lsr #17
 8001a7e:	b289      	uxth	r1, r1
 8001a80:	52d1      	strh	r1, [r2, r3]
 8001a82:	e7ea      	b.n	8001a5a <HAL_PCD_IRQHandler+0x1f4>
 8001a84:	0848      	lsrs	r0, r1, #1
 8001a86:	f011 0f01 	tst.w	r1, #1
 8001a8a:	bf18      	it	ne
 8001a8c:	3001      	addne	r0, #1
 8001a8e:	5ad1      	ldrh	r1, [r2, r3]
 8001a90:	b289      	uxth	r1, r1
 8001a92:	ea41 2180 	orr.w	r1, r1, r0, lsl #10
 8001a96:	b289      	uxth	r1, r1
 8001a98:	52d1      	strh	r1, [r2, r3]
 8001a9a:	e7de      	b.n	8001a5a <HAL_PCD_IRQHandler+0x1f4>
      wEPVal = PCD_GET_ENDPOINT(hpcd->Instance, epindex);
 8001a9c:	f830 3024 	ldrh.w	r3, [r0, r4, lsl #2]
 8001aa0:	fa1f f983 	uxth.w	r9, r3
      if ((wEPVal & USB_EP_CTR_RX) != 0U)
 8001aa4:	f413 4f00 	tst.w	r3, #32768	; 0x8000
 8001aa8:	d152      	bne.n	8001b50 <HAL_PCD_IRQHandler+0x2ea>
      if ((wEPVal & USB_EP_CTR_TX) != 0U)
 8001aaa:	f019 0f80 	tst.w	r9, #128	; 0x80
 8001aae:	f43f af69 	beq.w	8001984 <HAL_PCD_IRQHandler+0x11e>
        PCD_CLEAR_TX_EP_CTR(hpcd->Instance, epindex);
 8001ab2:	682a      	ldr	r2, [r5, #0]
 8001ab4:	f832 3024 	ldrh.w	r3, [r2, r4, lsl #2]
 8001ab8:	b29b      	uxth	r3, r3
 8001aba:	f423 43e1 	bic.w	r3, r3, #28800	; 0x7080
 8001abe:	f023 0370 	bic.w	r3, r3, #112	; 0x70
 8001ac2:	ea6f 4343 	mvn.w	r3, r3, lsl #17
 8001ac6:	ea6f 4353 	mvn.w	r3, r3, lsr #17
 8001aca:	b29b      	uxth	r3, r3
 8001acc:	f822 3024 	strh.w	r3, [r2, r4, lsl #2]
        if (ep->type == EP_TYPE_ISOC)
 8001ad0:	eb04 0a84 	add.w	sl, r4, r4, lsl #2
 8001ad4:	eb05 0aca 	add.w	sl, r5, sl, lsl #3
 8001ad8:	f89a 302b 	ldrb.w	r3, [sl, #43]	; 0x2b
 8001adc:	2b01      	cmp	r3, #1
 8001ade:	f000 818e 	beq.w	8001dfe <HAL_PCD_IRQHandler+0x598>
          if ((wEPVal & USB_EP_KIND) == 0U)
 8001ae2:	f419 7f80 	tst.w	r9, #256	; 0x100
 8001ae6:	f040 81e4 	bne.w	8001eb2 <HAL_PCD_IRQHandler+0x64c>
            TxPctSize = (uint16_t)PCD_GET_EP_TX_CNT(hpcd->Instance, ep->num);
 8001aea:	6828      	ldr	r0, [r5, #0]
 8001aec:	f8b0 3050 	ldrh.w	r3, [r0, #80]	; 0x50
 8001af0:	b29b      	uxth	r3, r3
 8001af2:	f89a 1028 	ldrb.w	r1, [sl, #40]	; 0x28
            if (ep->xfer_len > TxPctSize)
 8001af6:	eb04 0284 	add.w	r2, r4, r4, lsl #2
 8001afa:	eb05 02c2 	add.w	r2, r5, r2, lsl #3
 8001afe:	6c12      	ldr	r2, [r2, #64]	; 0x40
            TxPctSize = (uint16_t)PCD_GET_EP_TX_CNT(hpcd->Instance, ep->num);
 8001b00:	3302      	adds	r3, #2
 8001b02:	eb03 03c1 	add.w	r3, r3, r1, lsl #3
 8001b06:	eb00 0343 	add.w	r3, r0, r3, lsl #1
 8001b0a:	f8b3 3400 	ldrh.w	r3, [r3, #1024]	; 0x400
            if (ep->xfer_len > TxPctSize)
 8001b0e:	f3c3 0309 	ubfx	r3, r3, #0, #10
 8001b12:	429a      	cmp	r2, r3
 8001b14:	f240 83ee 	bls.w	80022f4 <HAL_PCD_IRQHandler+0xa8e>
              ep->xfer_len -= TxPctSize;
 8001b18:	1ad2      	subs	r2, r2, r3
 8001b1a:	eb04 0c84 	add.w	ip, r4, r4, lsl #2
 8001b1e:	eb05 0ccc 	add.w	ip, r5, ip, lsl #3
 8001b22:	f8cc 2040 	str.w	r2, [ip, #64]	; 0x40
            if (ep->xfer_len == 0U)
 8001b26:	2a00      	cmp	r2, #0
 8001b28:	f000 83e9 	beq.w	80022fe <HAL_PCD_IRQHandler+0xa98>
              ep->xfer_buff += TxPctSize;
 8001b2c:	eb04 0284 	add.w	r2, r4, r4, lsl #2
 8001b30:	eb05 02c2 	add.w	r2, r5, r2, lsl #3
 8001b34:	6bd1      	ldr	r1, [r2, #60]	; 0x3c
 8001b36:	4419      	add	r1, r3
 8001b38:	63d1      	str	r1, [r2, #60]	; 0x3c
              ep->xfer_count += TxPctSize;
 8001b3a:	6c51      	ldr	r1, [r2, #68]	; 0x44
 8001b3c:	440b      	add	r3, r1
 8001b3e:	6453      	str	r3, [r2, #68]	; 0x44
        ep = &hpcd->IN_ep[epindex];
 8001b40:	3401      	adds	r4, #1
 8001b42:	eb04 0484 	add.w	r4, r4, r4, lsl #2
              (void)USB_EPStartXfer(hpcd->Instance, ep);
 8001b46:	eb05 01c4 	add.w	r1, r5, r4, lsl #3
 8001b4a:	f002 fb3c 	bl	80041c6 <USB_EPStartXfer>
 8001b4e:	e719      	b.n	8001984 <HAL_PCD_IRQHandler+0x11e>
        PCD_CLEAR_RX_EP_CTR(hpcd->Instance, epindex);
 8001b50:	f830 3024 	ldrh.w	r3, [r0, r4, lsl #2]
 8001b54:	f023 0370 	bic.w	r3, r3, #112	; 0x70
 8001b58:	051b      	lsls	r3, r3, #20
 8001b5a:	0d1b      	lsrs	r3, r3, #20
 8001b5c:	f043 0380 	orr.w	r3, r3, #128	; 0x80
 8001b60:	f820 3024 	strh.w	r3, [r0, r4, lsl #2]
        if (ep->doublebuffer == 0U)
 8001b64:	eb04 0384 	add.w	r3, r4, r4, lsl #2
 8001b68:	eb05 03c3 	add.w	r3, r5, r3, lsl #3
 8001b6c:	f893 3174 	ldrb.w	r3, [r3, #372]	; 0x174
 8001b70:	2b00      	cmp	r3, #0
 8001b72:	d145      	bne.n	8001c00 <HAL_PCD_IRQHandler+0x39a>
          count = (uint16_t)PCD_GET_EP_RX_CNT(hpcd->Instance, ep->num);
 8001b74:	6828      	ldr	r0, [r5, #0]
 8001b76:	f8b0 3050 	ldrh.w	r3, [r0, #80]	; 0x50
 8001b7a:	b29b      	uxth	r3, r3
 8001b7c:	eb04 0284 	add.w	r2, r4, r4, lsl #2
 8001b80:	eb05 02c2 	add.w	r2, r5, r2, lsl #3
 8001b84:	f892 2168 	ldrb.w	r2, [r2, #360]	; 0x168
 8001b88:	3306      	adds	r3, #6
 8001b8a:	eb03 03c2 	add.w	r3, r3, r2, lsl #3
 8001b8e:	eb00 0343 	add.w	r3, r0, r3, lsl #1
 8001b92:	f8b3 a400 	ldrh.w	sl, [r3, #1024]	; 0x400
 8001b96:	f3ca 0a09 	ubfx	sl, sl, #0, #10
          if (count != 0U)
 8001b9a:	f1ba 0f00 	cmp.w	sl, #0
 8001b9e:	d123      	bne.n	8001be8 <HAL_PCD_IRQHandler+0x382>
        ep->xfer_count += count;
 8001ba0:	eb04 0384 	add.w	r3, r4, r4, lsl #2
 8001ba4:	eb05 03c3 	add.w	r3, r5, r3, lsl #3
 8001ba8:	f8d3 2184 	ldr.w	r2, [r3, #388]	; 0x184
 8001bac:	4452      	add	r2, sl
 8001bae:	f8c3 2184 	str.w	r2, [r3, #388]	; 0x184
        ep->xfer_buff += count;
 8001bb2:	f8d3 217c 	ldr.w	r2, [r3, #380]	; 0x17c
 8001bb6:	4452      	add	r2, sl
 8001bb8:	f8c3 217c 	str.w	r2, [r3, #380]	; 0x17c
        if ((ep->xfer_len == 0U) || (count < ep->maxpacket))
 8001bbc:	f8d3 3180 	ldr.w	r3, [r3, #384]	; 0x180
 8001bc0:	b143      	cbz	r3, 8001bd4 <HAL_PCD_IRQHandler+0x36e>
 8001bc2:	eb04 0384 	add.w	r3, r4, r4, lsl #2
 8001bc6:	eb05 03c3 	add.w	r3, r5, r3, lsl #3
 8001bca:	f8d3 3178 	ldr.w	r3, [r3, #376]	; 0x178
 8001bce:	459a      	cmp	sl, r3
 8001bd0:	f080 810b 	bcs.w	8001dea <HAL_PCD_IRQHandler+0x584>
          HAL_PCD_DataOutStageCallback(hpcd, ep->num);
 8001bd4:	eb04 0384 	add.w	r3, r4, r4, lsl #2
 8001bd8:	eb05 03c3 	add.w	r3, r5, r3, lsl #3
 8001bdc:	f893 1168 	ldrb.w	r1, [r3, #360]	; 0x168
 8001be0:	4628      	mov	r0, r5
 8001be2:	f003 fe51 	bl	8005888 <HAL_PCD_DataOutStageCallback>
 8001be6:	e760      	b.n	8001aaa <HAL_PCD_IRQHandler+0x244>
            USB_ReadPMA(hpcd->Instance, ep->xfer_buff, ep->pmaadress, count);
 8001be8:	eb04 0184 	add.w	r1, r4, r4, lsl #2
 8001bec:	eb05 01c1 	add.w	r1, r5, r1, lsl #3
 8001bf0:	4653      	mov	r3, sl
 8001bf2:	f8b1 216e 	ldrh.w	r2, [r1, #366]	; 0x16e
 8001bf6:	f8d1 117c 	ldr.w	r1, [r1, #380]	; 0x17c
 8001bfa:	f002 fe3f 	bl	800487c <USB_ReadPMA>
 8001bfe:	e7cf      	b.n	8001ba0 <HAL_PCD_IRQHandler+0x33a>
          if (ep->type == EP_TYPE_BULK)
 8001c00:	eb04 0384 	add.w	r3, r4, r4, lsl #2
 8001c04:	eb05 03c3 	add.w	r3, r5, r3, lsl #3
 8001c08:	f893 316b 	ldrb.w	r3, [r3, #363]	; 0x16b
 8001c0c:	2b02      	cmp	r3, #2
 8001c0e:	d037      	beq.n	8001c80 <HAL_PCD_IRQHandler+0x41a>
            PCD_FREE_USER_BUFFER(hpcd->Instance, ep->num, 0U);
 8001c10:	eb04 0284 	add.w	r2, r4, r4, lsl #2
 8001c14:	eb05 02c2 	add.w	r2, r5, r2, lsl #3
 8001c18:	f892 0168 	ldrb.w	r0, [r2, #360]	; 0x168
 8001c1c:	6829      	ldr	r1, [r5, #0]
 8001c1e:	f831 3020 	ldrh.w	r3, [r1, r0, lsl #2]
 8001c22:	b29b      	uxth	r3, r3
 8001c24:	f423 43e0 	bic.w	r3, r3, #28672	; 0x7000
 8001c28:	f023 0370 	bic.w	r3, r3, #112	; 0x70
 8001c2c:	f443 4300 	orr.w	r3, r3, #32768	; 0x8000
 8001c30:	f043 03c0 	orr.w	r3, r3, #192	; 0xc0
 8001c34:	f821 3020 	strh.w	r3, [r1, r0, lsl #2]
            if ((PCD_GET_ENDPOINT(hpcd->Instance, ep->num) & USB_EP_DTOG_RX) != 0U)
 8001c38:	6828      	ldr	r0, [r5, #0]
 8001c3a:	f892 2168 	ldrb.w	r2, [r2, #360]	; 0x168
 8001c3e:	f830 3022 	ldrh.w	r3, [r0, r2, lsl #2]
 8001c42:	f413 4f80 	tst.w	r3, #16384	; 0x4000
 8001c46:	f000 80b4 	beq.w	8001db2 <HAL_PCD_IRQHandler+0x54c>
              count = (uint16_t)PCD_GET_EP_DBUF0_CNT(hpcd->Instance, ep->num);
 8001c4a:	f8b0 3050 	ldrh.w	r3, [r0, #80]	; 0x50
 8001c4e:	b29b      	uxth	r3, r3
 8001c50:	3302      	adds	r3, #2
 8001c52:	eb03 03c2 	add.w	r3, r3, r2, lsl #3
 8001c56:	eb00 0343 	add.w	r3, r0, r3, lsl #1
 8001c5a:	f8b3 a400 	ldrh.w	sl, [r3, #1024]	; 0x400
 8001c5e:	f3ca 0a09 	ubfx	sl, sl, #0, #10
              if (count != 0U)
 8001c62:	f1ba 0f00 	cmp.w	sl, #0
 8001c66:	d09b      	beq.n	8001ba0 <HAL_PCD_IRQHandler+0x33a>
                USB_ReadPMA(hpcd->Instance, ep->xfer_buff, ep->pmaaddr0, count);
 8001c68:	eb04 0184 	add.w	r1, r4, r4, lsl #2
 8001c6c:	eb05 01c1 	add.w	r1, r5, r1, lsl #3
 8001c70:	4653      	mov	r3, sl
 8001c72:	f8b1 2170 	ldrh.w	r2, [r1, #368]	; 0x170
 8001c76:	f8d1 117c 	ldr.w	r1, [r1, #380]	; 0x17c
 8001c7a:	f002 fdff 	bl	800487c <USB_ReadPMA>
 8001c7e:	e78f      	b.n	8001ba0 <HAL_PCD_IRQHandler+0x33a>
  if ((wEPVal & USB_EP_DTOG_RX) != 0U)
 8001c80:	f419 4f80 	tst.w	r9, #16384	; 0x4000
 8001c84:	d04a      	beq.n	8001d1c <HAL_PCD_IRQHandler+0x4b6>
    count = (uint16_t)PCD_GET_EP_DBUF0_CNT(hpcd->Instance, ep->num);
 8001c86:	682a      	ldr	r2, [r5, #0]
 8001c88:	f8b2 3050 	ldrh.w	r3, [r2, #80]	; 0x50
 8001c8c:	b29b      	uxth	r3, r3
 8001c8e:	eb04 0084 	add.w	r0, r4, r4, lsl #2
 8001c92:	eb05 00c0 	add.w	r0, r5, r0, lsl #3
 8001c96:	f890 1168 	ldrb.w	r1, [r0, #360]	; 0x168
 8001c9a:	3302      	adds	r3, #2
 8001c9c:	eb03 03c1 	add.w	r3, r3, r1, lsl #3
 8001ca0:	eb02 0343 	add.w	r3, r2, r3, lsl #1
 8001ca4:	f8b3 a400 	ldrh.w	sl, [r3, #1024]	; 0x400
 8001ca8:	f3ca 0a09 	ubfx	sl, sl, #0, #10
    if (ep->xfer_len >= count)
 8001cac:	f8d0 3180 	ldr.w	r3, [r0, #384]	; 0x180
 8001cb0:	4553      	cmp	r3, sl
 8001cb2:	f0c0 83c5 	bcc.w	8002440 <HAL_PCD_IRQHandler+0xbda>
      ep->xfer_len -= count;
 8001cb6:	eba3 030a 	sub.w	r3, r3, sl
 8001cba:	eb04 0084 	add.w	r0, r4, r4, lsl #2
 8001cbe:	eb05 00c0 	add.w	r0, r5, r0, lsl #3
 8001cc2:	f8c0 3180 	str.w	r3, [r0, #384]	; 0x180
    if (ep->xfer_len == 0U)
 8001cc6:	2b00      	cmp	r3, #0
 8001cc8:	f000 83c0 	beq.w	800244c <HAL_PCD_IRQHandler+0xbe6>
    if ((wEPVal & USB_EP_DTOG_TX) != 0U)
 8001ccc:	f019 0f40 	tst.w	r9, #64	; 0x40
 8001cd0:	d013      	beq.n	8001cfa <HAL_PCD_IRQHandler+0x494>
      PCD_FREE_USER_BUFFER(hpcd->Instance, ep->num, 0U);
 8001cd2:	eb04 0384 	add.w	r3, r4, r4, lsl #2
 8001cd6:	eb05 03c3 	add.w	r3, r5, r3, lsl #3
 8001cda:	f893 1168 	ldrb.w	r1, [r3, #360]	; 0x168
 8001cde:	682a      	ldr	r2, [r5, #0]
 8001ce0:	f832 3021 	ldrh.w	r3, [r2, r1, lsl #2]
 8001ce4:	b29b      	uxth	r3, r3
 8001ce6:	f423 43e0 	bic.w	r3, r3, #28672	; 0x7000
 8001cea:	f023 0370 	bic.w	r3, r3, #112	; 0x70
 8001cee:	f443 4300 	orr.w	r3, r3, #32768	; 0x8000
 8001cf2:	f043 03c0 	orr.w	r3, r3, #192	; 0xc0
 8001cf6:	f822 3021 	strh.w	r3, [r2, r1, lsl #2]
    if (count != 0U)
 8001cfa:	f1ba 0f00 	cmp.w	sl, #0
 8001cfe:	f43f af4f 	beq.w	8001ba0 <HAL_PCD_IRQHandler+0x33a>
      USB_ReadPMA(hpcd->Instance, ep->xfer_buff, ep->pmaaddr0, count);
 8001d02:	eb04 0184 	add.w	r1, r4, r4, lsl #2
 8001d06:	eb05 01c1 	add.w	r1, r5, r1, lsl #3
 8001d0a:	4653      	mov	r3, sl
 8001d0c:	f8b1 2170 	ldrh.w	r2, [r1, #368]	; 0x170
 8001d10:	f8d1 117c 	ldr.w	r1, [r1, #380]	; 0x17c
 8001d14:	6828      	ldr	r0, [r5, #0]
 8001d16:	f002 fdb1 	bl	800487c <USB_ReadPMA>
 8001d1a:	e741      	b.n	8001ba0 <HAL_PCD_IRQHandler+0x33a>
    count = (uint16_t)PCD_GET_EP_DBUF1_CNT(hpcd->Instance, ep->num);
 8001d1c:	682a      	ldr	r2, [r5, #0]
 8001d1e:	f8b2 3050 	ldrh.w	r3, [r2, #80]	; 0x50
 8001d22:	b29b      	uxth	r3, r3
 8001d24:	eb04 0084 	add.w	r0, r4, r4, lsl #2
 8001d28:	eb05 00c0 	add.w	r0, r5, r0, lsl #3
 8001d2c:	f890 1168 	ldrb.w	r1, [r0, #360]	; 0x168
 8001d30:	3306      	adds	r3, #6
 8001d32:	eb03 03c1 	add.w	r3, r3, r1, lsl #3
 8001d36:	eb02 0343 	add.w	r3, r2, r3, lsl #1
 8001d3a:	f8b3 a400 	ldrh.w	sl, [r3, #1024]	; 0x400
 8001d3e:	f3ca 0a09 	ubfx	sl, sl, #0, #10
    if (ep->xfer_len >= count)
 8001d42:	f8d0 3180 	ldr.w	r3, [r0, #384]	; 0x180
 8001d46:	4553      	cmp	r3, sl
 8001d48:	f0c0 838d 	bcc.w	8002466 <HAL_PCD_IRQHandler+0xc00>
      ep->xfer_len -= count;
 8001d4c:	eba3 030a 	sub.w	r3, r3, sl
 8001d50:	eb04 0084 	add.w	r0, r4, r4, lsl #2
 8001d54:	eb05 00c0 	add.w	r0, r5, r0, lsl #3
 8001d58:	f8c0 3180 	str.w	r3, [r0, #384]	; 0x180
    if (ep->xfer_len == 0U)
 8001d5c:	2b00      	cmp	r3, #0
 8001d5e:	f000 8388 	beq.w	8002472 <HAL_PCD_IRQHandler+0xc0c>
    if ((wEPVal & USB_EP_DTOG_TX) == 0U)
 8001d62:	f019 0f40 	tst.w	r9, #64	; 0x40
 8001d66:	d113      	bne.n	8001d90 <HAL_PCD_IRQHandler+0x52a>
      PCD_FREE_USER_BUFFER(hpcd->Instance, ep->num, 0U);
 8001d68:	eb04 0384 	add.w	r3, r4, r4, lsl #2
 8001d6c:	eb05 03c3 	add.w	r3, r5, r3, lsl #3
 8001d70:	f893 1168 	ldrb.w	r1, [r3, #360]	; 0x168
 8001d74:	682a      	ldr	r2, [r5, #0]
 8001d76:	f832 3021 	ldrh.w	r3, [r2, r1, lsl #2]
 8001d7a:	b29b      	uxth	r3, r3
 8001d7c:	f423 43e0 	bic.w	r3, r3, #28672	; 0x7000
 8001d80:	f023 0370 	bic.w	r3, r3, #112	; 0x70
 8001d84:	f443 4300 	orr.w	r3, r3, #32768	; 0x8000
 8001d88:	f043 03c0 	orr.w	r3, r3, #192	; 0xc0
 8001d8c:	f822 3021 	strh.w	r3, [r2, r1, lsl #2]
    if (count != 0U)
 8001d90:	f1ba 0f00 	cmp.w	sl, #0
 8001d94:	f43f af04 	beq.w	8001ba0 <HAL_PCD_IRQHandler+0x33a>
      USB_ReadPMA(hpcd->Instance, ep->xfer_buff, ep->pmaaddr1, count);
 8001d98:	eb04 0184 	add.w	r1, r4, r4, lsl #2
 8001d9c:	eb05 01c1 	add.w	r1, r5, r1, lsl #3
 8001da0:	4653      	mov	r3, sl
 8001da2:	f8b1 2172 	ldrh.w	r2, [r1, #370]	; 0x172
 8001da6:	f8d1 117c 	ldr.w	r1, [r1, #380]	; 0x17c
 8001daa:	6828      	ldr	r0, [r5, #0]
 8001dac:	f002 fd66 	bl	800487c <USB_ReadPMA>
 8001db0:	e6f6      	b.n	8001ba0 <HAL_PCD_IRQHandler+0x33a>
              count = (uint16_t)PCD_GET_EP_DBUF1_CNT(hpcd->Instance, ep->num);
 8001db2:	f8b0 3050 	ldrh.w	r3, [r0, #80]	; 0x50
 8001db6:	b29b      	uxth	r3, r3
 8001db8:	3306      	adds	r3, #6
 8001dba:	eb03 03c2 	add.w	r3, r3, r2, lsl #3
 8001dbe:	eb00 0343 	add.w	r3, r0, r3, lsl #1
 8001dc2:	f8b3 a400 	ldrh.w	sl, [r3, #1024]	; 0x400
 8001dc6:	f3ca 0a09 	ubfx	sl, sl, #0, #10
              if (count != 0U)
 8001dca:	f1ba 0f00 	cmp.w	sl, #0
 8001dce:	f43f aee7 	beq.w	8001ba0 <HAL_PCD_IRQHandler+0x33a>
                USB_ReadPMA(hpcd->Instance, ep->xfer_buff, ep->pmaaddr1, count);
 8001dd2:	eb04 0184 	add.w	r1, r4, r4, lsl #2
 8001dd6:	eb05 01c1 	add.w	r1, r5, r1, lsl #3
 8001dda:	4653      	mov	r3, sl
 8001ddc:	f8b1 2172 	ldrh.w	r2, [r1, #370]	; 0x172
 8001de0:	f8d1 117c 	ldr.w	r1, [r1, #380]	; 0x17c
 8001de4:	f002 fd4a 	bl	800487c <USB_ReadPMA>
 8001de8:	e6da      	b.n	8001ba0 <HAL_PCD_IRQHandler+0x33a>
        ep = &hpcd->OUT_ep[epindex];
 8001dea:	eb04 0184 	add.w	r1, r4, r4, lsl #2
 8001dee:	eb05 01c1 	add.w	r1, r5, r1, lsl #3
          (void)USB_EPStartXfer(hpcd->Instance, ep);
 8001df2:	f501 71b4 	add.w	r1, r1, #360	; 0x168
 8001df6:	6828      	ldr	r0, [r5, #0]
 8001df8:	f002 f9e5 	bl	80041c6 <USB_EPStartXfer>
 8001dfc:	e655      	b.n	8001aaa <HAL_PCD_IRQHandler+0x244>
          ep->xfer_len = 0U;
 8001dfe:	f8ca 6040 	str.w	r6, [sl, #64]	; 0x40
          if (ep->doublebuffer != 0U)
 8001e02:	f89a 3034 	ldrb.w	r3, [sl, #52]	; 0x34
 8001e06:	b1d3      	cbz	r3, 8001e3e <HAL_PCD_IRQHandler+0x5d8>
            if ((wEPVal & USB_EP_DTOG_TX) != 0U)
 8001e08:	f019 0f40 	tst.w	r9, #64	; 0x40
 8001e0c:	d02b      	beq.n	8001e66 <HAL_PCD_IRQHandler+0x600>
              PCD_SET_EP_DBUF0_CNT(hpcd->Instance, ep->num, ep->is_in, 0U);
 8001e0e:	f89a 3029 	ldrb.w	r3, [sl, #41]	; 0x29
 8001e12:	b9d3      	cbnz	r3, 8001e4a <HAL_PCD_IRQHandler+0x5e4>
 8001e14:	682b      	ldr	r3, [r5, #0]
 8001e16:	f8b3 2050 	ldrh.w	r2, [r3, #80]	; 0x50
 8001e1a:	f89a 1028 	ldrb.w	r1, [sl, #40]	; 0x28
 8001e1e:	0109      	lsls	r1, r1, #4
 8001e20:	f203 4304 	addw	r3, r3, #1028	; 0x404
 8001e24:	fa13 f282 	uxtah	r2, r3, r2
 8001e28:	5a8b      	ldrh	r3, [r1, r2]
 8001e2a:	f3c3 0309 	ubfx	r3, r3, #0, #10
 8001e2e:	528b      	strh	r3, [r1, r2]
 8001e30:	5a8b      	ldrh	r3, [r1, r2]
 8001e32:	ea6f 4343 	mvn.w	r3, r3, lsl #17
 8001e36:	ea6f 4353 	mvn.w	r3, r3, lsr #17
 8001e3a:	b29b      	uxth	r3, r3
 8001e3c:	528b      	strh	r3, [r1, r2]
          HAL_PCD_DataInStageCallback(hpcd, ep->num);
 8001e3e:	f89a 1028 	ldrb.w	r1, [sl, #40]	; 0x28
 8001e42:	4628      	mov	r0, r5
 8001e44:	f003 fd2c 	bl	80058a0 <HAL_PCD_DataInStageCallback>
 8001e48:	e59c      	b.n	8001984 <HAL_PCD_IRQHandler+0x11e>
              PCD_SET_EP_DBUF0_CNT(hpcd->Instance, ep->num, ep->is_in, 0U);
 8001e4a:	2b01      	cmp	r3, #1
 8001e4c:	d1f7      	bne.n	8001e3e <HAL_PCD_IRQHandler+0x5d8>
 8001e4e:	682b      	ldr	r3, [r5, #0]
 8001e50:	f8b3 2050 	ldrh.w	r2, [r3, #80]	; 0x50
 8001e54:	f89a 1028 	ldrb.w	r1, [sl, #40]	; 0x28
 8001e58:	0109      	lsls	r1, r1, #4
 8001e5a:	f203 4304 	addw	r3, r3, #1028	; 0x404
 8001e5e:	fa13 f382 	uxtah	r3, r3, r2
 8001e62:	52ce      	strh	r6, [r1, r3]
 8001e64:	e7eb      	b.n	8001e3e <HAL_PCD_IRQHandler+0x5d8>
              PCD_SET_EP_DBUF1_CNT(hpcd->Instance, ep->num, ep->is_in, 0U);
 8001e66:	682b      	ldr	r3, [r5, #0]
 8001e68:	f89a 2029 	ldrb.w	r2, [sl, #41]	; 0x29
 8001e6c:	b9a2      	cbnz	r2, 8001e98 <HAL_PCD_IRQHandler+0x632>
 8001e6e:	f8b3 2050 	ldrh.w	r2, [r3, #80]	; 0x50
 8001e72:	f89a 1028 	ldrb.w	r1, [sl, #40]	; 0x28
 8001e76:	0109      	lsls	r1, r1, #4
 8001e78:	f203 430c 	addw	r3, r3, #1036	; 0x40c
 8001e7c:	fa13 f282 	uxtah	r2, r3, r2
 8001e80:	5a8b      	ldrh	r3, [r1, r2]
 8001e82:	f3c3 0309 	ubfx	r3, r3, #0, #10
 8001e86:	528b      	strh	r3, [r1, r2]
 8001e88:	5a8b      	ldrh	r3, [r1, r2]
 8001e8a:	ea6f 4343 	mvn.w	r3, r3, lsl #17
 8001e8e:	ea6f 4353 	mvn.w	r3, r3, lsr #17
 8001e92:	b29b      	uxth	r3, r3
 8001e94:	528b      	strh	r3, [r1, r2]
 8001e96:	e7d2      	b.n	8001e3e <HAL_PCD_IRQHandler+0x5d8>
 8001e98:	2a01      	cmp	r2, #1
 8001e9a:	d1d0      	bne.n	8001e3e <HAL_PCD_IRQHandler+0x5d8>
 8001e9c:	f8b3 2050 	ldrh.w	r2, [r3, #80]	; 0x50
 8001ea0:	f89a 1028 	ldrb.w	r1, [sl, #40]	; 0x28
 8001ea4:	0109      	lsls	r1, r1, #4
 8001ea6:	f203 430c 	addw	r3, r3, #1036	; 0x40c
 8001eaa:	fa13 f382 	uxtah	r3, r3, r2
 8001eae:	52ce      	strh	r6, [r1, r3]
 8001eb0:	e7c5      	b.n	8001e3e <HAL_PCD_IRQHandler+0x5d8>
  if ((wEPVal & USB_EP_DTOG_TX) != 0U)
 8001eb2:	f019 0f40 	tst.w	r9, #64	; 0x40
 8001eb6:	f000 80df 	beq.w	8002078 <HAL_PCD_IRQHandler+0x812>
    TxPctSize = (uint16_t)PCD_GET_EP_DBUF0_CNT(hpcd->Instance, ep->num);
 8001eba:	682a      	ldr	r2, [r5, #0]
 8001ebc:	f8b2 3050 	ldrh.w	r3, [r2, #80]	; 0x50
 8001ec0:	b29b      	uxth	r3, r3
 8001ec2:	f89a 1028 	ldrb.w	r1, [sl, #40]	; 0x28
    if (ep->xfer_len > TxPctSize)
 8001ec6:	eb04 0084 	add.w	r0, r4, r4, lsl #2
 8001eca:	eb05 00c0 	add.w	r0, r5, r0, lsl #3
 8001ece:	6c00      	ldr	r0, [r0, #64]	; 0x40
    TxPctSize = (uint16_t)PCD_GET_EP_DBUF0_CNT(hpcd->Instance, ep->num);
 8001ed0:	3302      	adds	r3, #2
 8001ed2:	eb03 03c1 	add.w	r3, r3, r1, lsl #3
 8001ed6:	eb02 0343 	add.w	r3, r2, r3, lsl #1
 8001eda:	f8b3 c400 	ldrh.w	ip, [r3, #1024]	; 0x400
    if (ep->xfer_len > TxPctSize)
 8001ede:	f3cc 0c09 	ubfx	ip, ip, #0, #10
 8001ee2:	4560      	cmp	r0, ip
 8001ee4:	f240 8210 	bls.w	8002308 <HAL_PCD_IRQHandler+0xaa2>
      ep->xfer_len -= TxPctSize;
 8001ee8:	eba0 000c 	sub.w	r0, r0, ip
 8001eec:	eb04 0384 	add.w	r3, r4, r4, lsl #2
 8001ef0:	eb05 03c3 	add.w	r3, r5, r3, lsl #3
 8001ef4:	6418      	str	r0, [r3, #64]	; 0x40
    if (ep->xfer_len == 0U)
 8001ef6:	2800      	cmp	r0, #0
 8001ef8:	f000 820b 	beq.w	8002312 <HAL_PCD_IRQHandler+0xaac>
      if ((wEPVal & USB_EP_DTOG_RX) != 0U)
 8001efc:	f419 4f80 	tst.w	r9, #16384	; 0x4000
 8001f00:	d00a      	beq.n	8001f18 <HAL_PCD_IRQHandler+0x6b2>
        PCD_FREE_USER_BUFFER(hpcd->Instance, ep->num, 1U);
 8001f02:	f832 3021 	ldrh.w	r3, [r2, r1, lsl #2]
 8001f06:	b29b      	uxth	r3, r3
 8001f08:	f423 43e0 	bic.w	r3, r3, #28672	; 0x7000
 8001f0c:	f023 0370 	bic.w	r3, r3, #112	; 0x70
 8001f10:	ea48 0303 	orr.w	r3, r8, r3
 8001f14:	f822 3021 	strh.w	r3, [r2, r1, lsl #2]
      if (ep->xfer_fill_db == 1U)
 8001f18:	eb04 0384 	add.w	r3, r4, r4, lsl #2
 8001f1c:	eb05 03c3 	add.w	r3, r5, r3, lsl #3
 8001f20:	f893 304c 	ldrb.w	r3, [r3, #76]	; 0x4c
 8001f24:	2b01      	cmp	r3, #1
 8001f26:	d029      	beq.n	8001f7c <HAL_PCD_IRQHandler+0x716>
  PCD_SET_EP_TX_STATUS(hpcd->Instance, ep->num, USB_EP_TX_VALID);
 8001f28:	f89a 1028 	ldrb.w	r1, [sl, #40]	; 0x28
 8001f2c:	682a      	ldr	r2, [r5, #0]
 8001f2e:	f832 3021 	ldrh.w	r3, [r2, r1, lsl #2]
 8001f32:	b29b      	uxth	r3, r3
 8001f34:	f423 43e0 	bic.w	r3, r3, #28672	; 0x7000
 8001f38:	f023 0340 	bic.w	r3, r3, #64	; 0x40
 8001f3c:	f083 0330 	eor.w	r3, r3, #48	; 0x30
 8001f40:	433b      	orrs	r3, r7
 8001f42:	f822 3021 	strh.w	r3, [r2, r1, lsl #2]

  return HAL_OK;
 8001f46:	e51d      	b.n	8001984 <HAL_PCD_IRQHandler+0x11e>
      PCD_SET_EP_DBUF0_CNT(hpcd->Instance, ep->num, ep->is_in, 0U);
 8001f48:	2b01      	cmp	r3, #1
 8001f4a:	f040 8213 	bne.w	8002374 <HAL_PCD_IRQHandler+0xb0e>
 8001f4e:	f8b2 3050 	ldrh.w	r3, [r2, #80]	; 0x50
 8001f52:	f202 4204 	addw	r2, r2, #1028	; 0x404
 8001f56:	fa12 f383 	uxtah	r3, r2, r3
 8001f5a:	0109      	lsls	r1, r1, #4
 8001f5c:	525e      	strh	r6, [r3, r1]
 8001f5e:	e1ef      	b.n	8002340 <HAL_PCD_IRQHandler+0xada>
      PCD_SET_EP_DBUF1_CNT(hpcd->Instance, ep->num, ep->is_in, 0U);
 8001f60:	2a01      	cmp	r2, #1
 8001f62:	f040 8207 	bne.w	8002374 <HAL_PCD_IRQHandler+0xb0e>
 8001f66:	f8b3 2050 	ldrh.w	r2, [r3, #80]	; 0x50
 8001f6a:	f89a 1028 	ldrb.w	r1, [sl, #40]	; 0x28
 8001f6e:	0109      	lsls	r1, r1, #4
 8001f70:	f203 430c 	addw	r3, r3, #1036	; 0x40c
 8001f74:	fa13 f382 	uxtah	r3, r3, r2
 8001f78:	52ce      	strh	r6, [r1, r3]
 8001f7a:	e1fb      	b.n	8002374 <HAL_PCD_IRQHandler+0xb0e>
        ep->xfer_buff += TxPctSize;
 8001f7c:	eb04 0384 	add.w	r3, r4, r4, lsl #2
 8001f80:	eb05 03c3 	add.w	r3, r5, r3, lsl #3
 8001f84:	6bda      	ldr	r2, [r3, #60]	; 0x3c
 8001f86:	4462      	add	r2, ip
 8001f88:	63da      	str	r2, [r3, #60]	; 0x3c
        ep->xfer_count += TxPctSize;
 8001f8a:	6c5a      	ldr	r2, [r3, #68]	; 0x44
 8001f8c:	4462      	add	r2, ip
 8001f8e:	645a      	str	r2, [r3, #68]	; 0x44
        if (ep->xfer_len_db >= ep->maxpacket)
 8001f90:	6c9a      	ldr	r2, [r3, #72]	; 0x48
 8001f92:	6b9b      	ldr	r3, [r3, #56]	; 0x38
 8001f94:	429a      	cmp	r2, r3
 8001f96:	d32b      	bcc.n	8001ff0 <HAL_PCD_IRQHandler+0x78a>
          ep->xfer_len_db -= len;
 8001f98:	eb04 0184 	add.w	r1, r4, r4, lsl #2
 8001f9c:	eb05 01c1 	add.w	r1, r5, r1, lsl #3
 8001fa0:	1ad2      	subs	r2, r2, r3
 8001fa2:	648a      	str	r2, [r1, #72]	; 0x48
        PCD_SET_EP_DBUF0_CNT(hpcd->Instance, ep->num, ep->is_in, len);
 8001fa4:	f89a 2029 	ldrb.w	r2, [sl, #41]	; 0x29
 8001fa8:	2a00      	cmp	r2, #0
 8001faa:	d14a      	bne.n	8002042 <HAL_PCD_IRQHandler+0x7dc>
 8001fac:	682a      	ldr	r2, [r5, #0]
 8001fae:	f8b2 1050 	ldrh.w	r1, [r2, #80]	; 0x50
 8001fb2:	f202 4204 	addw	r2, r2, #1028	; 0x404
 8001fb6:	fa12 f181 	uxtah	r1, r2, r1
 8001fba:	f89a 2028 	ldrb.w	r2, [sl, #40]	; 0x28
 8001fbe:	0112      	lsls	r2, r2, #4
 8001fc0:	5a88      	ldrh	r0, [r1, r2]
 8001fc2:	f3c0 0009 	ubfx	r0, r0, #0, #10
 8001fc6:	5288      	strh	r0, [r1, r2]
 8001fc8:	2b3e      	cmp	r3, #62	; 0x3e
 8001fca:	d923      	bls.n	8002014 <HAL_PCD_IRQHandler+0x7ae>
 8001fcc:	ea4f 1c53 	mov.w	ip, r3, lsr #5
 8001fd0:	f013 0f1f 	tst.w	r3, #31
 8001fd4:	bf08      	it	eq
 8001fd6:	f10c 3cff 	addeq.w	ip, ip, #4294967295
 8001fda:	5a88      	ldrh	r0, [r1, r2]
 8001fdc:	b280      	uxth	r0, r0
 8001fde:	ea40 208c 	orr.w	r0, r0, ip, lsl #10
 8001fe2:	ea6f 4040 	mvn.w	r0, r0, lsl #17
 8001fe6:	ea6f 4050 	mvn.w	r0, r0, lsr #17
 8001fea:	b280      	uxth	r0, r0
 8001fec:	5288      	strh	r0, [r1, r2]
 8001fee:	e02a      	b.n	8002046 <HAL_PCD_IRQHandler+0x7e0>
        else if (ep->xfer_len_db == 0U)
 8001ff0:	b93a      	cbnz	r2, 8002002 <HAL_PCD_IRQHandler+0x79c>
          ep->xfer_fill_db = 0U;
 8001ff2:	eb04 0384 	add.w	r3, r4, r4, lsl #2
 8001ff6:	eb05 03c3 	add.w	r3, r5, r3, lsl #3
 8001ffa:	f883 604c 	strb.w	r6, [r3, #76]	; 0x4c
          len = TxPctSize;
 8001ffe:	4663      	mov	r3, ip
 8002000:	e7d0      	b.n	8001fa4 <HAL_PCD_IRQHandler+0x73e>
          ep->xfer_fill_db = 0U;
 8002002:	eb04 0384 	add.w	r3, r4, r4, lsl #2
 8002006:	eb05 03c3 	add.w	r3, r5, r3, lsl #3
 800200a:	f883 604c 	strb.w	r6, [r3, #76]	; 0x4c
          ep->xfer_len_db = 0U;
 800200e:	649e      	str	r6, [r3, #72]	; 0x48
          len = ep->xfer_len_db;
 8002010:	4613      	mov	r3, r2
 8002012:	e7c7      	b.n	8001fa4 <HAL_PCD_IRQHandler+0x73e>
        PCD_SET_EP_DBUF0_CNT(hpcd->Instance, ep->num, ep->is_in, len);
 8002014:	b93b      	cbnz	r3, 8002026 <HAL_PCD_IRQHandler+0x7c0>
 8002016:	5a88      	ldrh	r0, [r1, r2]
 8002018:	ea6f 4040 	mvn.w	r0, r0, lsl #17
 800201c:	ea6f 4050 	mvn.w	r0, r0, lsr #17
 8002020:	b280      	uxth	r0, r0
 8002022:	5288      	strh	r0, [r1, r2]
 8002024:	e00f      	b.n	8002046 <HAL_PCD_IRQHandler+0x7e0>
 8002026:	ea4f 0c53 	mov.w	ip, r3, lsr #1
 800202a:	f013 0f01 	tst.w	r3, #1
 800202e:	bf18      	it	ne
 8002030:	f10c 0c01 	addne.w	ip, ip, #1
 8002034:	5a88      	ldrh	r0, [r1, r2]
 8002036:	b280      	uxth	r0, r0
 8002038:	ea40 208c 	orr.w	r0, r0, ip, lsl #10
 800203c:	b280      	uxth	r0, r0
 800203e:	5288      	strh	r0, [r1, r2]
 8002040:	e001      	b.n	8002046 <HAL_PCD_IRQHandler+0x7e0>
 8002042:	2a01      	cmp	r2, #1
 8002044:	d00b      	beq.n	800205e <HAL_PCD_IRQHandler+0x7f8>
        USB_WritePMA(hpcd->Instance, ep->xfer_buff,  ep->pmaaddr0, (uint16_t)len);
 8002046:	eb04 0284 	add.w	r2, r4, r4, lsl #2
 800204a:	eb05 02c2 	add.w	r2, r5, r2, lsl #3
 800204e:	4611      	mov	r1, r2
 8002050:	b29b      	uxth	r3, r3
 8002052:	8e12      	ldrh	r2, [r2, #48]	; 0x30
 8002054:	6bc9      	ldr	r1, [r1, #60]	; 0x3c
 8002056:	6828      	ldr	r0, [r5, #0]
 8002058:	f002 f89e 	bl	8004198 <USB_WritePMA>
 800205c:	e764      	b.n	8001f28 <HAL_PCD_IRQHandler+0x6c2>
        PCD_SET_EP_DBUF0_CNT(hpcd->Instance, ep->num, ep->is_in, len);
 800205e:	682a      	ldr	r2, [r5, #0]
 8002060:	f8b2 1050 	ldrh.w	r1, [r2, #80]	; 0x50
 8002064:	f202 4204 	addw	r2, r2, #1028	; 0x404
 8002068:	fa12 f181 	uxtah	r1, r2, r1
 800206c:	f89a 2028 	ldrb.w	r2, [sl, #40]	; 0x28
 8002070:	0112      	lsls	r2, r2, #4
 8002072:	b298      	uxth	r0, r3
 8002074:	5288      	strh	r0, [r1, r2]
 8002076:	e7e6      	b.n	8002046 <HAL_PCD_IRQHandler+0x7e0>
    TxPctSize = (uint16_t)PCD_GET_EP_DBUF1_CNT(hpcd->Instance, ep->num);
 8002078:	682a      	ldr	r2, [r5, #0]
 800207a:	f8b2 3050 	ldrh.w	r3, [r2, #80]	; 0x50
 800207e:	b29b      	uxth	r3, r3
 8002080:	f89a 1028 	ldrb.w	r1, [sl, #40]	; 0x28
    if (ep->xfer_len >= TxPctSize)
 8002084:	eb04 0084 	add.w	r0, r4, r4, lsl #2
 8002088:	eb05 00c0 	add.w	r0, r5, r0, lsl #3
 800208c:	6c00      	ldr	r0, [r0, #64]	; 0x40
    TxPctSize = (uint16_t)PCD_GET_EP_DBUF1_CNT(hpcd->Instance, ep->num);
 800208e:	3306      	adds	r3, #6
 8002090:	eb03 03c1 	add.w	r3, r3, r1, lsl #3
 8002094:	eb02 0343 	add.w	r3, r2, r3, lsl #1
 8002098:	f8b3 c400 	ldrh.w	ip, [r3, #1024]	; 0x400
    if (ep->xfer_len >= TxPctSize)
 800209c:	f3cc 0c09 	ubfx	ip, ip, #0, #10
 80020a0:	4560      	cmp	r0, ip
 80020a2:	f0c0 817f 	bcc.w	80023a4 <HAL_PCD_IRQHandler+0xb3e>
      ep->xfer_len -= TxPctSize;
 80020a6:	eba0 000c 	sub.w	r0, r0, ip
 80020aa:	eb04 0384 	add.w	r3, r4, r4, lsl #2
 80020ae:	eb05 03c3 	add.w	r3, r5, r3, lsl #3
 80020b2:	6418      	str	r0, [r3, #64]	; 0x40
    if (ep->xfer_len == 0U)
 80020b4:	2800      	cmp	r0, #0
 80020b6:	f000 817a 	beq.w	80023ae <HAL_PCD_IRQHandler+0xb48>
      if ((wEPVal & USB_EP_DTOG_RX) == 0U)
 80020ba:	f419 4f80 	tst.w	r9, #16384	; 0x4000
 80020be:	d10a      	bne.n	80020d6 <HAL_PCD_IRQHandler+0x870>
        PCD_FREE_USER_BUFFER(hpcd->Instance, ep->num, 1U);
 80020c0:	f832 3021 	ldrh.w	r3, [r2, r1, lsl #2]
 80020c4:	b29b      	uxth	r3, r3
 80020c6:	f423 43e0 	bic.w	r3, r3, #28672	; 0x7000
 80020ca:	f023 0370 	bic.w	r3, r3, #112	; 0x70
 80020ce:	ea48 0303 	orr.w	r3, r8, r3
 80020d2:	f822 3021 	strh.w	r3, [r2, r1, lsl #2]
      if (ep->xfer_fill_db == 1U)
 80020d6:	eb04 0384 	add.w	r3, r4, r4, lsl #2
 80020da:	eb05 03c3 	add.w	r3, r5, r3, lsl #3
 80020de:	f893 304c 	ldrb.w	r3, [r3, #76]	; 0x4c
 80020e2:	2b01      	cmp	r3, #1
 80020e4:	f47f af20 	bne.w	8001f28 <HAL_PCD_IRQHandler+0x6c2>
        ep->xfer_buff += TxPctSize;
 80020e8:	eb04 0384 	add.w	r3, r4, r4, lsl #2
 80020ec:	eb05 03c3 	add.w	r3, r5, r3, lsl #3
 80020f0:	6bda      	ldr	r2, [r3, #60]	; 0x3c
 80020f2:	4462      	add	r2, ip
 80020f4:	63da      	str	r2, [r3, #60]	; 0x3c
        ep->xfer_count += TxPctSize;
 80020f6:	6c5a      	ldr	r2, [r3, #68]	; 0x44
 80020f8:	4462      	add	r2, ip
 80020fa:	645a      	str	r2, [r3, #68]	; 0x44
        if (ep->xfer_len_db >= ep->maxpacket)
 80020fc:	6c9a      	ldr	r2, [r3, #72]	; 0x48
 80020fe:	6b9b      	ldr	r3, [r3, #56]	; 0x38
 8002100:	429a      	cmp	r2, r3
 8002102:	d345      	bcc.n	8002190 <HAL_PCD_IRQHandler+0x92a>
          ep->xfer_len_db -= len;
 8002104:	eb04 0184 	add.w	r1, r4, r4, lsl #2
 8002108:	eb05 01c1 	add.w	r1, r5, r1, lsl #3
 800210c:	1ad2      	subs	r2, r2, r3
 800210e:	648a      	str	r2, [r1, #72]	; 0x48
        PCD_SET_EP_DBUF1_CNT(hpcd->Instance, ep->num, ep->is_in, len);
 8002110:	682a      	ldr	r2, [r5, #0]
 8002112:	f89a 1029 	ldrb.w	r1, [sl, #41]	; 0x29
 8002116:	2900      	cmp	r1, #0
 8002118:	d163      	bne.n	80021e2 <HAL_PCD_IRQHandler+0x97c>
 800211a:	f8b2 0050 	ldrh.w	r0, [r2, #80]	; 0x50
 800211e:	f89a 1028 	ldrb.w	r1, [sl, #40]	; 0x28
 8002122:	0109      	lsls	r1, r1, #4
 8002124:	f202 420c 	addw	r2, r2, #1036	; 0x40c
 8002128:	fa12 f280 	uxtah	r2, r2, r0
 800212c:	5a88      	ldrh	r0, [r1, r2]
 800212e:	f3c0 0009 	ubfx	r0, r0, #0, #10
 8002132:	5288      	strh	r0, [r1, r2]
 8002134:	2b3e      	cmp	r3, #62	; 0x3e
 8002136:	d93d      	bls.n	80021b4 <HAL_PCD_IRQHandler+0x94e>
 8002138:	ea4f 1c53 	mov.w	ip, r3, lsr #5
 800213c:	f013 0f1f 	tst.w	r3, #31
 8002140:	bf08      	it	eq
 8002142:	f10c 3cff 	addeq.w	ip, ip, #4294967295
 8002146:	5a88      	ldrh	r0, [r1, r2]
 8002148:	b280      	uxth	r0, r0
 800214a:	ea40 208c 	orr.w	r0, r0, ip, lsl #10
 800214e:	ea6f 4040 	mvn.w	r0, r0, lsl #17
 8002152:	ea6f 4050 	mvn.w	r0, r0, lsr #17
 8002156:	b280      	uxth	r0, r0
 8002158:	5288      	strh	r0, [r1, r2]
 800215a:	e044      	b.n	80021e6 <HAL_PCD_IRQHandler+0x980>
      PCD_SET_EP_DBUF0_CNT(hpcd->Instance, ep->num, ep->is_in, 0U);
 800215c:	2b01      	cmp	r3, #1
 800215e:	f040 8157 	bne.w	8002410 <HAL_PCD_IRQHandler+0xbaa>
 8002162:	f8b2 3050 	ldrh.w	r3, [r2, #80]	; 0x50
 8002166:	f202 4204 	addw	r2, r2, #1028	; 0x404
 800216a:	fa12 f383 	uxtah	r3, r2, r3
 800216e:	0109      	lsls	r1, r1, #4
 8002170:	525e      	strh	r6, [r3, r1]
 8002172:	e133      	b.n	80023dc <HAL_PCD_IRQHandler+0xb76>
      PCD_SET_EP_DBUF1_CNT(hpcd->Instance, ep->num, ep->is_in, 0U);
 8002174:	2a01      	cmp	r2, #1
 8002176:	f040 814b 	bne.w	8002410 <HAL_PCD_IRQHandler+0xbaa>
 800217a:	f8b3 2050 	ldrh.w	r2, [r3, #80]	; 0x50
 800217e:	f203 430c 	addw	r3, r3, #1036	; 0x40c
 8002182:	fa13 f282 	uxtah	r2, r3, r2
 8002186:	f89a 3028 	ldrb.w	r3, [sl, #40]	; 0x28
 800218a:	011b      	lsls	r3, r3, #4
 800218c:	52d6      	strh	r6, [r2, r3]
 800218e:	e13f      	b.n	8002410 <HAL_PCD_IRQHandler+0xbaa>
        else if (ep->xfer_len_db == 0U)
 8002190:	b93a      	cbnz	r2, 80021a2 <HAL_PCD_IRQHandler+0x93c>
          ep->xfer_fill_db = 0U;
 8002192:	eb04 0384 	add.w	r3, r4, r4, lsl #2
 8002196:	eb05 03c3 	add.w	r3, r5, r3, lsl #3
 800219a:	f883 604c 	strb.w	r6, [r3, #76]	; 0x4c
          len = TxPctSize;
 800219e:	4663      	mov	r3, ip
 80021a0:	e7b6      	b.n	8002110 <HAL_PCD_IRQHandler+0x8aa>
          ep->xfer_len_db = 0U;
 80021a2:	eb04 0384 	add.w	r3, r4, r4, lsl #2
 80021a6:	eb05 03c3 	add.w	r3, r5, r3, lsl #3
 80021aa:	649e      	str	r6, [r3, #72]	; 0x48
          ep->xfer_fill_db = 0;
 80021ac:	f883 604c 	strb.w	r6, [r3, #76]	; 0x4c
          len = ep->xfer_len_db;
 80021b0:	4613      	mov	r3, r2
 80021b2:	e7ad      	b.n	8002110 <HAL_PCD_IRQHandler+0x8aa>
        PCD_SET_EP_DBUF1_CNT(hpcd->Instance, ep->num, ep->is_in, len);
 80021b4:	b93b      	cbnz	r3, 80021c6 <HAL_PCD_IRQHandler+0x960>
 80021b6:	5a88      	ldrh	r0, [r1, r2]
 80021b8:	ea6f 4040 	mvn.w	r0, r0, lsl #17
 80021bc:	ea6f 4050 	mvn.w	r0, r0, lsr #17
 80021c0:	b280      	uxth	r0, r0
 80021c2:	5288      	strh	r0, [r1, r2]
 80021c4:	e00f      	b.n	80021e6 <HAL_PCD_IRQHandler+0x980>
 80021c6:	ea4f 0c53 	mov.w	ip, r3, lsr #1
 80021ca:	f013 0f01 	tst.w	r3, #1
 80021ce:	bf18      	it	ne
 80021d0:	f10c 0c01 	addne.w	ip, ip, #1
 80021d4:	5a88      	ldrh	r0, [r1, r2]
 80021d6:	b280      	uxth	r0, r0
 80021d8:	ea40 208c 	orr.w	r0, r0, ip, lsl #10
 80021dc:	b280      	uxth	r0, r0
 80021de:	5288      	strh	r0, [r1, r2]
 80021e0:	e001      	b.n	80021e6 <HAL_PCD_IRQHandler+0x980>
 80021e2:	2901      	cmp	r1, #1
 80021e4:	d00b      	beq.n	80021fe <HAL_PCD_IRQHandler+0x998>
        USB_WritePMA(hpcd->Instance, ep->xfer_buff,  ep->pmaaddr1, (uint16_t)len);
 80021e6:	eb04 0284 	add.w	r2, r4, r4, lsl #2
 80021ea:	eb05 02c2 	add.w	r2, r5, r2, lsl #3
 80021ee:	4611      	mov	r1, r2
 80021f0:	b29b      	uxth	r3, r3
 80021f2:	8e52      	ldrh	r2, [r2, #50]	; 0x32
 80021f4:	6bc9      	ldr	r1, [r1, #60]	; 0x3c
 80021f6:	6828      	ldr	r0, [r5, #0]
 80021f8:	f001 ffce 	bl	8004198 <USB_WritePMA>
 80021fc:	e694      	b.n	8001f28 <HAL_PCD_IRQHandler+0x6c2>
        PCD_SET_EP_DBUF1_CNT(hpcd->Instance, ep->num, ep->is_in, len);
 80021fe:	f8b2 1050 	ldrh.w	r1, [r2, #80]	; 0x50
 8002202:	f89a 0028 	ldrb.w	r0, [sl, #40]	; 0x28
 8002206:	0100      	lsls	r0, r0, #4
 8002208:	f202 420c 	addw	r2, r2, #1036	; 0x40c
 800220c:	fa12 f281 	uxtah	r2, r2, r1
 8002210:	b299      	uxth	r1, r3
 8002212:	5281      	strh	r1, [r0, r2]
 8002214:	e7e7      	b.n	80021e6 <HAL_PCD_IRQHandler+0x980>
    __HAL_PCD_CLEAR_FLAG(hpcd, USB_ISTR_RESET);
 8002216:	682a      	ldr	r2, [r5, #0]
 8002218:	f8b2 3044 	ldrh.w	r3, [r2, #68]	; 0x44
 800221c:	f423 6380 	bic.w	r3, r3, #1024	; 0x400
 8002220:	041b      	lsls	r3, r3, #16
 8002222:	0c1b      	lsrs	r3, r3, #16
 8002224:	f8a2 3044 	strh.w	r3, [r2, #68]	; 0x44
    HAL_PCD_ResetCallback(hpcd);
 8002228:	4628      	mov	r0, r5
 800222a:	f003 fb4a 	bl	80058c2 <HAL_PCD_ResetCallback>
    (void)HAL_PCD_SetAddress(hpcd, 0U);
 800222e:	2100      	movs	r1, #0
 8002230:	4628      	mov	r0, r5
 8002232:	f7ff fb04 	bl	800183e <HAL_PCD_SetAddress>
    return;
 8002236:	e008      	b.n	800224a <HAL_PCD_IRQHandler+0x9e4>
    __HAL_PCD_CLEAR_FLAG(hpcd, USB_ISTR_PMAOVR);
 8002238:	682a      	ldr	r2, [r5, #0]
 800223a:	f8b2 3044 	ldrh.w	r3, [r2, #68]	; 0x44
 800223e:	f423 4380 	bic.w	r3, r3, #16384	; 0x4000
 8002242:	041b      	lsls	r3, r3, #16
 8002244:	0c1b      	lsrs	r3, r3, #16
 8002246:	f8a2 3044 	strh.w	r3, [r2, #68]	; 0x44
}
 800224a:	e8bd 87f0 	ldmia.w	sp!, {r4, r5, r6, r7, r8, r9, sl, pc}
    __HAL_PCD_CLEAR_FLAG(hpcd, USB_ISTR_ERR);
 800224e:	682a      	ldr	r2, [r5, #0]
 8002250:	f8b2 3044 	ldrh.w	r3, [r2, #68]	; 0x44
 8002254:	f423 5300 	bic.w	r3, r3, #8192	; 0x2000
 8002258:	041b      	lsls	r3, r3, #16
 800225a:	0c1b      	lsrs	r3, r3, #16
 800225c:	f8a2 3044 	strh.w	r3, [r2, #68]	; 0x44
    return;
 8002260:	e7f3      	b.n	800224a <HAL_PCD_IRQHandler+0x9e4>
    hpcd->Instance->CNTR &= (uint16_t) ~(USB_CNTR_LPMODE);
 8002262:	682a      	ldr	r2, [r5, #0]
 8002264:	f8b2 3040 	ldrh.w	r3, [r2, #64]	; 0x40
 8002268:	f023 0304 	bic.w	r3, r3, #4
 800226c:	041b      	lsls	r3, r3, #16
 800226e:	0c1b      	lsrs	r3, r3, #16
 8002270:	f8a2 3040 	strh.w	r3, [r2, #64]	; 0x40
    hpcd->Instance->CNTR &= (uint16_t) ~(USB_CNTR_FSUSP);
 8002274:	682a      	ldr	r2, [r5, #0]
 8002276:	f8b2 3040 	ldrh.w	r3, [r2, #64]	; 0x40
 800227a:	f023 0308 	bic.w	r3, r3, #8
 800227e:	041b      	lsls	r3, r3, #16
 8002280:	0c1b      	lsrs	r3, r3, #16
 8002282:	f8a2 3040 	strh.w	r3, [r2, #64]	; 0x40
    HAL_PCD_ResumeCallback(hpcd);
 8002286:	4628      	mov	r0, r5
 8002288:	f003 fb3e 	bl	8005908 <HAL_PCD_ResumeCallback>
    __HAL_PCD_CLEAR_FLAG(hpcd, USB_ISTR_WKUP);
 800228c:	682a      	ldr	r2, [r5, #0]
 800228e:	f8b2 3044 	ldrh.w	r3, [r2, #68]	; 0x44
 8002292:	f423 5380 	bic.w	r3, r3, #4096	; 0x1000
 8002296:	041b      	lsls	r3, r3, #16
 8002298:	0c1b      	lsrs	r3, r3, #16
 800229a:	f8a2 3044 	strh.w	r3, [r2, #68]	; 0x44
    return;
 800229e:	e7d4      	b.n	800224a <HAL_PCD_IRQHandler+0x9e4>
    hpcd->Instance->CNTR |= (uint16_t)USB_CNTR_FSUSP;
 80022a0:	682a      	ldr	r2, [r5, #0]
 80022a2:	f8b2 3040 	ldrh.w	r3, [r2, #64]	; 0x40
 80022a6:	b29b      	uxth	r3, r3
 80022a8:	f043 0308 	orr.w	r3, r3, #8
 80022ac:	f8a2 3040 	strh.w	r3, [r2, #64]	; 0x40
    __HAL_PCD_CLEAR_FLAG(hpcd, USB_ISTR_SUSP);
 80022b0:	682a      	ldr	r2, [r5, #0]
 80022b2:	f8b2 3044 	ldrh.w	r3, [r2, #68]	; 0x44
 80022b6:	f423 6300 	bic.w	r3, r3, #2048	; 0x800
 80022ba:	041b      	lsls	r3, r3, #16
 80022bc:	0c1b      	lsrs	r3, r3, #16
 80022be:	f8a2 3044 	strh.w	r3, [r2, #68]	; 0x44
    hpcd->Instance->CNTR |= (uint16_t)USB_CNTR_LPMODE;
 80022c2:	682a      	ldr	r2, [r5, #0]
 80022c4:	f8b2 3040 	ldrh.w	r3, [r2, #64]	; 0x40
 80022c8:	b29b      	uxth	r3, r3
 80022ca:	f043 0304 	orr.w	r3, r3, #4
 80022ce:	f8a2 3040 	strh.w	r3, [r2, #64]	; 0x40
    HAL_PCD_SuspendCallback(hpcd);
 80022d2:	4628      	mov	r0, r5
 80022d4:	f003 fb08 	bl	80058e8 <HAL_PCD_SuspendCallback>
    return;
 80022d8:	e7b7      	b.n	800224a <HAL_PCD_IRQHandler+0x9e4>
    __HAL_PCD_CLEAR_FLAG(hpcd, USB_ISTR_SOF);
 80022da:	682a      	ldr	r2, [r5, #0]
 80022dc:	f8b2 3044 	ldrh.w	r3, [r2, #68]	; 0x44
 80022e0:	f423 7300 	bic.w	r3, r3, #512	; 0x200
 80022e4:	041b      	lsls	r3, r3, #16
 80022e6:	0c1b      	lsrs	r3, r3, #16
 80022e8:	f8a2 3044 	strh.w	r3, [r2, #68]	; 0x44
    HAL_PCD_SOFCallback(hpcd);
 80022ec:	4628      	mov	r0, r5
 80022ee:	f003 fae2 	bl	80058b6 <HAL_PCD_SOFCallback>
    return;
 80022f2:	e7aa      	b.n	800224a <HAL_PCD_IRQHandler+0x9e4>
 80022f4:	eb04 0484 	add.w	r4, r4, r4, lsl #2
 80022f8:	eb05 04c4 	add.w	r4, r5, r4, lsl #3
 80022fc:	6426      	str	r6, [r4, #64]	; 0x40
              HAL_PCD_DataInStageCallback(hpcd, ep->num);
 80022fe:	4628      	mov	r0, r5
 8002300:	f003 face 	bl	80058a0 <HAL_PCD_DataInStageCallback>
 8002304:	f7ff bb3e 	b.w	8001984 <HAL_PCD_IRQHandler+0x11e>
 8002308:	eb04 0484 	add.w	r4, r4, r4, lsl #2
 800230c:	eb05 03c4 	add.w	r3, r5, r4, lsl #3
 8002310:	641e      	str	r6, [r3, #64]	; 0x40
      PCD_SET_EP_DBUF0_CNT(hpcd->Instance, ep->num, ep->is_in, 0U);
 8002312:	f89a 3029 	ldrb.w	r3, [sl, #41]	; 0x29
 8002316:	2b00      	cmp	r3, #0
 8002318:	f47f ae16 	bne.w	8001f48 <HAL_PCD_IRQHandler+0x6e2>
 800231c:	f8b2 3050 	ldrh.w	r3, [r2, #80]	; 0x50
 8002320:	f202 4204 	addw	r2, r2, #1028	; 0x404
 8002324:	fa12 f283 	uxtah	r2, r2, r3
 8002328:	0109      	lsls	r1, r1, #4
 800232a:	5a53      	ldrh	r3, [r2, r1]
 800232c:	f3c3 0309 	ubfx	r3, r3, #0, #10
 8002330:	5253      	strh	r3, [r2, r1]
 8002332:	5a53      	ldrh	r3, [r2, r1]
 8002334:	ea6f 4343 	mvn.w	r3, r3, lsl #17
 8002338:	ea6f 4353 	mvn.w	r3, r3, lsr #17
 800233c:	b29b      	uxth	r3, r3
 800233e:	5253      	strh	r3, [r2, r1]
      PCD_SET_EP_DBUF1_CNT(hpcd->Instance, ep->num, ep->is_in, 0U);
 8002340:	682b      	ldr	r3, [r5, #0]
 8002342:	f89a 2029 	ldrb.w	r2, [sl, #41]	; 0x29
 8002346:	2a00      	cmp	r2, #0
 8002348:	f47f ae0a 	bne.w	8001f60 <HAL_PCD_IRQHandler+0x6fa>
 800234c:	f8b3 2050 	ldrh.w	r2, [r3, #80]	; 0x50
 8002350:	f89a 1028 	ldrb.w	r1, [sl, #40]	; 0x28
 8002354:	0109      	lsls	r1, r1, #4
 8002356:	f203 430c 	addw	r3, r3, #1036	; 0x40c
 800235a:	fa13 f282 	uxtah	r2, r3, r2
 800235e:	5a8b      	ldrh	r3, [r1, r2]
 8002360:	f3c3 0309 	ubfx	r3, r3, #0, #10
 8002364:	528b      	strh	r3, [r1, r2]
 8002366:	5a8b      	ldrh	r3, [r1, r2]
 8002368:	ea6f 4343 	mvn.w	r3, r3, lsl #17
 800236c:	ea6f 4353 	mvn.w	r3, r3, lsr #17
 8002370:	b29b      	uxth	r3, r3
 8002372:	528b      	strh	r3, [r1, r2]
      HAL_PCD_DataInStageCallback(hpcd, ep->num);
 8002374:	f89a 1028 	ldrb.w	r1, [sl, #40]	; 0x28
 8002378:	4628      	mov	r0, r5
 800237a:	f003 fa91 	bl	80058a0 <HAL_PCD_DataInStageCallback>
      if ((wEPVal & USB_EP_DTOG_RX) != 0U)
 800237e:	f419 4f80 	tst.w	r9, #16384	; 0x4000
 8002382:	f43f add1 	beq.w	8001f28 <HAL_PCD_IRQHandler+0x6c2>
        PCD_FREE_USER_BUFFER(hpcd->Instance, ep->num, 1U);
 8002386:	f89a 1028 	ldrb.w	r1, [sl, #40]	; 0x28
 800238a:	682a      	ldr	r2, [r5, #0]
 800238c:	f832 3021 	ldrh.w	r3, [r2, r1, lsl #2]
 8002390:	b29b      	uxth	r3, r3
 8002392:	f423 43e0 	bic.w	r3, r3, #28672	; 0x7000
 8002396:	f023 0370 	bic.w	r3, r3, #112	; 0x70
 800239a:	ea48 0303 	orr.w	r3, r8, r3
 800239e:	f822 3021 	strh.w	r3, [r2, r1, lsl #2]
 80023a2:	e5c1      	b.n	8001f28 <HAL_PCD_IRQHandler+0x6c2>
 80023a4:	eb04 0484 	add.w	r4, r4, r4, lsl #2
 80023a8:	eb05 03c4 	add.w	r3, r5, r4, lsl #3
 80023ac:	641e      	str	r6, [r3, #64]	; 0x40
      PCD_SET_EP_DBUF0_CNT(hpcd->Instance, ep->num, ep->is_in, 0U);
 80023ae:	f89a 3029 	ldrb.w	r3, [sl, #41]	; 0x29
 80023b2:	2b00      	cmp	r3, #0
 80023b4:	f47f aed2 	bne.w	800215c <HAL_PCD_IRQHandler+0x8f6>
 80023b8:	f8b2 3050 	ldrh.w	r3, [r2, #80]	; 0x50
 80023bc:	f202 4204 	addw	r2, r2, #1028	; 0x404
 80023c0:	fa12 f283 	uxtah	r2, r2, r3
 80023c4:	0109      	lsls	r1, r1, #4
 80023c6:	5a53      	ldrh	r3, [r2, r1]
 80023c8:	f3c3 0309 	ubfx	r3, r3, #0, #10
 80023cc:	5253      	strh	r3, [r2, r1]
 80023ce:	5a53      	ldrh	r3, [r2, r1]
 80023d0:	ea6f 4343 	mvn.w	r3, r3, lsl #17
 80023d4:	ea6f 4353 	mvn.w	r3, r3, lsr #17
 80023d8:	b29b      	uxth	r3, r3
 80023da:	5253      	strh	r3, [r2, r1]
      PCD_SET_EP_DBUF1_CNT(hpcd->Instance, ep->num, ep->is_in, 0U);
 80023dc:	682b      	ldr	r3, [r5, #0]
 80023de:	f89a 2029 	ldrb.w	r2, [sl, #41]	; 0x29
 80023e2:	2a00      	cmp	r2, #0
 80023e4:	f47f aec6 	bne.w	8002174 <HAL_PCD_IRQHandler+0x90e>
 80023e8:	f8b3 2050 	ldrh.w	r2, [r3, #80]	; 0x50
 80023ec:	f89a 1028 	ldrb.w	r1, [sl, #40]	; 0x28
 80023f0:	0109      	lsls	r1, r1, #4
 80023f2:	f203 430c 	addw	r3, r3, #1036	; 0x40c
 80023f6:	fa13 f282 	uxtah	r2, r3, r2
 80023fa:	5a8b      	ldrh	r3, [r1, r2]
 80023fc:	f3c3 0309 	ubfx	r3, r3, #0, #10
 8002400:	528b      	strh	r3, [r1, r2]
 8002402:	5a8b      	ldrh	r3, [r1, r2]
 8002404:	ea6f 4343 	mvn.w	r3, r3, lsl #17
 8002408:	ea6f 4353 	mvn.w	r3, r3, lsr #17
 800240c:	b29b      	uxth	r3, r3
 800240e:	528b      	strh	r3, [r1, r2]
      HAL_PCD_DataInStageCallback(hpcd, ep->num);
 8002410:	f89a 1028 	ldrb.w	r1, [sl, #40]	; 0x28
 8002414:	4628      	mov	r0, r5
 8002416:	f003 fa43 	bl	80058a0 <HAL_PCD_DataInStageCallback>
      if ((wEPVal & USB_EP_DTOG_RX) == 0U)
 800241a:	f419 4f80 	tst.w	r9, #16384	; 0x4000
 800241e:	f47f ad83 	bne.w	8001f28 <HAL_PCD_IRQHandler+0x6c2>
        PCD_FREE_USER_BUFFER(hpcd->Instance, ep->num, 1U);
 8002422:	f89a 1028 	ldrb.w	r1, [sl, #40]	; 0x28
 8002426:	682a      	ldr	r2, [r5, #0]
 8002428:	f832 3021 	ldrh.w	r3, [r2, r1, lsl #2]
 800242c:	b29b      	uxth	r3, r3
 800242e:	f423 43e0 	bic.w	r3, r3, #28672	; 0x7000
 8002432:	f023 0370 	bic.w	r3, r3, #112	; 0x70
 8002436:	ea48 0303 	orr.w	r3, r8, r3
 800243a:	f822 3021 	strh.w	r3, [r2, r1, lsl #2]
 800243e:	e573      	b.n	8001f28 <HAL_PCD_IRQHandler+0x6c2>
 8002440:	eb04 0384 	add.w	r3, r4, r4, lsl #2
 8002444:	eb05 03c3 	add.w	r3, r5, r3, lsl #3
 8002448:	f8c3 6180 	str.w	r6, [r3, #384]	; 0x180
      PCD_SET_EP_RX_STATUS(hpcd->Instance, ep->num, USB_EP_RX_NAK);
 800244c:	f832 3021 	ldrh.w	r3, [r2, r1, lsl #2]
 8002450:	b29b      	uxth	r3, r3
 8002452:	f423 4380 	bic.w	r3, r3, #16384	; 0x4000
 8002456:	f023 0370 	bic.w	r3, r3, #112	; 0x70
 800245a:	f483 5300 	eor.w	r3, r3, #8192	; 0x2000
 800245e:	433b      	orrs	r3, r7
 8002460:	f822 3021 	strh.w	r3, [r2, r1, lsl #2]
 8002464:	e432      	b.n	8001ccc <HAL_PCD_IRQHandler+0x466>
 8002466:	eb04 0384 	add.w	r3, r4, r4, lsl #2
 800246a:	eb05 03c3 	add.w	r3, r5, r3, lsl #3
 800246e:	f8c3 6180 	str.w	r6, [r3, #384]	; 0x180
      PCD_SET_EP_RX_STATUS(hpcd->Instance, ep->num, USB_EP_RX_NAK);
 8002472:	f832 3021 	ldrh.w	r3, [r2, r1, lsl #2]
 8002476:	b29b      	uxth	r3, r3
 8002478:	f423 4380 	bic.w	r3, r3, #16384	; 0x4000
 800247c:	f023 0370 	bic.w	r3, r3, #112	; 0x70
 8002480:	f483 5300 	eor.w	r3, r3, #8192	; 0x2000
 8002484:	433b      	orrs	r3, r7
 8002486:	f822 3021 	strh.w	r3, [r2, r1, lsl #2]
 800248a:	e46a      	b.n	8001d62 <HAL_PCD_IRQHandler+0x4fc>

0800248c <HAL_PCD_EP_Open>:
{
 800248c:	b510      	push	{r4, lr}
 800248e:	4604      	mov	r4, r0
 8002490:	4608      	mov	r0, r1
  if ((ep_addr & 0x80U) == 0x80U)
 8002492:	f011 0f80 	tst.w	r1, #128	; 0x80
 8002496:	d123      	bne.n	80024e0 <HAL_PCD_EP_Open+0x54>
    ep = &hpcd->OUT_ep[ep_addr & EP_ADDR_MSK];
 8002498:	f001 0c07 	and.w	ip, r1, #7
 800249c:	eb0c 018c 	add.w	r1, ip, ip, lsl #2
 80024a0:	eb04 0ec1 	add.w	lr, r4, r1, lsl #3
 80024a4:	f50e 71b4 	add.w	r1, lr, #360	; 0x168
    ep->is_in = 0U;
 80024a8:	46f4      	mov	ip, lr
 80024aa:	f04f 0e00 	mov.w	lr, #0
 80024ae:	f88c e169 	strb.w	lr, [ip, #361]	; 0x169
  ep->num = ep_addr & EP_ADDR_MSK;
 80024b2:	f000 0007 	and.w	r0, r0, #7
 80024b6:	7008      	strb	r0, [r1, #0]
  ep->maxpacket = ep_mps;
 80024b8:	610a      	str	r2, [r1, #16]
  ep->type = ep_type;
 80024ba:	70cb      	strb	r3, [r1, #3]
  if (ep_type == EP_TYPE_BULK)
 80024bc:	2b02      	cmp	r3, #2
    ep->data_pid_start = 0U;
 80024be:	bf04      	itt	eq
 80024c0:	2300      	moveq	r3, #0
 80024c2:	710b      	strbeq	r3, [r1, #4]
  __HAL_LOCK(hpcd);
 80024c4:	f894 32a8 	ldrb.w	r3, [r4, #680]	; 0x2a8
 80024c8:	2b01      	cmp	r3, #1
 80024ca:	d016      	beq.n	80024fa <HAL_PCD_EP_Open+0x6e>
 80024cc:	2301      	movs	r3, #1
 80024ce:	f884 32a8 	strb.w	r3, [r4, #680]	; 0x2a8
  (void)USB_ActivateEndpoint(hpcd->Instance, ep);
 80024d2:	6820      	ldr	r0, [r4, #0]
 80024d4:	f001 fb2d 	bl	8003b32 <USB_ActivateEndpoint>
  __HAL_UNLOCK(hpcd);
 80024d8:	2000      	movs	r0, #0
 80024da:	f884 02a8 	strb.w	r0, [r4, #680]	; 0x2a8
}
 80024de:	bd10      	pop	{r4, pc}
    ep = &hpcd->IN_ep[ep_addr & EP_ADDR_MSK];
 80024e0:	f001 0c07 	and.w	ip, r1, #7
 80024e4:	f10c 0c01 	add.w	ip, ip, #1
 80024e8:	eb0c 018c 	add.w	r1, ip, ip, lsl #2
 80024ec:	eb04 01c1 	add.w	r1, r4, r1, lsl #3
    ep->is_in = 1U;
 80024f0:	f04f 0e01 	mov.w	lr, #1
 80024f4:	f881 e001 	strb.w	lr, [r1, #1]
 80024f8:	e7db      	b.n	80024b2 <HAL_PCD_EP_Open+0x26>
  __HAL_LOCK(hpcd);
 80024fa:	2002      	movs	r0, #2
 80024fc:	e7ef      	b.n	80024de <HAL_PCD_EP_Open+0x52>

080024fe <HAL_PCD_EP_Close>:
{
 80024fe:	b510      	push	{r4, lr}
 8002500:	4604      	mov	r4, r0
 8002502:	460b      	mov	r3, r1
  if ((ep_addr & 0x80U) == 0x80U)
 8002504:	f011 0f80 	tst.w	r1, #128	; 0x80
 8002508:	d11f      	bne.n	800254a <HAL_PCD_EP_Close+0x4c>
    ep = &hpcd->OUT_ep[ep_addr & EP_ADDR_MSK];
 800250a:	f001 0207 	and.w	r2, r1, #7
 800250e:	eb02 0182 	add.w	r1, r2, r2, lsl #2
 8002512:	eb00 01c1 	add.w	r1, r0, r1, lsl #3
 8002516:	f501 71b4 	add.w	r1, r1, #360	; 0x168
    ep->is_in = 0U;
 800251a:	eb02 0282 	add.w	r2, r2, r2, lsl #2
 800251e:	eb00 02c2 	add.w	r2, r0, r2, lsl #3
 8002522:	2000      	movs	r0, #0
 8002524:	f882 0169 	strb.w	r0, [r2, #361]	; 0x169
  ep->num = ep_addr & EP_ADDR_MSK;
 8002528:	f003 0307 	and.w	r3, r3, #7
 800252c:	700b      	strb	r3, [r1, #0]
  __HAL_LOCK(hpcd);
 800252e:	f894 32a8 	ldrb.w	r3, [r4, #680]	; 0x2a8
 8002532:	2b01      	cmp	r3, #1
 8002534:	d013      	beq.n	800255e <HAL_PCD_EP_Close+0x60>
 8002536:	2301      	movs	r3, #1
 8002538:	f884 32a8 	strb.w	r3, [r4, #680]	; 0x2a8
  (void)USB_DeactivateEndpoint(hpcd->Instance, ep);
 800253c:	6820      	ldr	r0, [r4, #0]
 800253e:	f001 fcc0 	bl	8003ec2 <USB_DeactivateEndpoint>
  __HAL_UNLOCK(hpcd);
 8002542:	2000      	movs	r0, #0
 8002544:	f884 02a8 	strb.w	r0, [r4, #680]	; 0x2a8
}
 8002548:	bd10      	pop	{r4, pc}
    ep = &hpcd->IN_ep[ep_addr & EP_ADDR_MSK];
 800254a:	f001 0207 	and.w	r2, r1, #7
 800254e:	3201      	adds	r2, #1
 8002550:	eb02 0182 	add.w	r1, r2, r2, lsl #2
 8002554:	eb00 01c1 	add.w	r1, r0, r1, lsl #3
    ep->is_in = 1U;
 8002558:	2001      	movs	r0, #1
 800255a:	7048      	strb	r0, [r1, #1]
 800255c:	e7e4      	b.n	8002528 <HAL_PCD_EP_Close+0x2a>
  __HAL_LOCK(hpcd);
 800255e:	2002      	movs	r0, #2
 8002560:	e7f2      	b.n	8002548 <HAL_PCD_EP_Close+0x4a>

08002562 <HAL_PCD_EP_Receive>:
{
 8002562:	b510      	push	{r4, lr}
  ep = &hpcd->OUT_ep[ep_addr & EP_ADDR_MSK];
 8002564:	f001 0107 	and.w	r1, r1, #7
  ep->xfer_buff = pBuf;
 8002568:	eb01 0c81 	add.w	ip, r1, r1, lsl #2
 800256c:	eb00 0ccc 	add.w	ip, r0, ip, lsl #3
 8002570:	f8cc 217c 	str.w	r2, [ip, #380]	; 0x17c
  ep->xfer_len = len;
 8002574:	f8cc 3180 	str.w	r3, [ip, #384]	; 0x180
  ep->xfer_count = 0U;
 8002578:	2400      	movs	r4, #0
 800257a:	f8cc 4184 	str.w	r4, [ip, #388]	; 0x184
  ep->is_in = 0U;
 800257e:	f88c 4169 	strb.w	r4, [ip, #361]	; 0x169
  ep->num = ep_addr & EP_ADDR_MSK;
 8002582:	f88c 1168 	strb.w	r1, [ip, #360]	; 0x168
  (void)USB_EPStartXfer(hpcd->Instance, ep);
 8002586:	f50c 71b4 	add.w	r1, ip, #360	; 0x168
 800258a:	6800      	ldr	r0, [r0, #0]
 800258c:	f001 fe1b 	bl	80041c6 <USB_EPStartXfer>
}
 8002590:	4620      	mov	r0, r4
 8002592:	bd10      	pop	{r4, pc}

08002594 <HAL_PCD_EP_GetRxCount>:
  return hpcd->OUT_ep[ep_addr & EP_ADDR_MSK].xfer_count;
 8002594:	f001 0107 	and.w	r1, r1, #7
 8002598:	eb01 0181 	add.w	r1, r1, r1, lsl #2
 800259c:	eb00 00c1 	add.w	r0, r0, r1, lsl #3
}
 80025a0:	f8d0 0184 	ldr.w	r0, [r0, #388]	; 0x184
 80025a4:	4770      	bx	lr

080025a6 <HAL_PCD_EP_Transmit>:
{
 80025a6:	b510      	push	{r4, lr}
  ep = &hpcd->IN_ep[ep_addr & EP_ADDR_MSK];
 80025a8:	f001 0107 	and.w	r1, r1, #7
  ep->xfer_buff = pBuf;
 80025ac:	eb01 0c81 	add.w	ip, r1, r1, lsl #2
 80025b0:	eb00 0ccc 	add.w	ip, r0, ip, lsl #3
 80025b4:	f8cc 203c 	str.w	r2, [ip, #60]	; 0x3c
  ep->xfer_len = len;
 80025b8:	f8cc 3040 	str.w	r3, [ip, #64]	; 0x40
  ep->xfer_fill_db = 1U;
 80025bc:	2201      	movs	r2, #1
 80025be:	f88c 204c 	strb.w	r2, [ip, #76]	; 0x4c
  ep->xfer_len_db = len;
 80025c2:	f8cc 3048 	str.w	r3, [ip, #72]	; 0x48
  ep->xfer_count = 0U;
 80025c6:	2400      	movs	r4, #0
 80025c8:	f8cc 4044 	str.w	r4, [ip, #68]	; 0x44
  ep->is_in = 1U;
 80025cc:	f88c 2029 	strb.w	r2, [ip, #41]	; 0x29
  ep->num = ep_addr & EP_ADDR_MSK;
 80025d0:	f88c 1028 	strb.w	r1, [ip, #40]	; 0x28
  ep = &hpcd->IN_ep[ep_addr & EP_ADDR_MSK];
 80025d4:	4411      	add	r1, r2
 80025d6:	eb01 0181 	add.w	r1, r1, r1, lsl #2
  (void)USB_EPStartXfer(hpcd->Instance, ep);
 80025da:	eb00 01c1 	add.w	r1, r0, r1, lsl #3
 80025de:	6800      	ldr	r0, [r0, #0]
 80025e0:	f001 fdf1 	bl	80041c6 <USB_EPStartXfer>
}
 80025e4:	4620      	mov	r0, r4
 80025e6:	bd10      	pop	{r4, pc}

080025e8 <HAL_PCD_EP_SetStall>:
{
 80025e8:	460b      	mov	r3, r1
  if (((uint32_t)ep_addr & EP_ADDR_MSK) > hpcd->Init.dev_endpoints)
 80025ea:	f001 0207 	and.w	r2, r1, #7
 80025ee:	6841      	ldr	r1, [r0, #4]
 80025f0:	428a      	cmp	r2, r1
 80025f2:	d82a      	bhi.n	800264a <HAL_PCD_EP_SetStall+0x62>
{
 80025f4:	b510      	push	{r4, lr}
 80025f6:	4604      	mov	r4, r0
  if ((0x80U & ep_addr) == 0x80U)
 80025f8:	f013 0f80 	tst.w	r3, #128	; 0x80
 80025fc:	d11d      	bne.n	800263a <HAL_PCD_EP_SetStall+0x52>
    ep = &hpcd->OUT_ep[ep_addr];
 80025fe:	eb03 0183 	add.w	r1, r3, r3, lsl #2
 8002602:	eb00 01c1 	add.w	r1, r0, r1, lsl #3
 8002606:	f501 71b4 	add.w	r1, r1, #360	; 0x168
    ep->is_in = 0U;
 800260a:	eb03 0383 	add.w	r3, r3, r3, lsl #2
 800260e:	eb00 03c3 	add.w	r3, r0, r3, lsl #3
 8002612:	2000      	movs	r0, #0
 8002614:	f883 0169 	strb.w	r0, [r3, #361]	; 0x169
  ep->is_stall = 1U;
 8002618:	2301      	movs	r3, #1
 800261a:	708b      	strb	r3, [r1, #2]
  ep->num = ep_addr & EP_ADDR_MSK;
 800261c:	700a      	strb	r2, [r1, #0]
  __HAL_LOCK(hpcd);
 800261e:	f894 32a8 	ldrb.w	r3, [r4, #680]	; 0x2a8
 8002622:	2b01      	cmp	r3, #1
 8002624:	d013      	beq.n	800264e <HAL_PCD_EP_SetStall+0x66>
 8002626:	2301      	movs	r3, #1
 8002628:	f884 32a8 	strb.w	r3, [r4, #680]	; 0x2a8
  (void)USB_EPSetStall(hpcd->Instance, ep);
 800262c:	6820      	ldr	r0, [r4, #0]
 800262e:	f001 fd31 	bl	8004094 <USB_EPSetStall>
  __HAL_UNLOCK(hpcd);
 8002632:	2000      	movs	r0, #0
 8002634:	f884 02a8 	strb.w	r0, [r4, #680]	; 0x2a8
}
 8002638:	bd10      	pop	{r4, pc}
    ep = &hpcd->IN_ep[ep_addr & EP_ADDR_MSK];
 800263a:	1c53      	adds	r3, r2, #1
 800263c:	eb03 0183 	add.w	r1, r3, r3, lsl #2
 8002640:	eb00 01c1 	add.w	r1, r0, r1, lsl #3
    ep->is_in = 1U;
 8002644:	2001      	movs	r0, #1
 8002646:	7048      	strb	r0, [r1, #1]
 8002648:	e7e6      	b.n	8002618 <HAL_PCD_EP_SetStall+0x30>
    return HAL_ERROR;
 800264a:	2001      	movs	r0, #1
}
 800264c:	4770      	bx	lr
  __HAL_LOCK(hpcd);
 800264e:	2002      	movs	r0, #2
 8002650:	e7f2      	b.n	8002638 <HAL_PCD_EP_SetStall+0x50>

08002652 <HAL_PCD_EP_ClrStall>:
{
 8002652:	460b      	mov	r3, r1
  if (((uint32_t)ep_addr & 0x0FU) > hpcd->Init.dev_endpoints)
 8002654:	f001 010f 	and.w	r1, r1, #15
 8002658:	6842      	ldr	r2, [r0, #4]
 800265a:	4291      	cmp	r1, r2
 800265c:	d830      	bhi.n	80026c0 <HAL_PCD_EP_ClrStall+0x6e>
{
 800265e:	b510      	push	{r4, lr}
 8002660:	4604      	mov	r4, r0
  if ((0x80U & ep_addr) == 0x80U)
 8002662:	f013 0f80 	tst.w	r3, #128	; 0x80
 8002666:	d121      	bne.n	80026ac <HAL_PCD_EP_ClrStall+0x5a>
    ep = &hpcd->OUT_ep[ep_addr & EP_ADDR_MSK];
 8002668:	f003 0207 	and.w	r2, r3, #7
 800266c:	eb02 0182 	add.w	r1, r2, r2, lsl #2
 8002670:	eb00 01c1 	add.w	r1, r0, r1, lsl #3
 8002674:	f501 71b4 	add.w	r1, r1, #360	; 0x168
    ep->is_in = 0U;
 8002678:	eb02 0282 	add.w	r2, r2, r2, lsl #2
 800267c:	eb00 02c2 	add.w	r2, r0, r2, lsl #3
 8002680:	2000      	movs	r0, #0
 8002682:	f882 0169 	strb.w	r0, [r2, #361]	; 0x169
  ep->is_stall = 0U;
 8002686:	2200      	movs	r2, #0
 8002688:	708a      	strb	r2, [r1, #2]
  ep->num = ep_addr & EP_ADDR_MSK;
 800268a:	f003 0307 	and.w	r3, r3, #7
 800268e:	700b      	strb	r3, [r1, #0]
  __HAL_LOCK(hpcd);
 8002690:	f894 32a8 	ldrb.w	r3, [r4, #680]	; 0x2a8
 8002694:	2b01      	cmp	r3, #1
 8002696:	d015      	beq.n	80026c4 <HAL_PCD_EP_ClrStall+0x72>
 8002698:	2301      	movs	r3, #1
 800269a:	f884 32a8 	strb.w	r3, [r4, #680]	; 0x2a8
  (void)USB_EPClearStall(hpcd->Instance, ep);
 800269e:	6820      	ldr	r0, [r4, #0]
 80026a0:	f001 fd1d 	bl	80040de <USB_EPClearStall>
  __HAL_UNLOCK(hpcd);
 80026a4:	2000      	movs	r0, #0
 80026a6:	f884 02a8 	strb.w	r0, [r4, #680]	; 0x2a8
}
 80026aa:	bd10      	pop	{r4, pc}
    ep = &hpcd->IN_ep[ep_addr & EP_ADDR_MSK];
 80026ac:	f003 0207 	and.w	r2, r3, #7
 80026b0:	3201      	adds	r2, #1
 80026b2:	eb02 0182 	add.w	r1, r2, r2, lsl #2
 80026b6:	eb00 01c1 	add.w	r1, r0, r1, lsl #3
    ep->is_in = 1U;
 80026ba:	2001      	movs	r0, #1
 80026bc:	7048      	strb	r0, [r1, #1]
 80026be:	e7e2      	b.n	8002686 <HAL_PCD_EP_ClrStall+0x34>
    return HAL_ERROR;
 80026c0:	2001      	movs	r0, #1
}
 80026c2:	4770      	bx	lr
  __HAL_LOCK(hpcd);
 80026c4:	2002      	movs	r0, #2
 80026c6:	e7f0      	b.n	80026aa <HAL_PCD_EP_ClrStall+0x58>

080026c8 <HAL_PCDEx_PMAConfig>:
                                       uint16_t ep_kind, uint32_t pmaadress)
{
  PCD_EPTypeDef *ep;

  /* initialize ep structure*/
  if ((0x80U & ep_addr) == 0x80U)
 80026c8:	f011 0f80 	tst.w	r1, #128	; 0x80
 80026cc:	d00b      	beq.n	80026e6 <HAL_PCDEx_PMAConfig+0x1e>
  {
    ep = &hpcd->IN_ep[ep_addr & EP_ADDR_MSK];
 80026ce:	f001 0107 	and.w	r1, r1, #7
 80026d2:	3101      	adds	r1, #1
 80026d4:	eb01 0181 	add.w	r1, r1, r1, lsl #2
 80026d8:	eb00 00c1 	add.w	r0, r0, r1, lsl #3
  {
    ep = &hpcd->OUT_ep[ep_addr];
  }

  /* Here we check if the endpoint is single or double Buffer*/
  if (ep_kind == PCD_SNG_BUF)
 80026dc:	b952      	cbnz	r2, 80026f4 <HAL_PCDEx_PMAConfig+0x2c>
  {
    /* Single Buffer */
    ep->doublebuffer = 0U;
 80026de:	7302      	strb	r2, [r0, #12]
    /* Configure the PMA */
    ep->pmaadress = (uint16_t)pmaadress;
 80026e0:	80c3      	strh	r3, [r0, #6]
    ep->pmaaddr1 = (uint16_t)((pmaadress & 0xFFFF0000U) >> 16);
  }
#endif /* (USE_USB_DOUBLE_BUFFER == 1U) */

  return HAL_OK;
}
 80026e2:	2000      	movs	r0, #0
 80026e4:	4770      	bx	lr
    ep = &hpcd->OUT_ep[ep_addr];
 80026e6:	eb01 0181 	add.w	r1, r1, r1, lsl #2
 80026ea:	eb00 00c1 	add.w	r0, r0, r1, lsl #3
 80026ee:	f500 70b4 	add.w	r0, r0, #360	; 0x168
 80026f2:	e7f3      	b.n	80026dc <HAL_PCDEx_PMAConfig+0x14>
    ep->doublebuffer = 1U;
 80026f4:	2201      	movs	r2, #1
 80026f6:	7302      	strb	r2, [r0, #12]
    ep->pmaaddr0 = (uint16_t)(pmaadress & 0xFFFFU);
 80026f8:	8103      	strh	r3, [r0, #8]
    ep->pmaaddr1 = (uint16_t)((pmaadress & 0xFFFF0000U) >> 16);
 80026fa:	0c1b      	lsrs	r3, r3, #16
 80026fc:	8143      	strh	r3, [r0, #10]
 80026fe:	e7f0      	b.n	80026e2 <HAL_PCDEx_PMAConfig+0x1a>

08002700 <HAL_RCC_OscConfig>:
#if defined(RCC_CFGR_PLLSRC_HSI_PREDIV)
  uint32_t pll_config2;
#endif /* RCC_CFGR_PLLSRC_HSI_PREDIV */

  /* Check Null pointer */
  if(RCC_OscInitStruct == NULL)
 8002700:	2800      	cmp	r0, #0
 8002702:	f000 82d3 	beq.w	8002cac <HAL_RCC_OscConfig+0x5ac>
{
 8002706:	e92d 43f0 	stmdb	sp!, {r4, r5, r6, r7, r8, r9, lr}
 800270a:	b083      	sub	sp, #12
 800270c:	4604      	mov	r4, r0

  /* Check the parameters */
  assert_param(IS_RCC_OSCILLATORTYPE(RCC_OscInitStruct->OscillatorType));

  /*------------------------------- HSE Configuration ------------------------*/ 
  if(((RCC_OscInitStruct->OscillatorType) & RCC_OSCILLATORTYPE_HSE) == RCC_OSCILLATORTYPE_HSE)
 800270e:	6803      	ldr	r3, [r0, #0]
 8002710:	f013 0f01 	tst.w	r3, #1
 8002714:	d037      	beq.n	8002786 <HAL_RCC_OscConfig+0x86>
  {
    /* Check the parameters */
    assert_param(IS_RCC_HSE(RCC_OscInitStruct->HSEState));

    /* When the HSE is used as system clock or clock source for PLL in these cases it is not allowed to be disabled */
    if((__HAL_RCC_GET_SYSCLK_SOURCE() == RCC_SYSCLKSOURCE_STATUS_HSE) 
 8002716:	4bad      	ldr	r3, [pc, #692]	; (80029cc <HAL_RCC_OscConfig+0x2cc>)
 8002718:	685b      	ldr	r3, [r3, #4]
 800271a:	f003 030c 	and.w	r3, r3, #12
 800271e:	2b04      	cmp	r3, #4
 8002720:	d01e      	beq.n	8002760 <HAL_RCC_OscConfig+0x60>
       || ((__HAL_RCC_GET_SYSCLK_SOURCE() == RCC_SYSCLKSOURCE_STATUS_PLLCLK) && (__HAL_RCC_GET_PLL_OSCSOURCE() == RCC_PLLSOURCE_HSE)))
 8002722:	4baa      	ldr	r3, [pc, #680]	; (80029cc <HAL_RCC_OscConfig+0x2cc>)
 8002724:	685b      	ldr	r3, [r3, #4]
 8002726:	f003 030c 	and.w	r3, r3, #12
 800272a:	2b08      	cmp	r3, #8
 800272c:	d013      	beq.n	8002756 <HAL_RCC_OscConfig+0x56>
      }
    }
    else
    {
      /* Set the new HSE configuration ---------------------------------------*/
      __HAL_RCC_HSE_CONFIG(RCC_OscInitStruct->HSEState);
 800272e:	6863      	ldr	r3, [r4, #4]
 8002730:	f5b3 3f80 	cmp.w	r3, #65536	; 0x10000
 8002734:	d063      	beq.n	80027fe <HAL_RCC_OscConfig+0xfe>
 8002736:	2b00      	cmp	r3, #0
 8002738:	f040 808a 	bne.w	8002850 <HAL_RCC_OscConfig+0x150>
 800273c:	f103 4380 	add.w	r3, r3, #1073741824	; 0x40000000
 8002740:	f503 3304 	add.w	r3, r3, #135168	; 0x21000
 8002744:	681a      	ldr	r2, [r3, #0]
 8002746:	f422 3280 	bic.w	r2, r2, #65536	; 0x10000
 800274a:	601a      	str	r2, [r3, #0]
 800274c:	681a      	ldr	r2, [r3, #0]
 800274e:	f422 2280 	bic.w	r2, r2, #262144	; 0x40000
 8002752:	601a      	str	r2, [r3, #0]
 8002754:	e058      	b.n	8002808 <HAL_RCC_OscConfig+0x108>
       || ((__HAL_RCC_GET_SYSCLK_SOURCE() == RCC_SYSCLKSOURCE_STATUS_PLLCLK) && (__HAL_RCC_GET_PLL_OSCSOURCE() == RCC_PLLSOURCE_HSE)))
 8002756:	4b9d      	ldr	r3, [pc, #628]	; (80029cc <HAL_RCC_OscConfig+0x2cc>)
 8002758:	685b      	ldr	r3, [r3, #4]
 800275a:	f413 3f80 	tst.w	r3, #65536	; 0x10000
 800275e:	d0e6      	beq.n	800272e <HAL_RCC_OscConfig+0x2e>
  uint32_t result;

#if ((defined (__ARM_ARCH_7M__      ) && (__ARM_ARCH_7M__      == 1)) || \
     (defined (__ARM_ARCH_7EM__     ) && (__ARM_ARCH_7EM__     == 1)) || \
     (defined (__ARM_ARCH_8M_MAIN__ ) && (__ARM_ARCH_8M_MAIN__ == 1))    )
   __ASM volatile ("rbit %0, %1" : "=r" (result) : "r" (value) );
 8002760:	f44f 3300 	mov.w	r3, #131072	; 0x20000
 8002764:	fa93 f2a3 	rbit	r2, r3
      if((__HAL_RCC_GET_FLAG(RCC_FLAG_HSERDY) != RESET) && (RCC_OscInitStruct->HSEState == RCC_HSE_OFF))
 8002768:	4a98      	ldr	r2, [pc, #608]	; (80029cc <HAL_RCC_OscConfig+0x2cc>)
 800276a:	6811      	ldr	r1, [r2, #0]
 800276c:	fa93 f3a3 	rbit	r3, r3
 8002770:	fab3 f383 	clz	r3, r3
 8002774:	2201      	movs	r2, #1
 8002776:	fa02 f303 	lsl.w	r3, r2, r3
 800277a:	420b      	tst	r3, r1
 800277c:	d003      	beq.n	8002786 <HAL_RCC_OscConfig+0x86>
 800277e:	6863      	ldr	r3, [r4, #4]
 8002780:	2b00      	cmp	r3, #0
 8002782:	f000 8295 	beq.w	8002cb0 <HAL_RCC_OscConfig+0x5b0>
        }
      }
    }
  }
  /*----------------------------- HSI Configuration --------------------------*/ 
  if(((RCC_OscInitStruct->OscillatorType) & RCC_OSCILLATORTYPE_HSI) == RCC_OSCILLATORTYPE_HSI)
 8002786:	6823      	ldr	r3, [r4, #0]
 8002788:	f013 0f02 	tst.w	r3, #2
 800278c:	f000 80bb 	beq.w	8002906 <HAL_RCC_OscConfig+0x206>
    /* Check the parameters */
    assert_param(IS_RCC_HSI(RCC_OscInitStruct->HSIState));
    assert_param(IS_RCC_CALIBRATION_VALUE(RCC_OscInitStruct->HSICalibrationValue));
    
    /* Check if HSI is used as system clock or as PLL source when PLL is selected as system clock */ 
    if((__HAL_RCC_GET_SYSCLK_SOURCE() == RCC_SYSCLKSOURCE_STATUS_HSI) 
 8002790:	4b8e      	ldr	r3, [pc, #568]	; (80029cc <HAL_RCC_OscConfig+0x2cc>)
 8002792:	685b      	ldr	r3, [r3, #4]
 8002794:	f013 0f0c 	tst.w	r3, #12
 8002798:	f000 8096 	beq.w	80028c8 <HAL_RCC_OscConfig+0x1c8>
       || ((__HAL_RCC_GET_SYSCLK_SOURCE() == RCC_SYSCLKSOURCE_STATUS_PLLCLK) && (__HAL_RCC_GET_PLL_OSCSOURCE() == RCC_PLLSOURCE_HSI)))
 800279c:	4b8b      	ldr	r3, [pc, #556]	; (80029cc <HAL_RCC_OscConfig+0x2cc>)
 800279e:	685b      	ldr	r3, [r3, #4]
 80027a0:	f003 030c 	and.w	r3, r3, #12
 80027a4:	2b08      	cmp	r3, #8
 80027a6:	f000 8089 	beq.w	80028bc <HAL_RCC_OscConfig+0x1bc>
      }
    }
    else
    {
      /* Check the HSI State */
      if(RCC_OscInitStruct->HSIState != RCC_HSI_OFF)
 80027aa:	6923      	ldr	r3, [r4, #16]
 80027ac:	2b00      	cmp	r3, #0
 80027ae:	f000 80e7 	beq.w	8002980 <HAL_RCC_OscConfig+0x280>
 80027b2:	2201      	movs	r2, #1
 80027b4:	fa92 f3a2 	rbit	r3, r2
      {
       /* Enable the Internal High Speed oscillator (HSI). */
        __HAL_RCC_HSI_ENABLE();
 80027b8:	fab3 f383 	clz	r3, r3
 80027bc:	f103 5384 	add.w	r3, r3, #276824064	; 0x10800000
 80027c0:	f503 1384 	add.w	r3, r3, #1081344	; 0x108000
 80027c4:	009b      	lsls	r3, r3, #2
 80027c6:	601a      	str	r2, [r3, #0]
        
        /* Get Start Tick */
        tickstart = HAL_GetTick();
 80027c8:	f7fe fb4a 	bl	8000e60 <HAL_GetTick>
 80027cc:	4606      	mov	r6, r0
 80027ce:	2502      	movs	r5, #2
        
        /* Wait till HSI is ready */
        while(__HAL_RCC_GET_FLAG(RCC_FLAG_HSIRDY) == RESET)
 80027d0:	f8df 81f8 	ldr.w	r8, [pc, #504]	; 80029cc <HAL_RCC_OscConfig+0x2cc>
 80027d4:	2701      	movs	r7, #1
 80027d6:	fa95 f3a5 	rbit	r3, r5
 80027da:	f8d8 2000 	ldr.w	r2, [r8]
 80027de:	fa95 f3a5 	rbit	r3, r5
 80027e2:	fab3 f383 	clz	r3, r3
 80027e6:	fa07 f303 	lsl.w	r3, r7, r3
 80027ea:	4213      	tst	r3, r2
 80027ec:	f040 80ba 	bne.w	8002964 <HAL_RCC_OscConfig+0x264>
        {
          if((HAL_GetTick() - tickstart ) > HSI_TIMEOUT_VALUE)
 80027f0:	f7fe fb36 	bl	8000e60 <HAL_GetTick>
 80027f4:	1b80      	subs	r0, r0, r6
 80027f6:	2802      	cmp	r0, #2
 80027f8:	d9ed      	bls.n	80027d6 <HAL_RCC_OscConfig+0xd6>
          {
            return HAL_TIMEOUT;
 80027fa:	2003      	movs	r0, #3
 80027fc:	e25d      	b.n	8002cba <HAL_RCC_OscConfig+0x5ba>
      __HAL_RCC_HSE_CONFIG(RCC_OscInitStruct->HSEState);
 80027fe:	4a73      	ldr	r2, [pc, #460]	; (80029cc <HAL_RCC_OscConfig+0x2cc>)
 8002800:	6813      	ldr	r3, [r2, #0]
 8002802:	f443 3380 	orr.w	r3, r3, #65536	; 0x10000
 8002806:	6013      	str	r3, [r2, #0]
      __HAL_RCC_HSE_PREDIV_CONFIG(RCC_OscInitStruct->HSEPredivValue);
 8002808:	4a70      	ldr	r2, [pc, #448]	; (80029cc <HAL_RCC_OscConfig+0x2cc>)
 800280a:	6ad3      	ldr	r3, [r2, #44]	; 0x2c
 800280c:	f023 030f 	bic.w	r3, r3, #15
 8002810:	68a1      	ldr	r1, [r4, #8]
 8002812:	430b      	orrs	r3, r1
 8002814:	62d3      	str	r3, [r2, #44]	; 0x2c
      if(RCC_OscInitStruct->HSEState != RCC_HSE_OFF)
 8002816:	6863      	ldr	r3, [r4, #4]
 8002818:	b3a3      	cbz	r3, 8002884 <HAL_RCC_OscConfig+0x184>
        tickstart = HAL_GetTick();
 800281a:	f7fe fb21 	bl	8000e60 <HAL_GetTick>
 800281e:	4606      	mov	r6, r0
 8002820:	f44f 3500 	mov.w	r5, #131072	; 0x20000
        while(__HAL_RCC_GET_FLAG(RCC_FLAG_HSERDY) == RESET)
 8002824:	f8df 81a4 	ldr.w	r8, [pc, #420]	; 80029cc <HAL_RCC_OscConfig+0x2cc>
 8002828:	2701      	movs	r7, #1
 800282a:	fa95 f3a5 	rbit	r3, r5
 800282e:	f8d8 2000 	ldr.w	r2, [r8]
 8002832:	fa95 f3a5 	rbit	r3, r5
 8002836:	fab3 f383 	clz	r3, r3
 800283a:	fa07 f303 	lsl.w	r3, r7, r3
 800283e:	4213      	tst	r3, r2
 8002840:	d1a1      	bne.n	8002786 <HAL_RCC_OscConfig+0x86>
          if((HAL_GetTick() - tickstart ) > HSE_TIMEOUT_VALUE)
 8002842:	f7fe fb0d 	bl	8000e60 <HAL_GetTick>
 8002846:	1b80      	subs	r0, r0, r6
 8002848:	2864      	cmp	r0, #100	; 0x64
 800284a:	d9ee      	bls.n	800282a <HAL_RCC_OscConfig+0x12a>
            return HAL_TIMEOUT;
 800284c:	2003      	movs	r0, #3
 800284e:	e234      	b.n	8002cba <HAL_RCC_OscConfig+0x5ba>
      __HAL_RCC_HSE_CONFIG(RCC_OscInitStruct->HSEState);
 8002850:	f5b3 2fa0 	cmp.w	r3, #327680	; 0x50000
 8002854:	d009      	beq.n	800286a <HAL_RCC_OscConfig+0x16a>
 8002856:	4b5d      	ldr	r3, [pc, #372]	; (80029cc <HAL_RCC_OscConfig+0x2cc>)
 8002858:	681a      	ldr	r2, [r3, #0]
 800285a:	f422 3280 	bic.w	r2, r2, #65536	; 0x10000
 800285e:	601a      	str	r2, [r3, #0]
 8002860:	681a      	ldr	r2, [r3, #0]
 8002862:	f422 2280 	bic.w	r2, r2, #262144	; 0x40000
 8002866:	601a      	str	r2, [r3, #0]
 8002868:	e7ce      	b.n	8002808 <HAL_RCC_OscConfig+0x108>
 800286a:	f103 4380 	add.w	r3, r3, #1073741824	; 0x40000000
 800286e:	f5a3 333c 	sub.w	r3, r3, #192512	; 0x2f000
 8002872:	681a      	ldr	r2, [r3, #0]
 8002874:	f442 2280 	orr.w	r2, r2, #262144	; 0x40000
 8002878:	601a      	str	r2, [r3, #0]
 800287a:	681a      	ldr	r2, [r3, #0]
 800287c:	f442 3280 	orr.w	r2, r2, #65536	; 0x10000
 8002880:	601a      	str	r2, [r3, #0]
 8002882:	e7c1      	b.n	8002808 <HAL_RCC_OscConfig+0x108>
        tickstart = HAL_GetTick();
 8002884:	f7fe faec 	bl	8000e60 <HAL_GetTick>
 8002888:	4606      	mov	r6, r0
 800288a:	f44f 3500 	mov.w	r5, #131072	; 0x20000
        while(__HAL_RCC_GET_FLAG(RCC_FLAG_HSERDY) != RESET)
 800288e:	f8df 813c 	ldr.w	r8, [pc, #316]	; 80029cc <HAL_RCC_OscConfig+0x2cc>
 8002892:	2701      	movs	r7, #1
 8002894:	fa95 f3a5 	rbit	r3, r5
 8002898:	f8d8 2000 	ldr.w	r2, [r8]
 800289c:	fa95 f3a5 	rbit	r3, r5
 80028a0:	fab3 f383 	clz	r3, r3
 80028a4:	fa07 f303 	lsl.w	r3, r7, r3
 80028a8:	4213      	tst	r3, r2
 80028aa:	f43f af6c 	beq.w	8002786 <HAL_RCC_OscConfig+0x86>
           if((HAL_GetTick() - tickstart ) > HSE_TIMEOUT_VALUE)
 80028ae:	f7fe fad7 	bl	8000e60 <HAL_GetTick>
 80028b2:	1b80      	subs	r0, r0, r6
 80028b4:	2864      	cmp	r0, #100	; 0x64
 80028b6:	d9ed      	bls.n	8002894 <HAL_RCC_OscConfig+0x194>
            return HAL_TIMEOUT;
 80028b8:	2003      	movs	r0, #3
 80028ba:	e1fe      	b.n	8002cba <HAL_RCC_OscConfig+0x5ba>
       || ((__HAL_RCC_GET_SYSCLK_SOURCE() == RCC_SYSCLKSOURCE_STATUS_PLLCLK) && (__HAL_RCC_GET_PLL_OSCSOURCE() == RCC_PLLSOURCE_HSI)))
 80028bc:	4b43      	ldr	r3, [pc, #268]	; (80029cc <HAL_RCC_OscConfig+0x2cc>)
 80028be:	685b      	ldr	r3, [r3, #4]
 80028c0:	f413 3f80 	tst.w	r3, #65536	; 0x10000
 80028c4:	f47f af71 	bne.w	80027aa <HAL_RCC_OscConfig+0xaa>
 80028c8:	2302      	movs	r3, #2
 80028ca:	fa93 f2a3 	rbit	r2, r3
      if((__HAL_RCC_GET_FLAG(RCC_FLAG_HSIRDY) != RESET) && (RCC_OscInitStruct->HSIState != RCC_HSI_ON))
 80028ce:	4a3f      	ldr	r2, [pc, #252]	; (80029cc <HAL_RCC_OscConfig+0x2cc>)
 80028d0:	6811      	ldr	r1, [r2, #0]
 80028d2:	fa93 f3a3 	rbit	r3, r3
 80028d6:	fab3 f383 	clz	r3, r3
 80028da:	2201      	movs	r2, #1
 80028dc:	fa02 f303 	lsl.w	r3, r2, r3
 80028e0:	420b      	tst	r3, r1
 80028e2:	d003      	beq.n	80028ec <HAL_RCC_OscConfig+0x1ec>
 80028e4:	6923      	ldr	r3, [r4, #16]
 80028e6:	4293      	cmp	r3, r2
 80028e8:	f040 81e4 	bne.w	8002cb4 <HAL_RCC_OscConfig+0x5b4>
        __HAL_RCC_HSI_CALIBRATIONVALUE_ADJUST(RCC_OscInitStruct->HSICalibrationValue);
 80028ec:	4837      	ldr	r0, [pc, #220]	; (80029cc <HAL_RCC_OscConfig+0x2cc>)
 80028ee:	6801      	ldr	r1, [r0, #0]
 80028f0:	22f8      	movs	r2, #248	; 0xf8
 80028f2:	fa92 f2a2 	rbit	r2, r2
 80028f6:	fab2 f282 	clz	r2, r2
 80028fa:	6963      	ldr	r3, [r4, #20]
 80028fc:	4093      	lsls	r3, r2
 80028fe:	f021 02f8 	bic.w	r2, r1, #248	; 0xf8
 8002902:	4313      	orrs	r3, r2
 8002904:	6003      	str	r3, [r0, #0]
        }
      }
    }
  }
  /*------------------------------ LSI Configuration -------------------------*/ 
  if(((RCC_OscInitStruct->OscillatorType) & RCC_OSCILLATORTYPE_LSI) == RCC_OSCILLATORTYPE_LSI)
 8002906:	6823      	ldr	r3, [r4, #0]
 8002908:	f013 0f08 	tst.w	r3, #8
 800290c:	f000 808a 	beq.w	8002a24 <HAL_RCC_OscConfig+0x324>
  {
    /* Check the parameters */
    assert_param(IS_RCC_LSI(RCC_OscInitStruct->LSIState));
    
    /* Check the LSI State */
    if(RCC_OscInitStruct->LSIState != RCC_LSI_OFF)
 8002910:	69a3      	ldr	r3, [r4, #24]
 8002912:	2b00      	cmp	r3, #0
 8002914:	d05e      	beq.n	80029d4 <HAL_RCC_OscConfig+0x2d4>
 8002916:	2101      	movs	r1, #1
 8002918:	fa91 f2a1 	rbit	r2, r1
    {
      /* Enable the Internal Low Speed oscillator (LSI). */
      __HAL_RCC_LSI_ENABLE();
 800291c:	fab2 f282 	clz	r2, r2
 8002920:	4b2b      	ldr	r3, [pc, #172]	; (80029d0 <HAL_RCC_OscConfig+0x2d0>)
 8002922:	4413      	add	r3, r2
 8002924:	009b      	lsls	r3, r3, #2
 8002926:	6019      	str	r1, [r3, #0]
      
      /* Get Start Tick */
      tickstart = HAL_GetTick();
 8002928:	f7fe fa9a 	bl	8000e60 <HAL_GetTick>
 800292c:	4606      	mov	r6, r0
 800292e:	2502      	movs	r5, #2
      
      /* Wait till LSI is ready */  
      while(__HAL_RCC_GET_FLAG(RCC_FLAG_LSIRDY) == RESET)
 8002930:	f8df 8098 	ldr.w	r8, [pc, #152]	; 80029cc <HAL_RCC_OscConfig+0x2cc>
 8002934:	2701      	movs	r7, #1
 8002936:	fa95 f3a5 	rbit	r3, r5
 800293a:	fa95 f3a5 	rbit	r3, r5
 800293e:	fa95 f3a5 	rbit	r3, r5
 8002942:	f8d8 2024 	ldr.w	r2, [r8, #36]	; 0x24
 8002946:	fa95 f3a5 	rbit	r3, r5
 800294a:	fab3 f383 	clz	r3, r3
 800294e:	fa07 f303 	lsl.w	r3, r7, r3
 8002952:	4213      	tst	r3, r2
 8002954:	d166      	bne.n	8002a24 <HAL_RCC_OscConfig+0x324>
      {
        if((HAL_GetTick() - tickstart ) > LSI_TIMEOUT_VALUE)
 8002956:	f7fe fa83 	bl	8000e60 <HAL_GetTick>
 800295a:	1b80      	subs	r0, r0, r6
 800295c:	2802      	cmp	r0, #2
 800295e:	d9ea      	bls.n	8002936 <HAL_RCC_OscConfig+0x236>
        {
          return HAL_TIMEOUT;
 8002960:	2003      	movs	r0, #3
 8002962:	e1aa      	b.n	8002cba <HAL_RCC_OscConfig+0x5ba>
        __HAL_RCC_HSI_CALIBRATIONVALUE_ADJUST(RCC_OscInitStruct->HSICalibrationValue);
 8002964:	4819      	ldr	r0, [pc, #100]	; (80029cc <HAL_RCC_OscConfig+0x2cc>)
 8002966:	6801      	ldr	r1, [r0, #0]
 8002968:	22f8      	movs	r2, #248	; 0xf8
 800296a:	fa92 f2a2 	rbit	r2, r2
 800296e:	fab2 f282 	clz	r2, r2
 8002972:	6963      	ldr	r3, [r4, #20]
 8002974:	4093      	lsls	r3, r2
 8002976:	f021 02f8 	bic.w	r2, r1, #248	; 0xf8
 800297a:	4313      	orrs	r3, r2
 800297c:	6003      	str	r3, [r0, #0]
 800297e:	e7c2      	b.n	8002906 <HAL_RCC_OscConfig+0x206>
 8002980:	2301      	movs	r3, #1
 8002982:	fa93 f3a3 	rbit	r3, r3
        __HAL_RCC_HSI_DISABLE();
 8002986:	fab3 f383 	clz	r3, r3
 800298a:	f103 5384 	add.w	r3, r3, #276824064	; 0x10800000
 800298e:	f503 1384 	add.w	r3, r3, #1081344	; 0x108000
 8002992:	009b      	lsls	r3, r3, #2
 8002994:	2200      	movs	r2, #0
 8002996:	601a      	str	r2, [r3, #0]
        tickstart = HAL_GetTick();
 8002998:	f7fe fa62 	bl	8000e60 <HAL_GetTick>
 800299c:	4606      	mov	r6, r0
 800299e:	2502      	movs	r5, #2
        while(__HAL_RCC_GET_FLAG(RCC_FLAG_HSIRDY) != RESET)
 80029a0:	f8df 8028 	ldr.w	r8, [pc, #40]	; 80029cc <HAL_RCC_OscConfig+0x2cc>
 80029a4:	2701      	movs	r7, #1
 80029a6:	fa95 f3a5 	rbit	r3, r5
 80029aa:	f8d8 2000 	ldr.w	r2, [r8]
 80029ae:	fa95 f3a5 	rbit	r3, r5
 80029b2:	fab3 f383 	clz	r3, r3
 80029b6:	fa07 f303 	lsl.w	r3, r7, r3
 80029ba:	4213      	tst	r3, r2
 80029bc:	d0a3      	beq.n	8002906 <HAL_RCC_OscConfig+0x206>
          if((HAL_GetTick() - tickstart ) > HSI_TIMEOUT_VALUE)
 80029be:	f7fe fa4f 	bl	8000e60 <HAL_GetTick>
 80029c2:	1b80      	subs	r0, r0, r6
 80029c4:	2802      	cmp	r0, #2
 80029c6:	d9ee      	bls.n	80029a6 <HAL_RCC_OscConfig+0x2a6>
            return HAL_TIMEOUT;
 80029c8:	2003      	movs	r0, #3
 80029ca:	e176      	b.n	8002cba <HAL_RCC_OscConfig+0x5ba>
 80029cc:	40021000 	.word	0x40021000
 80029d0:	10908120 	.word	0x10908120
 80029d4:	2201      	movs	r2, #1
 80029d6:	fa92 f2a2 	rbit	r2, r2
      }
    }
    else
    {
      /* Disable the Internal Low Speed oscillator (LSI). */
      __HAL_RCC_LSI_DISABLE();
 80029da:	fab2 f282 	clz	r2, r2
 80029de:	4bb8      	ldr	r3, [pc, #736]	; (8002cc0 <HAL_RCC_OscConfig+0x5c0>)
 80029e0:	4413      	add	r3, r2
 80029e2:	009b      	lsls	r3, r3, #2
 80029e4:	2200      	movs	r2, #0
 80029e6:	601a      	str	r2, [r3, #0]
      
      /* Get Start Tick */
      tickstart = HAL_GetTick();
 80029e8:	f7fe fa3a 	bl	8000e60 <HAL_GetTick>
 80029ec:	4606      	mov	r6, r0
 80029ee:	2502      	movs	r5, #2
      
      /* Wait till LSI is disabled */  
      while(__HAL_RCC_GET_FLAG(RCC_FLAG_LSIRDY) != RESET)
 80029f0:	f8df 82d0 	ldr.w	r8, [pc, #720]	; 8002cc4 <HAL_RCC_OscConfig+0x5c4>
 80029f4:	2701      	movs	r7, #1
 80029f6:	fa95 f3a5 	rbit	r3, r5
 80029fa:	fa95 f3a5 	rbit	r3, r5
 80029fe:	fa95 f3a5 	rbit	r3, r5
 8002a02:	f8d8 2024 	ldr.w	r2, [r8, #36]	; 0x24
 8002a06:	fa95 f3a5 	rbit	r3, r5
 8002a0a:	fab3 f383 	clz	r3, r3
 8002a0e:	fa07 f303 	lsl.w	r3, r7, r3
 8002a12:	4213      	tst	r3, r2
 8002a14:	d006      	beq.n	8002a24 <HAL_RCC_OscConfig+0x324>
      {
        if((HAL_GetTick() - tickstart ) > LSI_TIMEOUT_VALUE)
 8002a16:	f7fe fa23 	bl	8000e60 <HAL_GetTick>
 8002a1a:	1b80      	subs	r0, r0, r6
 8002a1c:	2802      	cmp	r0, #2
 8002a1e:	d9ea      	bls.n	80029f6 <HAL_RCC_OscConfig+0x2f6>
        {
          return HAL_TIMEOUT;
 8002a20:	2003      	movs	r0, #3
 8002a22:	e14a      	b.n	8002cba <HAL_RCC_OscConfig+0x5ba>
        }
      }
    }
  }
  /*------------------------------ LSE Configuration -------------------------*/ 
  if(((RCC_OscInitStruct->OscillatorType) & RCC_OSCILLATORTYPE_LSE) == RCC_OSCILLATORTYPE_LSE)
 8002a24:	6823      	ldr	r3, [r4, #0]
 8002a26:	f013 0f04 	tst.w	r3, #4
 8002a2a:	f000 809b 	beq.w	8002b64 <HAL_RCC_OscConfig+0x464>
    /* Check the parameters */
    assert_param(IS_RCC_LSE(RCC_OscInitStruct->LSEState));

    /* Update LSE configuration in Backup Domain control register    */
    /* Requires to enable write access to Backup Domain of necessary */
    if(__HAL_RCC_PWR_IS_CLK_DISABLED())
 8002a2e:	4ba5      	ldr	r3, [pc, #660]	; (8002cc4 <HAL_RCC_OscConfig+0x5c4>)
 8002a30:	69db      	ldr	r3, [r3, #28]
 8002a32:	f013 5f80 	tst.w	r3, #268435456	; 0x10000000
 8002a36:	d122      	bne.n	8002a7e <HAL_RCC_OscConfig+0x37e>
    {
      __HAL_RCC_PWR_CLK_ENABLE();
 8002a38:	4ba2      	ldr	r3, [pc, #648]	; (8002cc4 <HAL_RCC_OscConfig+0x5c4>)
 8002a3a:	69da      	ldr	r2, [r3, #28]
 8002a3c:	f042 5280 	orr.w	r2, r2, #268435456	; 0x10000000
 8002a40:	61da      	str	r2, [r3, #28]
 8002a42:	69db      	ldr	r3, [r3, #28]
 8002a44:	f003 5380 	and.w	r3, r3, #268435456	; 0x10000000
 8002a48:	9301      	str	r3, [sp, #4]
 8002a4a:	9b01      	ldr	r3, [sp, #4]
      pwrclkchanged = SET;
 8002a4c:	f04f 0901 	mov.w	r9, #1
    }
    
    if(HAL_IS_BIT_CLR(PWR->CR, PWR_CR_DBP))
 8002a50:	4b9d      	ldr	r3, [pc, #628]	; (8002cc8 <HAL_RCC_OscConfig+0x5c8>)
 8002a52:	681b      	ldr	r3, [r3, #0]
 8002a54:	f413 7f80 	tst.w	r3, #256	; 0x100
 8002a58:	d014      	beq.n	8002a84 <HAL_RCC_OscConfig+0x384>
        }
      }
    }

    /* Set the new LSE configuration -----------------------------------------*/
    __HAL_RCC_LSE_CONFIG(RCC_OscInitStruct->LSEState);
 8002a5a:	68e3      	ldr	r3, [r4, #12]
 8002a5c:	2b01      	cmp	r3, #1
 8002a5e:	d025      	beq.n	8002aac <HAL_RCC_OscConfig+0x3ac>
 8002a60:	2b00      	cmp	r3, #0
 8002a62:	d148      	bne.n	8002af6 <HAL_RCC_OscConfig+0x3f6>
 8002a64:	f103 4380 	add.w	r3, r3, #1073741824	; 0x40000000
 8002a68:	f503 3304 	add.w	r3, r3, #135168	; 0x21000
 8002a6c:	6a1a      	ldr	r2, [r3, #32]
 8002a6e:	f022 0201 	bic.w	r2, r2, #1
 8002a72:	621a      	str	r2, [r3, #32]
 8002a74:	6a1a      	ldr	r2, [r3, #32]
 8002a76:	f022 0204 	bic.w	r2, r2, #4
 8002a7a:	621a      	str	r2, [r3, #32]
 8002a7c:	e01b      	b.n	8002ab6 <HAL_RCC_OscConfig+0x3b6>
    FlagStatus       pwrclkchanged = RESET;
 8002a7e:	f04f 0900 	mov.w	r9, #0
 8002a82:	e7e5      	b.n	8002a50 <HAL_RCC_OscConfig+0x350>
      SET_BIT(PWR->CR, PWR_CR_DBP);
 8002a84:	4a90      	ldr	r2, [pc, #576]	; (8002cc8 <HAL_RCC_OscConfig+0x5c8>)
 8002a86:	6813      	ldr	r3, [r2, #0]
 8002a88:	f443 7380 	orr.w	r3, r3, #256	; 0x100
 8002a8c:	6013      	str	r3, [r2, #0]
      tickstart = HAL_GetTick();
 8002a8e:	f7fe f9e7 	bl	8000e60 <HAL_GetTick>
 8002a92:	4605      	mov	r5, r0
      while(HAL_IS_BIT_CLR(PWR->CR, PWR_CR_DBP))
 8002a94:	4e8c      	ldr	r6, [pc, #560]	; (8002cc8 <HAL_RCC_OscConfig+0x5c8>)
 8002a96:	6833      	ldr	r3, [r6, #0]
 8002a98:	f413 7f80 	tst.w	r3, #256	; 0x100
 8002a9c:	d1dd      	bne.n	8002a5a <HAL_RCC_OscConfig+0x35a>
        if((HAL_GetTick() - tickstart) > RCC_DBP_TIMEOUT_VALUE)
 8002a9e:	f7fe f9df 	bl	8000e60 <HAL_GetTick>
 8002aa2:	1b40      	subs	r0, r0, r5
 8002aa4:	2864      	cmp	r0, #100	; 0x64
 8002aa6:	d9f6      	bls.n	8002a96 <HAL_RCC_OscConfig+0x396>
          return HAL_TIMEOUT;
 8002aa8:	2003      	movs	r0, #3
 8002aaa:	e106      	b.n	8002cba <HAL_RCC_OscConfig+0x5ba>
    __HAL_RCC_LSE_CONFIG(RCC_OscInitStruct->LSEState);
 8002aac:	4a85      	ldr	r2, [pc, #532]	; (8002cc4 <HAL_RCC_OscConfig+0x5c4>)
 8002aae:	6a13      	ldr	r3, [r2, #32]
 8002ab0:	f043 0301 	orr.w	r3, r3, #1
 8002ab4:	6213      	str	r3, [r2, #32]
    /* Check the LSE State */
    if(RCC_OscInitStruct->LSEState != RCC_LSE_OFF)
 8002ab6:	68e3      	ldr	r3, [r4, #12]
 8002ab8:	b39b      	cbz	r3, 8002b22 <HAL_RCC_OscConfig+0x422>
    {
      /* Get Start Tick */
      tickstart = HAL_GetTick();
 8002aba:	f7fe f9d1 	bl	8000e60 <HAL_GetTick>
 8002abe:	4606      	mov	r6, r0
 8002ac0:	2502      	movs	r5, #2
      
      /* Wait till LSE is ready */  
      while(__HAL_RCC_GET_FLAG(RCC_FLAG_LSERDY) == RESET)
 8002ac2:	f8df 8200 	ldr.w	r8, [pc, #512]	; 8002cc4 <HAL_RCC_OscConfig+0x5c4>
 8002ac6:	2701      	movs	r7, #1
 8002ac8:	fa95 f3a5 	rbit	r3, r5
 8002acc:	fa95 f3a5 	rbit	r3, r5
 8002ad0:	f8d8 2020 	ldr.w	r2, [r8, #32]
 8002ad4:	fa95 f3a5 	rbit	r3, r5
 8002ad8:	fab3 f383 	clz	r3, r3
 8002adc:	fa07 f303 	lsl.w	r3, r7, r3
 8002ae0:	4213      	tst	r3, r2
 8002ae2:	d13c      	bne.n	8002b5e <HAL_RCC_OscConfig+0x45e>
      {
        if((HAL_GetTick() - tickstart ) > RCC_LSE_TIMEOUT_VALUE)
 8002ae4:	f7fe f9bc 	bl	8000e60 <HAL_GetTick>
 8002ae8:	1b80      	subs	r0, r0, r6
 8002aea:	f241 3388 	movw	r3, #5000	; 0x1388
 8002aee:	4298      	cmp	r0, r3
 8002af0:	d9ea      	bls.n	8002ac8 <HAL_RCC_OscConfig+0x3c8>
        {
          return HAL_TIMEOUT;
 8002af2:	2003      	movs	r0, #3
 8002af4:	e0e1      	b.n	8002cba <HAL_RCC_OscConfig+0x5ba>
    __HAL_RCC_LSE_CONFIG(RCC_OscInitStruct->LSEState);
 8002af6:	2b05      	cmp	r3, #5
 8002af8:	d009      	beq.n	8002b0e <HAL_RCC_OscConfig+0x40e>
 8002afa:	4b72      	ldr	r3, [pc, #456]	; (8002cc4 <HAL_RCC_OscConfig+0x5c4>)
 8002afc:	6a1a      	ldr	r2, [r3, #32]
 8002afe:	f022 0201 	bic.w	r2, r2, #1
 8002b02:	621a      	str	r2, [r3, #32]
 8002b04:	6a1a      	ldr	r2, [r3, #32]
 8002b06:	f022 0204 	bic.w	r2, r2, #4
 8002b0a:	621a      	str	r2, [r3, #32]
 8002b0c:	e7d3      	b.n	8002ab6 <HAL_RCC_OscConfig+0x3b6>
 8002b0e:	4b6d      	ldr	r3, [pc, #436]	; (8002cc4 <HAL_RCC_OscConfig+0x5c4>)
 8002b10:	6a1a      	ldr	r2, [r3, #32]
 8002b12:	f042 0204 	orr.w	r2, r2, #4
 8002b16:	621a      	str	r2, [r3, #32]
 8002b18:	6a1a      	ldr	r2, [r3, #32]
 8002b1a:	f042 0201 	orr.w	r2, r2, #1
 8002b1e:	621a      	str	r2, [r3, #32]
 8002b20:	e7c9      	b.n	8002ab6 <HAL_RCC_OscConfig+0x3b6>
      }
    }
    else
    {
      /* Get Start Tick */
      tickstart = HAL_GetTick();
 8002b22:	f7fe f99d 	bl	8000e60 <HAL_GetTick>
 8002b26:	4606      	mov	r6, r0
 8002b28:	2502      	movs	r5, #2
      
      /* Wait till LSE is disabled */  
      while(__HAL_RCC_GET_FLAG(RCC_FLAG_LSERDY) != RESET)
 8002b2a:	f8df 8198 	ldr.w	r8, [pc, #408]	; 8002cc4 <HAL_RCC_OscConfig+0x5c4>
 8002b2e:	2701      	movs	r7, #1
 8002b30:	fa95 f3a5 	rbit	r3, r5
 8002b34:	fa95 f3a5 	rbit	r3, r5
 8002b38:	f8d8 2020 	ldr.w	r2, [r8, #32]
 8002b3c:	fa95 f3a5 	rbit	r3, r5
 8002b40:	fab3 f383 	clz	r3, r3
 8002b44:	fa07 f303 	lsl.w	r3, r7, r3
 8002b48:	4213      	tst	r3, r2
 8002b4a:	d008      	beq.n	8002b5e <HAL_RCC_OscConfig+0x45e>
      {
        if((HAL_GetTick() - tickstart ) > RCC_LSE_TIMEOUT_VALUE)
 8002b4c:	f7fe f988 	bl	8000e60 <HAL_GetTick>
 8002b50:	1b80      	subs	r0, r0, r6
 8002b52:	f241 3388 	movw	r3, #5000	; 0x1388
 8002b56:	4298      	cmp	r0, r3
 8002b58:	d9ea      	bls.n	8002b30 <HAL_RCC_OscConfig+0x430>
        {
          return HAL_TIMEOUT;
 8002b5a:	2003      	movs	r0, #3
 8002b5c:	e0ad      	b.n	8002cba <HAL_RCC_OscConfig+0x5ba>
        }
      }
    }

    /* Require to disable power clock if necessary */
    if(pwrclkchanged == SET)
 8002b5e:	f1b9 0f00 	cmp.w	r9, #0
 8002b62:	d132      	bne.n	8002bca <HAL_RCC_OscConfig+0x4ca>
  }

  /*-------------------------------- PLL Configuration -----------------------*/
  /* Check the parameters */
  assert_param(IS_RCC_PLL(RCC_OscInitStruct->PLL.PLLState));
  if ((RCC_OscInitStruct->PLL.PLLState) != RCC_PLL_NONE)
 8002b64:	69e3      	ldr	r3, [r4, #28]
 8002b66:	2b00      	cmp	r3, #0
 8002b68:	f000 80a6 	beq.w	8002cb8 <HAL_RCC_OscConfig+0x5b8>
  {
    /* Check if the PLL is used as system clock or not */
    if(__HAL_RCC_GET_SYSCLK_SOURCE() != RCC_SYSCLKSOURCE_STATUS_PLLCLK)
 8002b6c:	4a55      	ldr	r2, [pc, #340]	; (8002cc4 <HAL_RCC_OscConfig+0x5c4>)
 8002b6e:	6852      	ldr	r2, [r2, #4]
 8002b70:	f002 020c 	and.w	r2, r2, #12
 8002b74:	2a08      	cmp	r2, #8
 8002b76:	f000 8089 	beq.w	8002c8c <HAL_RCC_OscConfig+0x58c>
    { 
      if((RCC_OscInitStruct->PLL.PLLState) == RCC_PLL_ON)
 8002b7a:	2b02      	cmp	r3, #2
 8002b7c:	d02b      	beq.n	8002bd6 <HAL_RCC_OscConfig+0x4d6>
 8002b7e:	f04f 7380 	mov.w	r3, #16777216	; 0x1000000
 8002b82:	fa93 f3a3 	rbit	r3, r3
        }
      }
      else
      {
        /* Disable the main PLL. */
        __HAL_RCC_PLL_DISABLE();
 8002b86:	fab3 f383 	clz	r3, r3
 8002b8a:	f103 5384 	add.w	r3, r3, #276824064	; 0x10800000
 8002b8e:	f503 1384 	add.w	r3, r3, #1081344	; 0x108000
 8002b92:	009b      	lsls	r3, r3, #2
 8002b94:	2200      	movs	r2, #0
 8002b96:	601a      	str	r2, [r3, #0]
 
        /* Get Start Tick */
        tickstart = HAL_GetTick();
 8002b98:	f7fe f962 	bl	8000e60 <HAL_GetTick>
 8002b9c:	4605      	mov	r5, r0
 8002b9e:	f04f 7400 	mov.w	r4, #33554432	; 0x2000000
        
        /* Wait till PLL is disabled */  
        while(__HAL_RCC_GET_FLAG(RCC_FLAG_PLLRDY)  != RESET)
 8002ba2:	4f48      	ldr	r7, [pc, #288]	; (8002cc4 <HAL_RCC_OscConfig+0x5c4>)
 8002ba4:	2601      	movs	r6, #1
 8002ba6:	fa94 f3a4 	rbit	r3, r4
 8002baa:	683a      	ldr	r2, [r7, #0]
 8002bac:	fa94 f3a4 	rbit	r3, r4
 8002bb0:	fab3 f383 	clz	r3, r3
 8002bb4:	fa06 f303 	lsl.w	r3, r6, r3
 8002bb8:	4213      	tst	r3, r2
 8002bba:	d065      	beq.n	8002c88 <HAL_RCC_OscConfig+0x588>
        {
          if((HAL_GetTick() - tickstart ) > PLL_TIMEOUT_VALUE)
 8002bbc:	f7fe f950 	bl	8000e60 <HAL_GetTick>
 8002bc0:	1b40      	subs	r0, r0, r5
 8002bc2:	2802      	cmp	r0, #2
 8002bc4:	d9ef      	bls.n	8002ba6 <HAL_RCC_OscConfig+0x4a6>
          {
            return HAL_TIMEOUT;
 8002bc6:	2003      	movs	r0, #3
 8002bc8:	e077      	b.n	8002cba <HAL_RCC_OscConfig+0x5ba>
      __HAL_RCC_PWR_CLK_DISABLE();
 8002bca:	4a3e      	ldr	r2, [pc, #248]	; (8002cc4 <HAL_RCC_OscConfig+0x5c4>)
 8002bcc:	69d3      	ldr	r3, [r2, #28]
 8002bce:	f023 5380 	bic.w	r3, r3, #268435456	; 0x10000000
 8002bd2:	61d3      	str	r3, [r2, #28]
 8002bd4:	e7c6      	b.n	8002b64 <HAL_RCC_OscConfig+0x464>
 8002bd6:	f04f 7380 	mov.w	r3, #16777216	; 0x1000000
 8002bda:	fa93 f3a3 	rbit	r3, r3
        __HAL_RCC_PLL_DISABLE();
 8002bde:	fab3 f383 	clz	r3, r3
 8002be2:	f103 5384 	add.w	r3, r3, #276824064	; 0x10800000
 8002be6:	f503 1384 	add.w	r3, r3, #1081344	; 0x108000
 8002bea:	009b      	lsls	r3, r3, #2
 8002bec:	2200      	movs	r2, #0
 8002bee:	601a      	str	r2, [r3, #0]
        tickstart = HAL_GetTick();
 8002bf0:	f7fe f936 	bl	8000e60 <HAL_GetTick>
 8002bf4:	4606      	mov	r6, r0
 8002bf6:	f04f 7500 	mov.w	r5, #33554432	; 0x2000000
        while(__HAL_RCC_GET_FLAG(RCC_FLAG_PLLRDY)  != RESET)
 8002bfa:	f8df 80c8 	ldr.w	r8, [pc, #200]	; 8002cc4 <HAL_RCC_OscConfig+0x5c4>
 8002bfe:	2701      	movs	r7, #1
 8002c00:	fa95 f3a5 	rbit	r3, r5
 8002c04:	f8d8 2000 	ldr.w	r2, [r8]
 8002c08:	fa95 f3a5 	rbit	r3, r5
 8002c0c:	fab3 f383 	clz	r3, r3
 8002c10:	fa07 f303 	lsl.w	r3, r7, r3
 8002c14:	4213      	tst	r3, r2
 8002c16:	d006      	beq.n	8002c26 <HAL_RCC_OscConfig+0x526>
          if((HAL_GetTick() - tickstart ) > PLL_TIMEOUT_VALUE)
 8002c18:	f7fe f922 	bl	8000e60 <HAL_GetTick>
 8002c1c:	1b80      	subs	r0, r0, r6
 8002c1e:	2802      	cmp	r0, #2
 8002c20:	d9ee      	bls.n	8002c00 <HAL_RCC_OscConfig+0x500>
            return HAL_TIMEOUT;
 8002c22:	2003      	movs	r0, #3
 8002c24:	e049      	b.n	8002cba <HAL_RCC_OscConfig+0x5ba>
      __HAL_RCC_PLL_CONFIG(RCC_OscInitStruct->PLL.PLLSource,
 8002c26:	4927      	ldr	r1, [pc, #156]	; (8002cc4 <HAL_RCC_OscConfig+0x5c4>)
 8002c28:	684a      	ldr	r2, [r1, #4]
 8002c2a:	6a63      	ldr	r3, [r4, #36]	; 0x24
 8002c2c:	6a20      	ldr	r0, [r4, #32]
 8002c2e:	4303      	orrs	r3, r0
 8002c30:	f422 1274 	bic.w	r2, r2, #3997696	; 0x3d0000
 8002c34:	4313      	orrs	r3, r2
 8002c36:	604b      	str	r3, [r1, #4]
 8002c38:	f04f 7380 	mov.w	r3, #16777216	; 0x1000000
 8002c3c:	fa93 f3a3 	rbit	r3, r3
        __HAL_RCC_PLL_ENABLE();
 8002c40:	fab3 f383 	clz	r3, r3
 8002c44:	f103 5384 	add.w	r3, r3, #276824064	; 0x10800000
 8002c48:	f503 1384 	add.w	r3, r3, #1081344	; 0x108000
 8002c4c:	009b      	lsls	r3, r3, #2
 8002c4e:	2201      	movs	r2, #1
 8002c50:	601a      	str	r2, [r3, #0]
        tickstart = HAL_GetTick();
 8002c52:	f7fe f905 	bl	8000e60 <HAL_GetTick>
 8002c56:	4605      	mov	r5, r0
 8002c58:	f04f 7400 	mov.w	r4, #33554432	; 0x2000000
        while(__HAL_RCC_GET_FLAG(RCC_FLAG_PLLRDY)  == RESET)
 8002c5c:	4f19      	ldr	r7, [pc, #100]	; (8002cc4 <HAL_RCC_OscConfig+0x5c4>)
 8002c5e:	2601      	movs	r6, #1
 8002c60:	fa94 f3a4 	rbit	r3, r4
 8002c64:	683a      	ldr	r2, [r7, #0]
 8002c66:	fa94 f3a4 	rbit	r3, r4
 8002c6a:	fab3 f383 	clz	r3, r3
 8002c6e:	fa06 f303 	lsl.w	r3, r6, r3
 8002c72:	4213      	tst	r3, r2
 8002c74:	d106      	bne.n	8002c84 <HAL_RCC_OscConfig+0x584>
          if((HAL_GetTick() - tickstart ) > PLL_TIMEOUT_VALUE)
 8002c76:	f7fe f8f3 	bl	8000e60 <HAL_GetTick>
 8002c7a:	1b40      	subs	r0, r0, r5
 8002c7c:	2802      	cmp	r0, #2
 8002c7e:	d9ef      	bls.n	8002c60 <HAL_RCC_OscConfig+0x560>
            return HAL_TIMEOUT;
 8002c80:	2003      	movs	r0, #3
 8002c82:	e01a      	b.n	8002cba <HAL_RCC_OscConfig+0x5ba>
        }
      }
    }
  }

  return HAL_OK;
 8002c84:	2000      	movs	r0, #0
 8002c86:	e018      	b.n	8002cba <HAL_RCC_OscConfig+0x5ba>
 8002c88:	2000      	movs	r0, #0
 8002c8a:	e016      	b.n	8002cba <HAL_RCC_OscConfig+0x5ba>
      if((RCC_OscInitStruct->PLL.PLLState) == RCC_PLL_OFF)
 8002c8c:	2b01      	cmp	r3, #1
 8002c8e:	d01d      	beq.n	8002ccc <HAL_RCC_OscConfig+0x5cc>
        pll_config = RCC->CFGR;
 8002c90:	4b0c      	ldr	r3, [pc, #48]	; (8002cc4 <HAL_RCC_OscConfig+0x5c4>)
 8002c92:	685b      	ldr	r3, [r3, #4]
        if((READ_BIT(pll_config, RCC_CFGR_PLLSRC)   != RCC_OscInitStruct->PLL.PLLSource) ||      
 8002c94:	f403 3180 	and.w	r1, r3, #65536	; 0x10000
 8002c98:	6a22      	ldr	r2, [r4, #32]
 8002c9a:	4291      	cmp	r1, r2
 8002c9c:	d118      	bne.n	8002cd0 <HAL_RCC_OscConfig+0x5d0>
           (READ_BIT(pll_config, RCC_CFGR_PLLMUL)   != RCC_OscInitStruct->PLL.PLLMUL))
 8002c9e:	f403 1370 	and.w	r3, r3, #3932160	; 0x3c0000
        if((READ_BIT(pll_config, RCC_CFGR_PLLSRC)   != RCC_OscInitStruct->PLL.PLLSource) ||      
 8002ca2:	6a60      	ldr	r0, [r4, #36]	; 0x24
    return HAL_ERROR;
 8002ca4:	1a18      	subs	r0, r3, r0
 8002ca6:	bf18      	it	ne
 8002ca8:	2001      	movne	r0, #1
 8002caa:	e006      	b.n	8002cba <HAL_RCC_OscConfig+0x5ba>
 8002cac:	2001      	movs	r0, #1
}
 8002cae:	4770      	bx	lr
        return HAL_ERROR;
 8002cb0:	2001      	movs	r0, #1
 8002cb2:	e002      	b.n	8002cba <HAL_RCC_OscConfig+0x5ba>
        return HAL_ERROR;
 8002cb4:	2001      	movs	r0, #1
 8002cb6:	e000      	b.n	8002cba <HAL_RCC_OscConfig+0x5ba>
  return HAL_OK;
 8002cb8:	2000      	movs	r0, #0
}
 8002cba:	b003      	add	sp, #12
 8002cbc:	e8bd 83f0 	ldmia.w	sp!, {r4, r5, r6, r7, r8, r9, pc}
 8002cc0:	10908120 	.word	0x10908120
 8002cc4:	40021000 	.word	0x40021000
 8002cc8:	40007000 	.word	0x40007000
        return HAL_ERROR;
 8002ccc:	2001      	movs	r0, #1
 8002cce:	e7f4      	b.n	8002cba <HAL_RCC_OscConfig+0x5ba>
          return HAL_ERROR;
 8002cd0:	2001      	movs	r0, #1
 8002cd2:	e7f2      	b.n	8002cba <HAL_RCC_OscConfig+0x5ba>

08002cd4 <HAL_RCC_GetSysClockFreq>:
uint32_t HAL_RCC_GetSysClockFreq(void)
{
  uint32_t tmpreg = 0U, prediv = 0U, pllclk = 0U, pllmul = 0U;
  uint32_t sysclockfreq = 0U;
  
  tmpreg = RCC->CFGR;
 8002cd4:	4b16      	ldr	r3, [pc, #88]	; (8002d30 <HAL_RCC_GetSysClockFreq+0x5c>)
 8002cd6:	685b      	ldr	r3, [r3, #4]
  
  /* Get SYSCLK source -------------------------------------------------------*/
  switch (tmpreg & RCC_CFGR_SWS)
 8002cd8:	f003 020c 	and.w	r2, r3, #12
 8002cdc:	2a08      	cmp	r2, #8
 8002cde:	d001      	beq.n	8002ce4 <HAL_RCC_GetSysClockFreq+0x10>
  {
    case RCC_SYSCLKSOURCE_STATUS_HSE:  /* HSE used as system clock */
    {
      sysclockfreq = HSE_VALUE;
 8002ce0:	4814      	ldr	r0, [pc, #80]	; (8002d34 <HAL_RCC_GetSysClockFreq+0x60>)
      sysclockfreq = HSI_VALUE;
      break;
    }
  }
  return sysclockfreq;
}
 8002ce2:	4770      	bx	lr
 8002ce4:	f44f 1270 	mov.w	r2, #3932160	; 0x3c0000
 8002ce8:	fa92 f2a2 	rbit	r2, r2
      pllmul = aPLLMULFactorTable[(uint32_t)(tmpreg & RCC_CFGR_PLLMUL) >> POSITION_VAL(RCC_CFGR_PLLMUL)];
 8002cec:	fab2 f282 	clz	r2, r2
 8002cf0:	f403 1170 	and.w	r1, r3, #3932160	; 0x3c0000
 8002cf4:	fa21 f202 	lsr.w	r2, r1, r2
 8002cf8:	490f      	ldr	r1, [pc, #60]	; (8002d38 <HAL_RCC_GetSysClockFreq+0x64>)
 8002cfa:	5c88      	ldrb	r0, [r1, r2]
      prediv = aPredivFactorTable[(uint32_t)(RCC->CFGR2 & RCC_CFGR2_PREDIV) >> POSITION_VAL(RCC_CFGR2_PREDIV)];
 8002cfc:	4a0c      	ldr	r2, [pc, #48]	; (8002d30 <HAL_RCC_GetSysClockFreq+0x5c>)
 8002cfe:	6ad1      	ldr	r1, [r2, #44]	; 0x2c
 8002d00:	220f      	movs	r2, #15
 8002d02:	fa92 f2a2 	rbit	r2, r2
      if ((tmpreg & RCC_CFGR_PLLSRC) != RCC_PLLSOURCE_HSI)
 8002d06:	f413 3f80 	tst.w	r3, #65536	; 0x10000
 8002d0a:	d00c      	beq.n	8002d26 <HAL_RCC_GetSysClockFreq+0x52>
      prediv = aPredivFactorTable[(uint32_t)(RCC->CFGR2 & RCC_CFGR2_PREDIV) >> POSITION_VAL(RCC_CFGR2_PREDIV)];
 8002d0c:	fab2 f282 	clz	r2, r2
 8002d10:	f001 010f 	and.w	r1, r1, #15
 8002d14:	40d1      	lsrs	r1, r2
 8002d16:	4b09      	ldr	r3, [pc, #36]	; (8002d3c <HAL_RCC_GetSysClockFreq+0x68>)
 8002d18:	5c5a      	ldrb	r2, [r3, r1]
        pllclk = (uint32_t)((uint64_t) HSE_VALUE / (uint64_t) (prediv)) * ((uint64_t) pllmul);
 8002d1a:	4b06      	ldr	r3, [pc, #24]	; (8002d34 <HAL_RCC_GetSysClockFreq+0x60>)
 8002d1c:	fbb3 f3f2 	udiv	r3, r3, r2
 8002d20:	fb03 f000 	mul.w	r0, r3, r0
 8002d24:	4770      	bx	lr
        pllclk = (uint32_t)((uint64_t) (HSI_VALUE >> 1U) * ((uint64_t) pllmul));
 8002d26:	4b06      	ldr	r3, [pc, #24]	; (8002d40 <HAL_RCC_GetSysClockFreq+0x6c>)
 8002d28:	fb03 f000 	mul.w	r0, r3, r0
 8002d2c:	4770      	bx	lr
 8002d2e:	bf00      	nop
 8002d30:	40021000 	.word	0x40021000
 8002d34:	007a1200 	.word	0x007a1200
 8002d38:	08005b24 	.word	0x08005b24
 8002d3c:	08005b34 	.word	0x08005b34
 8002d40:	003d0900 	.word	0x003d0900

08002d44 <HAL_RCC_ClockConfig>:
  if(RCC_ClkInitStruct == NULL)
 8002d44:	2800      	cmp	r0, #0
 8002d46:	f000 80b4 	beq.w	8002eb2 <HAL_RCC_ClockConfig+0x16e>
{
 8002d4a:	e92d 41f0 	stmdb	sp!, {r4, r5, r6, r7, r8, lr}
 8002d4e:	460d      	mov	r5, r1
 8002d50:	4604      	mov	r4, r0
  if(FLatency > __HAL_FLASH_GET_LATENCY())
 8002d52:	4b5c      	ldr	r3, [pc, #368]	; (8002ec4 <HAL_RCC_ClockConfig+0x180>)
 8002d54:	681b      	ldr	r3, [r3, #0]
 8002d56:	f003 0307 	and.w	r3, r3, #7
 8002d5a:	428b      	cmp	r3, r1
 8002d5c:	d20b      	bcs.n	8002d76 <HAL_RCC_ClockConfig+0x32>
    __HAL_FLASH_SET_LATENCY(FLatency);
 8002d5e:	4a59      	ldr	r2, [pc, #356]	; (8002ec4 <HAL_RCC_ClockConfig+0x180>)
 8002d60:	6813      	ldr	r3, [r2, #0]
 8002d62:	f023 0307 	bic.w	r3, r3, #7
 8002d66:	430b      	orrs	r3, r1
 8002d68:	6013      	str	r3, [r2, #0]
    if(__HAL_FLASH_GET_LATENCY() != FLatency)
 8002d6a:	6813      	ldr	r3, [r2, #0]
 8002d6c:	f003 0307 	and.w	r3, r3, #7
 8002d70:	428b      	cmp	r3, r1
 8002d72:	f040 80a0 	bne.w	8002eb6 <HAL_RCC_ClockConfig+0x172>
  if(((RCC_ClkInitStruct->ClockType) & RCC_CLOCKTYPE_HCLK) == RCC_CLOCKTYPE_HCLK)
 8002d76:	6823      	ldr	r3, [r4, #0]
 8002d78:	f013 0f02 	tst.w	r3, #2
 8002d7c:	d006      	beq.n	8002d8c <HAL_RCC_ClockConfig+0x48>
    MODIFY_REG(RCC->CFGR, RCC_CFGR_HPRE, RCC_ClkInitStruct->AHBCLKDivider);
 8002d7e:	4a52      	ldr	r2, [pc, #328]	; (8002ec8 <HAL_RCC_ClockConfig+0x184>)
 8002d80:	6853      	ldr	r3, [r2, #4]
 8002d82:	f023 03f0 	bic.w	r3, r3, #240	; 0xf0
 8002d86:	68a1      	ldr	r1, [r4, #8]
 8002d88:	430b      	orrs	r3, r1
 8002d8a:	6053      	str	r3, [r2, #4]
  if(((RCC_ClkInitStruct->ClockType) & RCC_CLOCKTYPE_SYSCLK) == RCC_CLOCKTYPE_SYSCLK)
 8002d8c:	6823      	ldr	r3, [r4, #0]
 8002d8e:	f013 0f01 	tst.w	r3, #1
 8002d92:	d04e      	beq.n	8002e32 <HAL_RCC_ClockConfig+0xee>
    if(RCC_ClkInitStruct->SYSCLKSource == RCC_SYSCLKSOURCE_HSE)
 8002d94:	6862      	ldr	r2, [r4, #4]
 8002d96:	2a01      	cmp	r2, #1
 8002d98:	d029      	beq.n	8002dee <HAL_RCC_ClockConfig+0xaa>
    else if(RCC_ClkInitStruct->SYSCLKSource == RCC_SYSCLKSOURCE_PLLCLK)
 8002d9a:	2a02      	cmp	r2, #2
 8002d9c:	d038      	beq.n	8002e10 <HAL_RCC_ClockConfig+0xcc>
 8002d9e:	2302      	movs	r3, #2
 8002da0:	fa93 f1a3 	rbit	r1, r3
      if(__HAL_RCC_GET_FLAG(RCC_FLAG_HSIRDY) == RESET)
 8002da4:	4948      	ldr	r1, [pc, #288]	; (8002ec8 <HAL_RCC_ClockConfig+0x184>)
 8002da6:	6808      	ldr	r0, [r1, #0]
 8002da8:	fa93 f3a3 	rbit	r3, r3
 8002dac:	fab3 f383 	clz	r3, r3
 8002db0:	2101      	movs	r1, #1
 8002db2:	fa01 f303 	lsl.w	r3, r1, r3
 8002db6:	4203      	tst	r3, r0
 8002db8:	d07f      	beq.n	8002eba <HAL_RCC_ClockConfig+0x176>
    __HAL_RCC_SYSCLK_CONFIG(RCC_ClkInitStruct->SYSCLKSource);
 8002dba:	4943      	ldr	r1, [pc, #268]	; (8002ec8 <HAL_RCC_ClockConfig+0x184>)
 8002dbc:	684b      	ldr	r3, [r1, #4]
 8002dbe:	f023 0303 	bic.w	r3, r3, #3
 8002dc2:	4313      	orrs	r3, r2
 8002dc4:	604b      	str	r3, [r1, #4]
    tickstart = HAL_GetTick();
 8002dc6:	f7fe f84b 	bl	8000e60 <HAL_GetTick>
 8002dca:	4606      	mov	r6, r0
    while (__HAL_RCC_GET_SYSCLK_SOURCE() != (RCC_ClkInitStruct->SYSCLKSource << RCC_CFGR_SWS_Pos))
 8002dcc:	4f3e      	ldr	r7, [pc, #248]	; (8002ec8 <HAL_RCC_ClockConfig+0x184>)
      if ((HAL_GetTick() - tickstart) > CLOCKSWITCH_TIMEOUT_VALUE)
 8002dce:	f241 3888 	movw	r8, #5000	; 0x1388
    while (__HAL_RCC_GET_SYSCLK_SOURCE() != (RCC_ClkInitStruct->SYSCLKSource << RCC_CFGR_SWS_Pos))
 8002dd2:	687b      	ldr	r3, [r7, #4]
 8002dd4:	f003 030c 	and.w	r3, r3, #12
 8002dd8:	6862      	ldr	r2, [r4, #4]
 8002dda:	ebb3 0f82 	cmp.w	r3, r2, lsl #2
 8002dde:	d028      	beq.n	8002e32 <HAL_RCC_ClockConfig+0xee>
      if ((HAL_GetTick() - tickstart) > CLOCKSWITCH_TIMEOUT_VALUE)
 8002de0:	f7fe f83e 	bl	8000e60 <HAL_GetTick>
 8002de4:	1b80      	subs	r0, r0, r6
 8002de6:	4540      	cmp	r0, r8
 8002de8:	d9f3      	bls.n	8002dd2 <HAL_RCC_ClockConfig+0x8e>
        return HAL_TIMEOUT;
 8002dea:	2003      	movs	r0, #3
 8002dec:	e05f      	b.n	8002eae <HAL_RCC_ClockConfig+0x16a>
 8002dee:	f44f 3300 	mov.w	r3, #131072	; 0x20000
 8002df2:	fa93 f1a3 	rbit	r1, r3
      if(__HAL_RCC_GET_FLAG(RCC_FLAG_HSERDY) == RESET)
 8002df6:	4934      	ldr	r1, [pc, #208]	; (8002ec8 <HAL_RCC_ClockConfig+0x184>)
 8002df8:	6808      	ldr	r0, [r1, #0]
 8002dfa:	fa93 f3a3 	rbit	r3, r3
 8002dfe:	fab3 f383 	clz	r3, r3
 8002e02:	2101      	movs	r1, #1
 8002e04:	fa01 f303 	lsl.w	r3, r1, r3
 8002e08:	4203      	tst	r3, r0
 8002e0a:	d1d6      	bne.n	8002dba <HAL_RCC_ClockConfig+0x76>
        return HAL_ERROR;
 8002e0c:	2001      	movs	r0, #1
 8002e0e:	e04e      	b.n	8002eae <HAL_RCC_ClockConfig+0x16a>
 8002e10:	f04f 7300 	mov.w	r3, #33554432	; 0x2000000
 8002e14:	fa93 f1a3 	rbit	r1, r3
      if(__HAL_RCC_GET_FLAG(RCC_FLAG_PLLRDY) == RESET)
 8002e18:	492b      	ldr	r1, [pc, #172]	; (8002ec8 <HAL_RCC_ClockConfig+0x184>)
 8002e1a:	6808      	ldr	r0, [r1, #0]
 8002e1c:	fa93 f3a3 	rbit	r3, r3
 8002e20:	fab3 f383 	clz	r3, r3
 8002e24:	2101      	movs	r1, #1
 8002e26:	fa01 f303 	lsl.w	r3, r1, r3
 8002e2a:	4203      	tst	r3, r0
 8002e2c:	d1c5      	bne.n	8002dba <HAL_RCC_ClockConfig+0x76>
        return HAL_ERROR;
 8002e2e:	2001      	movs	r0, #1
 8002e30:	e03d      	b.n	8002eae <HAL_RCC_ClockConfig+0x16a>
  if(FLatency < __HAL_FLASH_GET_LATENCY())
 8002e32:	4b24      	ldr	r3, [pc, #144]	; (8002ec4 <HAL_RCC_ClockConfig+0x180>)
 8002e34:	681b      	ldr	r3, [r3, #0]
 8002e36:	f003 0307 	and.w	r3, r3, #7
 8002e3a:	42ab      	cmp	r3, r5
 8002e3c:	d90a      	bls.n	8002e54 <HAL_RCC_ClockConfig+0x110>
    __HAL_FLASH_SET_LATENCY(FLatency);
 8002e3e:	4a21      	ldr	r2, [pc, #132]	; (8002ec4 <HAL_RCC_ClockConfig+0x180>)
 8002e40:	6813      	ldr	r3, [r2, #0]
 8002e42:	f023 0307 	bic.w	r3, r3, #7
 8002e46:	432b      	orrs	r3, r5
 8002e48:	6013      	str	r3, [r2, #0]
    if(__HAL_FLASH_GET_LATENCY() != FLatency)
 8002e4a:	6813      	ldr	r3, [r2, #0]
 8002e4c:	f003 0307 	and.w	r3, r3, #7
 8002e50:	42ab      	cmp	r3, r5
 8002e52:	d134      	bne.n	8002ebe <HAL_RCC_ClockConfig+0x17a>
  if(((RCC_ClkInitStruct->ClockType) & RCC_CLOCKTYPE_PCLK1) == RCC_CLOCKTYPE_PCLK1)
 8002e54:	6823      	ldr	r3, [r4, #0]
 8002e56:	f013 0f04 	tst.w	r3, #4
 8002e5a:	d006      	beq.n	8002e6a <HAL_RCC_ClockConfig+0x126>
    MODIFY_REG(RCC->CFGR, RCC_CFGR_PPRE1, RCC_ClkInitStruct->APB1CLKDivider);
 8002e5c:	4a1a      	ldr	r2, [pc, #104]	; (8002ec8 <HAL_RCC_ClockConfig+0x184>)
 8002e5e:	6853      	ldr	r3, [r2, #4]
 8002e60:	f423 63e0 	bic.w	r3, r3, #1792	; 0x700
 8002e64:	68e1      	ldr	r1, [r4, #12]
 8002e66:	430b      	orrs	r3, r1
 8002e68:	6053      	str	r3, [r2, #4]
  if(((RCC_ClkInitStruct->ClockType) & RCC_CLOCKTYPE_PCLK2) == RCC_CLOCKTYPE_PCLK2)
 8002e6a:	6823      	ldr	r3, [r4, #0]
 8002e6c:	f013 0f08 	tst.w	r3, #8
 8002e70:	d007      	beq.n	8002e82 <HAL_RCC_ClockConfig+0x13e>
    MODIFY_REG(RCC->CFGR, RCC_CFGR_PPRE2, ((RCC_ClkInitStruct->APB2CLKDivider) << 3U));
 8002e72:	4a15      	ldr	r2, [pc, #84]	; (8002ec8 <HAL_RCC_ClockConfig+0x184>)
 8002e74:	6853      	ldr	r3, [r2, #4]
 8002e76:	6921      	ldr	r1, [r4, #16]
 8002e78:	f423 5360 	bic.w	r3, r3, #14336	; 0x3800
 8002e7c:	ea43 03c1 	orr.w	r3, r3, r1, lsl #3
 8002e80:	6053      	str	r3, [r2, #4]
  SystemCoreClock = HAL_RCC_GetSysClockFreq() >> AHBPrescTable[(RCC->CFGR & RCC_CFGR_HPRE)>> RCC_CFGR_HPRE_BITNUMBER];
 8002e82:	f7ff ff27 	bl	8002cd4 <HAL_RCC_GetSysClockFreq>
 8002e86:	4b10      	ldr	r3, [pc, #64]	; (8002ec8 <HAL_RCC_ClockConfig+0x184>)
 8002e88:	685b      	ldr	r3, [r3, #4]
 8002e8a:	22f0      	movs	r2, #240	; 0xf0
 8002e8c:	fa92 f2a2 	rbit	r2, r2
 8002e90:	fab2 f282 	clz	r2, r2
 8002e94:	f003 03f0 	and.w	r3, r3, #240	; 0xf0
 8002e98:	40d3      	lsrs	r3, r2
 8002e9a:	4a0c      	ldr	r2, [pc, #48]	; (8002ecc <HAL_RCC_ClockConfig+0x188>)
 8002e9c:	5cd3      	ldrb	r3, [r2, r3]
 8002e9e:	40d8      	lsrs	r0, r3
 8002ea0:	4b0b      	ldr	r3, [pc, #44]	; (8002ed0 <HAL_RCC_ClockConfig+0x18c>)
 8002ea2:	6018      	str	r0, [r3, #0]
  HAL_InitTick (uwTickPrio);
 8002ea4:	4b0b      	ldr	r3, [pc, #44]	; (8002ed4 <HAL_RCC_ClockConfig+0x190>)
 8002ea6:	6818      	ldr	r0, [r3, #0]
 8002ea8:	f7fd ff96 	bl	8000dd8 <HAL_InitTick>
  return HAL_OK;
 8002eac:	2000      	movs	r0, #0
}
 8002eae:	e8bd 81f0 	ldmia.w	sp!, {r4, r5, r6, r7, r8, pc}
    return HAL_ERROR;
 8002eb2:	2001      	movs	r0, #1
}
 8002eb4:	4770      	bx	lr
      return HAL_ERROR;
 8002eb6:	2001      	movs	r0, #1
 8002eb8:	e7f9      	b.n	8002eae <HAL_RCC_ClockConfig+0x16a>
        return HAL_ERROR;
 8002eba:	2001      	movs	r0, #1
 8002ebc:	e7f7      	b.n	8002eae <HAL_RCC_ClockConfig+0x16a>
      return HAL_ERROR;
 8002ebe:	2001      	movs	r0, #1
 8002ec0:	e7f5      	b.n	8002eae <HAL_RCC_ClockConfig+0x16a>
 8002ec2:	bf00      	nop
 8002ec4:	40022000 	.word	0x40022000
 8002ec8:	40021000 	.word	0x40021000
 8002ecc:	08005b14 	.word	0x08005b14
 8002ed0:	20000050 	.word	0x20000050
 8002ed4:	20000058 	.word	0x20000058

08002ed8 <HAL_RCCEx_PeriphCLKConfig>:
  *         When the TIMx clock source is PLL clock, so the TIMx clock is PLL clock x 2.
  *
  * @retval HAL status
  */
HAL_StatusTypeDef HAL_RCCEx_PeriphCLKConfig(RCC_PeriphCLKInitTypeDef  *PeriphClkInit)
{
 8002ed8:	e92d 43f0 	stmdb	sp!, {r4, r5, r6, r7, r8, r9, lr}
 8002edc:	b083      	sub	sp, #12
 8002ede:	4604      	mov	r4, r0
    
  /* Check the parameters */
  assert_param(IS_RCC_PERIPHCLOCK(PeriphClkInit->PeriphClockSelection));
  
  /*---------------------------- RTC configuration -------------------------------*/
  if(((PeriphClkInit->PeriphClockSelection) & RCC_PERIPHCLK_RTC) == (RCC_PERIPHCLK_RTC))
 8002ee0:	6803      	ldr	r3, [r0, #0]
 8002ee2:	f413 3f80 	tst.w	r3, #65536	; 0x10000
 8002ee6:	d048      	beq.n	8002f7a <HAL_RCCEx_PeriphCLKConfig+0xa2>


    /* As soon as function is called to change RTC clock source, activation of the 
       power domain is done. */
    /* Requires to enable write access to Backup Domain of necessary */
    if(__HAL_RCC_PWR_IS_CLK_DISABLED())
 8002ee8:	4b81      	ldr	r3, [pc, #516]	; (80030f0 <HAL_RCCEx_PeriphCLKConfig+0x218>)
 8002eea:	69db      	ldr	r3, [r3, #28]
 8002eec:	f013 5f80 	tst.w	r3, #268435456	; 0x10000000
 8002ef0:	f040 80be 	bne.w	8003070 <HAL_RCCEx_PeriphCLKConfig+0x198>
    {
      __HAL_RCC_PWR_CLK_ENABLE();
 8002ef4:	4b7e      	ldr	r3, [pc, #504]	; (80030f0 <HAL_RCCEx_PeriphCLKConfig+0x218>)
 8002ef6:	69da      	ldr	r2, [r3, #28]
 8002ef8:	f042 5280 	orr.w	r2, r2, #268435456	; 0x10000000
 8002efc:	61da      	str	r2, [r3, #28]
 8002efe:	69db      	ldr	r3, [r3, #28]
 8002f00:	f003 5380 	and.w	r3, r3, #268435456	; 0x10000000
 8002f04:	9301      	str	r3, [sp, #4]
 8002f06:	9b01      	ldr	r3, [sp, #4]
      pwrclkchanged = SET;
 8002f08:	2601      	movs	r6, #1
    }
    
    if(HAL_IS_BIT_CLR(PWR->CR, PWR_CR_DBP))
 8002f0a:	4b7a      	ldr	r3, [pc, #488]	; (80030f4 <HAL_RCCEx_PeriphCLKConfig+0x21c>)
 8002f0c:	681b      	ldr	r3, [r3, #0]
 8002f0e:	f413 7f80 	tst.w	r3, #256	; 0x100
 8002f12:	f000 80af 	beq.w	8003074 <HAL_RCCEx_PeriphCLKConfig+0x19c>
        }
      }
    }
    
    /* Reset the Backup domain only if the RTC Clock source selection is modified from reset value */ 
    temp_reg = (RCC->BDCR & RCC_BDCR_RTCSEL);
 8002f16:	4b76      	ldr	r3, [pc, #472]	; (80030f0 <HAL_RCCEx_PeriphCLKConfig+0x218>)
 8002f18:	6a1b      	ldr	r3, [r3, #32]
    if((temp_reg != 0x00000000U) && (temp_reg != (PeriphClkInit->RTCClockSelection & RCC_BDCR_RTCSEL)))
 8002f1a:	f413 7340 	ands.w	r3, r3, #768	; 0x300
 8002f1e:	d022      	beq.n	8002f66 <HAL_RCCEx_PeriphCLKConfig+0x8e>
 8002f20:	6862      	ldr	r2, [r4, #4]
 8002f22:	f402 7240 	and.w	r2, r2, #768	; 0x300
 8002f26:	429a      	cmp	r2, r3
 8002f28:	d01d      	beq.n	8002f66 <HAL_RCCEx_PeriphCLKConfig+0x8e>
    {
      /* Store the content of BDCR register before the reset of Backup Domain */
      temp_reg = (RCC->BDCR & ~(RCC_BDCR_RTCSEL));
 8002f2a:	4871      	ldr	r0, [pc, #452]	; (80030f0 <HAL_RCCEx_PeriphCLKConfig+0x218>)
 8002f2c:	6a01      	ldr	r1, [r0, #32]
 8002f2e:	f421 7540 	bic.w	r5, r1, #768	; 0x300
 8002f32:	f44f 3380 	mov.w	r3, #65536	; 0x10000
 8002f36:	fa93 f2a3 	rbit	r2, r3
      /* RTC Clock selection can be changed only if the Backup Domain is reset */
      __HAL_RCC_BACKUPRESET_FORCE();
 8002f3a:	fab2 f282 	clz	r2, r2
 8002f3e:	4f6e      	ldr	r7, [pc, #440]	; (80030f8 <HAL_RCCEx_PeriphCLKConfig+0x220>)
 8002f40:	443a      	add	r2, r7
 8002f42:	0092      	lsls	r2, r2, #2
 8002f44:	f04f 0c01 	mov.w	ip, #1
 8002f48:	f8c2 c000 	str.w	ip, [r2]
 8002f4c:	fa93 f3a3 	rbit	r3, r3
      __HAL_RCC_BACKUPRESET_RELEASE();
 8002f50:	fab3 f383 	clz	r3, r3
 8002f54:	443b      	add	r3, r7
 8002f56:	009b      	lsls	r3, r3, #2
 8002f58:	2200      	movs	r2, #0
 8002f5a:	601a      	str	r2, [r3, #0]
      /* Restore the Content of BDCR register */
      RCC->BDCR = temp_reg;
 8002f5c:	6205      	str	r5, [r0, #32]
    
      /* Wait for LSERDY if LSE was enabled */
      if (HAL_IS_BIT_SET(temp_reg, RCC_BDCR_LSEON))
 8002f5e:	f011 0f01 	tst.w	r1, #1
 8002f62:	f040 809c 	bne.w	800309e <HAL_RCCEx_PeriphCLKConfig+0x1c6>
            return HAL_TIMEOUT;
          }      
        }  
      }
    }
    __HAL_RCC_RTC_CONFIG(PeriphClkInit->RTCClockSelection); 
 8002f66:	4a62      	ldr	r2, [pc, #392]	; (80030f0 <HAL_RCCEx_PeriphCLKConfig+0x218>)
 8002f68:	6a13      	ldr	r3, [r2, #32]
 8002f6a:	f423 7340 	bic.w	r3, r3, #768	; 0x300
 8002f6e:	6861      	ldr	r1, [r4, #4]
 8002f70:	430b      	orrs	r3, r1
 8002f72:	6213      	str	r3, [r2, #32]

    /* Require to disable power clock if necessary */
    if(pwrclkchanged == SET)
 8002f74:	2e00      	cmp	r6, #0
 8002f76:	f040 80b2 	bne.w	80030de <HAL_RCCEx_PeriphCLKConfig+0x206>
      __HAL_RCC_PWR_CLK_DISABLE();
    }
  }

  /*------------------------------- USART1 Configuration ------------------------*/
  if(((PeriphClkInit->PeriphClockSelection) & RCC_PERIPHCLK_USART1) == RCC_PERIPHCLK_USART1)
 8002f7a:	6823      	ldr	r3, [r4, #0]
 8002f7c:	f013 0f01 	tst.w	r3, #1
 8002f80:	d006      	beq.n	8002f90 <HAL_RCCEx_PeriphCLKConfig+0xb8>
  {
    /* Check the parameters */
    assert_param(IS_RCC_USART1CLKSOURCE(PeriphClkInit->Usart1ClockSelection));
    
    /* Configure the USART1 clock source */
    __HAL_RCC_USART1_CONFIG(PeriphClkInit->Usart1ClockSelection);
 8002f82:	4a5b      	ldr	r2, [pc, #364]	; (80030f0 <HAL_RCCEx_PeriphCLKConfig+0x218>)
 8002f84:	6b13      	ldr	r3, [r2, #48]	; 0x30
 8002f86:	f023 0303 	bic.w	r3, r3, #3
 8002f8a:	68a1      	ldr	r1, [r4, #8]
 8002f8c:	430b      	orrs	r3, r1
 8002f8e:	6313      	str	r3, [r2, #48]	; 0x30
  }

#if defined(RCC_CFGR3_USART2SW)
  /*----------------------------- USART2 Configuration --------------------------*/ 
  if(((PeriphClkInit->PeriphClockSelection) & RCC_PERIPHCLK_USART2) == RCC_PERIPHCLK_USART2)
 8002f90:	6823      	ldr	r3, [r4, #0]
 8002f92:	f013 0f02 	tst.w	r3, #2
 8002f96:	d006      	beq.n	8002fa6 <HAL_RCCEx_PeriphCLKConfig+0xce>
  {
    /* Check the parameters */
    assert_param(IS_RCC_USART2CLKSOURCE(PeriphClkInit->Usart2ClockSelection));
    
    /* Configure the USART2 clock source */
    __HAL_RCC_USART2_CONFIG(PeriphClkInit->Usart2ClockSelection);
 8002f98:	4a55      	ldr	r2, [pc, #340]	; (80030f0 <HAL_RCCEx_PeriphCLKConfig+0x218>)
 8002f9a:	6b13      	ldr	r3, [r2, #48]	; 0x30
 8002f9c:	f423 3340 	bic.w	r3, r3, #196608	; 0x30000
 8002fa0:	68e1      	ldr	r1, [r4, #12]
 8002fa2:	430b      	orrs	r3, r1
 8002fa4:	6313      	str	r3, [r2, #48]	; 0x30
  }
#endif /* RCC_CFGR3_USART2SW */

#if defined(RCC_CFGR3_USART3SW)
  /*------------------------------ USART3 Configuration ------------------------*/ 
  if(((PeriphClkInit->PeriphClockSelection) & RCC_PERIPHCLK_USART3) == RCC_PERIPHCLK_USART3)
 8002fa6:	6823      	ldr	r3, [r4, #0]
 8002fa8:	f013 0f04 	tst.w	r3, #4
 8002fac:	d006      	beq.n	8002fbc <HAL_RCCEx_PeriphCLKConfig+0xe4>
  {
    /* Check the parameters */
    assert_param(IS_RCC_USART3CLKSOURCE(PeriphClkInit->Usart3ClockSelection));
    
    /* Configure the USART3 clock source */
    __HAL_RCC_USART3_CONFIG(PeriphClkInit->Usart3ClockSelection);
 8002fae:	4a50      	ldr	r2, [pc, #320]	; (80030f0 <HAL_RCCEx_PeriphCLKConfig+0x218>)
 8002fb0:	6b13      	ldr	r3, [r2, #48]	; 0x30
 8002fb2:	f423 2340 	bic.w	r3, r3, #786432	; 0xc0000
 8002fb6:	6921      	ldr	r1, [r4, #16]
 8002fb8:	430b      	orrs	r3, r1
 8002fba:	6313      	str	r3, [r2, #48]	; 0x30
  }
#endif /* RCC_CFGR3_USART3SW */

  /*------------------------------ I2C1 Configuration ------------------------*/ 
  if(((PeriphClkInit->PeriphClockSelection) & RCC_PERIPHCLK_I2C1) == RCC_PERIPHCLK_I2C1)
 8002fbc:	6823      	ldr	r3, [r4, #0]
 8002fbe:	f013 0f20 	tst.w	r3, #32
 8002fc2:	d006      	beq.n	8002fd2 <HAL_RCCEx_PeriphCLKConfig+0xfa>
  {
    /* Check the parameters */
    assert_param(IS_RCC_I2C1CLKSOURCE(PeriphClkInit->I2c1ClockSelection));
    
    /* Configure the I2C1 clock source */
    __HAL_RCC_I2C1_CONFIG(PeriphClkInit->I2c1ClockSelection);
 8002fc4:	4a4a      	ldr	r2, [pc, #296]	; (80030f0 <HAL_RCCEx_PeriphCLKConfig+0x218>)
 8002fc6:	6b13      	ldr	r3, [r2, #48]	; 0x30
 8002fc8:	f023 0310 	bic.w	r3, r3, #16
 8002fcc:	69e1      	ldr	r1, [r4, #28]
 8002fce:	430b      	orrs	r3, r1
 8002fd0:	6313      	str	r3, [r2, #48]	; 0x30
#if defined(STM32F302xE) || defined(STM32F303xE)\
 || defined(STM32F302xC) || defined(STM32F303xC)\
 || defined(STM32F302x8)                        \
 || defined(STM32F373xC)
  /*------------------------------ USB Configuration ------------------------*/ 
  if(((PeriphClkInit->PeriphClockSelection) & RCC_PERIPHCLK_USB) == RCC_PERIPHCLK_USB)
 8002fd2:	6823      	ldr	r3, [r4, #0]
 8002fd4:	f413 3f00 	tst.w	r3, #131072	; 0x20000
 8002fd8:	d006      	beq.n	8002fe8 <HAL_RCCEx_PeriphCLKConfig+0x110>
  {
    /* Check the parameters */
    assert_param(IS_RCC_USBCLKSOURCE(PeriphClkInit->USBClockSelection));
    
    /* Configure the USB clock source */
    __HAL_RCC_USB_CONFIG(PeriphClkInit->USBClockSelection);
 8002fda:	4a45      	ldr	r2, [pc, #276]	; (80030f0 <HAL_RCCEx_PeriphCLKConfig+0x218>)
 8002fdc:	6853      	ldr	r3, [r2, #4]
 8002fde:	f423 0380 	bic.w	r3, r3, #4194304	; 0x400000
 8002fe2:	6b21      	ldr	r1, [r4, #48]	; 0x30
 8002fe4:	430b      	orrs	r3, r1
 8002fe6:	6053      	str	r3, [r2, #4]
 || defined(STM32F302xC) || defined(STM32F303xC) || defined(STM32F358xx)\
 || defined(STM32F301x8) || defined(STM32F302x8) || defined(STM32F318xx)\
 || defined(STM32F373xC) || defined(STM32F378xx)

  /*------------------------------ I2C2 Configuration ------------------------*/ 
  if(((PeriphClkInit->PeriphClockSelection) & RCC_PERIPHCLK_I2C2) == RCC_PERIPHCLK_I2C2)
 8002fe8:	6823      	ldr	r3, [r4, #0]
 8002fea:	f013 0f40 	tst.w	r3, #64	; 0x40
 8002fee:	d006      	beq.n	8002ffe <HAL_RCCEx_PeriphCLKConfig+0x126>
  {
    /* Check the parameters */
    assert_param(IS_RCC_I2C2CLKSOURCE(PeriphClkInit->I2c2ClockSelection));
    
    /* Configure the I2C2 clock source */
    __HAL_RCC_I2C2_CONFIG(PeriphClkInit->I2c2ClockSelection);
 8002ff0:	4a3f      	ldr	r2, [pc, #252]	; (80030f0 <HAL_RCCEx_PeriphCLKConfig+0x218>)
 8002ff2:	6b13      	ldr	r3, [r2, #48]	; 0x30
 8002ff4:	f023 0320 	bic.w	r3, r3, #32
 8002ff8:	6a21      	ldr	r1, [r4, #32]
 8002ffa:	430b      	orrs	r3, r1
 8002ffc:	6313      	str	r3, [r2, #48]	; 0x30
  
#if defined(STM32F302xE) || defined(STM32F303xE) || defined(STM32F398xx)\
 || defined(STM32F302xC) || defined(STM32F303xC) || defined(STM32F358xx)

  /*------------------------------ UART4 Configuration ------------------------*/ 
  if(((PeriphClkInit->PeriphClockSelection) & RCC_PERIPHCLK_UART4) == RCC_PERIPHCLK_UART4)
 8002ffe:	6823      	ldr	r3, [r4, #0]
 8003000:	f013 0f08 	tst.w	r3, #8
 8003004:	d006      	beq.n	8003014 <HAL_RCCEx_PeriphCLKConfig+0x13c>
  {
    /* Check the parameters */
    assert_param(IS_RCC_UART4CLKSOURCE(PeriphClkInit->Uart4ClockSelection));
    
    /* Configure the UART4 clock source */
    __HAL_RCC_UART4_CONFIG(PeriphClkInit->Uart4ClockSelection);
 8003006:	4a3a      	ldr	r2, [pc, #232]	; (80030f0 <HAL_RCCEx_PeriphCLKConfig+0x218>)
 8003008:	6b13      	ldr	r3, [r2, #48]	; 0x30
 800300a:	f423 1340 	bic.w	r3, r3, #3145728	; 0x300000
 800300e:	6961      	ldr	r1, [r4, #20]
 8003010:	430b      	orrs	r3, r1
 8003012:	6313      	str	r3, [r2, #48]	; 0x30
  }

  /*------------------------------ UART5 Configuration ------------------------*/ 
  if(((PeriphClkInit->PeriphClockSelection) & RCC_PERIPHCLK_UART5) == RCC_PERIPHCLK_UART5)
 8003014:	6823      	ldr	r3, [r4, #0]
 8003016:	f013 0f10 	tst.w	r3, #16
 800301a:	d006      	beq.n	800302a <HAL_RCCEx_PeriphCLKConfig+0x152>
  {
    /* Check the parameters */
    assert_param(IS_RCC_UART5CLKSOURCE(PeriphClkInit->Uart5ClockSelection));
    
    /* Configure the UART5 clock source */
    __HAL_RCC_UART5_CONFIG(PeriphClkInit->Uart5ClockSelection);
 800301c:	4a34      	ldr	r2, [pc, #208]	; (80030f0 <HAL_RCCEx_PeriphCLKConfig+0x218>)
 800301e:	6b13      	ldr	r3, [r2, #48]	; 0x30
 8003020:	f423 0340 	bic.w	r3, r3, #12582912	; 0xc00000
 8003024:	69a1      	ldr	r1, [r4, #24]
 8003026:	430b      	orrs	r3, r1
 8003028:	6313      	str	r3, [r2, #48]	; 0x30

#if defined(STM32F302xE) || defined(STM32F303xE) || defined(STM32F398xx)\
 || defined(STM32F302xC) || defined(STM32F303xC) || defined(STM32F358xx)\
 || defined(STM32F301x8) || defined(STM32F302x8) || defined(STM32F318xx)
  /*------------------------------ I2S Configuration ------------------------*/ 
  if(((PeriphClkInit->PeriphClockSelection) & RCC_PERIPHCLK_I2S) == RCC_PERIPHCLK_I2S)
 800302a:	6823      	ldr	r3, [r4, #0]
 800302c:	f413 7f00 	tst.w	r3, #512	; 0x200
 8003030:	d006      	beq.n	8003040 <HAL_RCCEx_PeriphCLKConfig+0x168>
  {
    /* Check the parameters */
    assert_param(IS_RCC_I2SCLKSOURCE(PeriphClkInit->I2sClockSelection));
    
    /* Configure the I2S clock source */
    __HAL_RCC_I2S_CONFIG(PeriphClkInit->I2sClockSelection);
 8003032:	4a2f      	ldr	r2, [pc, #188]	; (80030f0 <HAL_RCCEx_PeriphCLKConfig+0x218>)
 8003034:	6853      	ldr	r3, [r2, #4]
 8003036:	f423 0300 	bic.w	r3, r3, #8388608	; 0x800000
 800303a:	6aa1      	ldr	r1, [r4, #40]	; 0x28
 800303c:	430b      	orrs	r3, r1
 800303e:	6053      	str	r3, [r2, #4]
#if defined(STM32F302xE) || defined(STM32F303xE) || defined(STM32F398xx)\
 || defined(STM32F302xC) || defined(STM32F303xC) || defined(STM32F358xx)\
 || defined(STM32F303x8) || defined(STM32F334x8) || defined(STM32F328xx)
      
  /*------------------------------ ADC1 & ADC2 clock Configuration -------------*/ 
  if(((PeriphClkInit->PeriphClockSelection) & RCC_PERIPHCLK_ADC12) == RCC_PERIPHCLK_ADC12)
 8003040:	6823      	ldr	r3, [r4, #0]
 8003042:	f013 0f80 	tst.w	r3, #128	; 0x80
 8003046:	d006      	beq.n	8003056 <HAL_RCCEx_PeriphCLKConfig+0x17e>
  {
    /* Check the parameters */
    assert_param(IS_RCC_ADC12PLLCLK_DIV(PeriphClkInit->Adc12ClockSelection));
    
    /* Configure the ADC12 clock source */
    __HAL_RCC_ADC12_CONFIG(PeriphClkInit->Adc12ClockSelection);
 8003048:	4a29      	ldr	r2, [pc, #164]	; (80030f0 <HAL_RCCEx_PeriphCLKConfig+0x218>)
 800304a:	6ad3      	ldr	r3, [r2, #44]	; 0x2c
 800304c:	f423 73f8 	bic.w	r3, r3, #496	; 0x1f0
 8003050:	6a61      	ldr	r1, [r4, #36]	; 0x24
 8003052:	430b      	orrs	r3, r1
 8003054:	62d3      	str	r3, [r2, #44]	; 0x2c
 || defined(STM32F302xC) || defined(STM32F303xC) || defined(STM32F358xx)\
 || defined(STM32F303x8) || defined(STM32F334x8) || defined(STM32F328xx)\
 || defined(STM32F301x8) || defined(STM32F302x8) || defined(STM32F318xx)

  /*------------------------------ TIM1 clock Configuration ----------------*/ 
  if(((PeriphClkInit->PeriphClockSelection) & RCC_PERIPHCLK_TIM1) == RCC_PERIPHCLK_TIM1)
 8003056:	6823      	ldr	r3, [r4, #0]
 8003058:	f413 5f80 	tst.w	r3, #4096	; 0x1000
 800305c:	d044      	beq.n	80030e8 <HAL_RCCEx_PeriphCLKConfig+0x210>
  {
    /* Check the parameters */
    assert_param(IS_RCC_TIM1CLKSOURCE(PeriphClkInit->Tim1ClockSelection));
    
    /* Configure the TIM1 clock source */
    __HAL_RCC_TIM1_CONFIG(PeriphClkInit->Tim1ClockSelection);
 800305e:	4a24      	ldr	r2, [pc, #144]	; (80030f0 <HAL_RCCEx_PeriphCLKConfig+0x218>)
 8003060:	6b13      	ldr	r3, [r2, #48]	; 0x30
 8003062:	f423 7380 	bic.w	r3, r3, #256	; 0x100
 8003066:	6ae1      	ldr	r1, [r4, #44]	; 0x2c
 8003068:	430b      	orrs	r3, r1
 800306a:	6313      	str	r3, [r2, #48]	; 0x30
    __HAL_RCC_TIM20_CONFIG(PeriphClkInit->Tim20ClockSelection);
  }
#endif /* STM32F303xE || STM32F398xx */  

  
  return HAL_OK;
 800306c:	2000      	movs	r0, #0
 800306e:	e03c      	b.n	80030ea <HAL_RCCEx_PeriphCLKConfig+0x212>
  FlagStatus       pwrclkchanged = RESET;
 8003070:	2600      	movs	r6, #0
 8003072:	e74a      	b.n	8002f0a <HAL_RCCEx_PeriphCLKConfig+0x32>
      SET_BIT(PWR->CR, PWR_CR_DBP);
 8003074:	4a1f      	ldr	r2, [pc, #124]	; (80030f4 <HAL_RCCEx_PeriphCLKConfig+0x21c>)
 8003076:	6813      	ldr	r3, [r2, #0]
 8003078:	f443 7380 	orr.w	r3, r3, #256	; 0x100
 800307c:	6013      	str	r3, [r2, #0]
      tickstart = HAL_GetTick();
 800307e:	f7fd feef 	bl	8000e60 <HAL_GetTick>
 8003082:	4605      	mov	r5, r0
      while(HAL_IS_BIT_CLR(PWR->CR, PWR_CR_DBP))
 8003084:	4f1b      	ldr	r7, [pc, #108]	; (80030f4 <HAL_RCCEx_PeriphCLKConfig+0x21c>)
 8003086:	683b      	ldr	r3, [r7, #0]
 8003088:	f413 7f80 	tst.w	r3, #256	; 0x100
 800308c:	f47f af43 	bne.w	8002f16 <HAL_RCCEx_PeriphCLKConfig+0x3e>
          if((HAL_GetTick() - tickstart) > RCC_DBP_TIMEOUT_VALUE)
 8003090:	f7fd fee6 	bl	8000e60 <HAL_GetTick>
 8003094:	1b40      	subs	r0, r0, r5
 8003096:	2864      	cmp	r0, #100	; 0x64
 8003098:	d9f5      	bls.n	8003086 <HAL_RCCEx_PeriphCLKConfig+0x1ae>
          return HAL_TIMEOUT;
 800309a:	2003      	movs	r0, #3
 800309c:	e025      	b.n	80030ea <HAL_RCCEx_PeriphCLKConfig+0x212>
        tickstart = HAL_GetTick();
 800309e:	f7fd fedf 	bl	8000e60 <HAL_GetTick>
 80030a2:	4607      	mov	r7, r0
 80030a4:	2502      	movs	r5, #2
        while(__HAL_RCC_GET_FLAG(RCC_FLAG_LSERDY) == RESET)
 80030a6:	f8df 9048 	ldr.w	r9, [pc, #72]	; 80030f0 <HAL_RCCEx_PeriphCLKConfig+0x218>
 80030aa:	f04f 0801 	mov.w	r8, #1
 80030ae:	fa95 f3a5 	rbit	r3, r5
 80030b2:	fa95 f3a5 	rbit	r3, r5
 80030b6:	f8d9 2020 	ldr.w	r2, [r9, #32]
 80030ba:	fa95 f3a5 	rbit	r3, r5
 80030be:	fab3 f383 	clz	r3, r3
 80030c2:	fa08 f303 	lsl.w	r3, r8, r3
 80030c6:	4213      	tst	r3, r2
 80030c8:	f47f af4d 	bne.w	8002f66 <HAL_RCCEx_PeriphCLKConfig+0x8e>
            if((HAL_GetTick() - tickstart) > RCC_LSE_TIMEOUT_VALUE)
 80030cc:	f7fd fec8 	bl	8000e60 <HAL_GetTick>
 80030d0:	1bc0      	subs	r0, r0, r7
 80030d2:	f241 3388 	movw	r3, #5000	; 0x1388
 80030d6:	4298      	cmp	r0, r3
 80030d8:	d9e9      	bls.n	80030ae <HAL_RCCEx_PeriphCLKConfig+0x1d6>
            return HAL_TIMEOUT;
 80030da:	2003      	movs	r0, #3
 80030dc:	e005      	b.n	80030ea <HAL_RCCEx_PeriphCLKConfig+0x212>
      __HAL_RCC_PWR_CLK_DISABLE();
 80030de:	69d3      	ldr	r3, [r2, #28]
 80030e0:	f023 5380 	bic.w	r3, r3, #268435456	; 0x10000000
 80030e4:	61d3      	str	r3, [r2, #28]
 80030e6:	e748      	b.n	8002f7a <HAL_RCCEx_PeriphCLKConfig+0xa2>
  return HAL_OK;
 80030e8:	2000      	movs	r0, #0
}
 80030ea:	b003      	add	sp, #12
 80030ec:	e8bd 83f0 	ldmia.w	sp!, {r4, r5, r6, r7, r8, r9, pc}
 80030f0:	40021000 	.word	0x40021000
 80030f4:	40007000 	.word	0x40007000
 80030f8:	10908100 	.word	0x10908100

080030fc <TIM_OC1_SetConfig>:
  * @param  TIMx to select the TIM peripheral
  * @param  OC_Config The output configuration structure
  * @retval None
  */
static void TIM_OC1_SetConfig(TIM_TypeDef *TIMx, const TIM_OC_InitTypeDef *OC_Config)
{
 80030fc:	b470      	push	{r4, r5, r6}
  uint32_t tmpccmrx;
  uint32_t tmpccer;
  uint32_t tmpcr2;

  /* Disable the Channel 1: Reset the CC1E Bit */
  TIMx->CCER &= ~TIM_CCER_CC1E;
 80030fe:	6a03      	ldr	r3, [r0, #32]
 8003100:	f023 0301 	bic.w	r3, r3, #1
 8003104:	6203      	str	r3, [r0, #32]

  /* Get the TIMx CCER register value */
  tmpccer = TIMx->CCER;
 8003106:	6a03      	ldr	r3, [r0, #32]
  /* Get the TIMx CR2 register value */
  tmpcr2 =  TIMx->CR2;
 8003108:	6844      	ldr	r4, [r0, #4]

  /* Get the TIMx CCMR1 register value */
  tmpccmrx = TIMx->CCMR1;
 800310a:	6982      	ldr	r2, [r0, #24]

  /* Reset the Output Compare Mode Bits */
  tmpccmrx &= ~TIM_CCMR1_OC1M;
  tmpccmrx &= ~TIM_CCMR1_CC1S;
 800310c:	f422 3280 	bic.w	r2, r2, #65536	; 0x10000
 8003110:	f022 0273 	bic.w	r2, r2, #115	; 0x73
  /* Select the Output Compare Mode */
  tmpccmrx |= OC_Config->OCMode;
 8003114:	680d      	ldr	r5, [r1, #0]
 8003116:	432a      	orrs	r2, r5

  /* Reset the Output Polarity level */
  tmpccer &= ~TIM_CCER_CC1P;
 8003118:	f023 0302 	bic.w	r3, r3, #2
  /* Set the Output Compare Polarity */
  tmpccer |= OC_Config->OCPolarity;
 800311c:	688d      	ldr	r5, [r1, #8]
 800311e:	432b      	orrs	r3, r5

  if (IS_TIM_CCXN_INSTANCE(TIMx, TIM_CHANNEL_1))
 8003120:	4d1c      	ldr	r5, [pc, #112]	; (8003194 <TIM_OC1_SetConfig+0x98>)
 8003122:	42a8      	cmp	r0, r5
 8003124:	d012      	beq.n	800314c <TIM_OC1_SetConfig+0x50>
 8003126:	f505 55a0 	add.w	r5, r5, #5120	; 0x1400
 800312a:	42a8      	cmp	r0, r5
 800312c:	d023      	beq.n	8003176 <TIM_OC1_SetConfig+0x7a>
 800312e:	f505 6580 	add.w	r5, r5, #1024	; 0x400
 8003132:	42a8      	cmp	r0, r5
 8003134:	d026      	beq.n	8003184 <TIM_OC1_SetConfig+0x88>
 8003136:	f505 6580 	add.w	r5, r5, #1024	; 0x400
 800313a:	42a8      	cmp	r0, r5
 800313c:	d114      	bne.n	8003168 <TIM_OC1_SetConfig+0x6c>
  {
    /* Check parameters */
    assert_param(IS_TIM_OCN_POLARITY(OC_Config->OCNPolarity));

    /* Reset the Output N Polarity level */
    tmpccer &= ~TIM_CCER_CC1NP;
 800313e:	f023 0308 	bic.w	r3, r3, #8
    /* Set the Output N Polarity */
    tmpccer |= OC_Config->OCNPolarity;
 8003142:	68cd      	ldr	r5, [r1, #12]
 8003144:	432b      	orrs	r3, r5
    /* Reset the Output N State */
    tmpccer &= ~TIM_CCER_CC1NE;
 8003146:	f023 0304 	bic.w	r3, r3, #4
  }

  if (IS_TIM_BREAK_INSTANCE(TIMx))
 800314a:	e005      	b.n	8003158 <TIM_OC1_SetConfig+0x5c>
    tmpccer &= ~TIM_CCER_CC1NP;
 800314c:	f023 0308 	bic.w	r3, r3, #8
    tmpccer |= OC_Config->OCNPolarity;
 8003150:	68cd      	ldr	r5, [r1, #12]
 8003152:	432b      	orrs	r3, r5
    tmpccer &= ~TIM_CCER_CC1NE;
 8003154:	f023 0304 	bic.w	r3, r3, #4
    assert_param(IS_TIM_OCNIDLE_STATE(OC_Config->OCNIdleState));
    assert_param(IS_TIM_OCIDLE_STATE(OC_Config->OCIdleState));

    /* Reset the Output Compare and Output Compare N IDLE State */
    tmpcr2 &= ~TIM_CR2_OIS1;
    tmpcr2 &= ~TIM_CR2_OIS1N;
 8003158:	f424 7440 	bic.w	r4, r4, #768	; 0x300
    /* Set the Output Idle state */
    tmpcr2 |= OC_Config->OCIdleState;
    /* Set the Output N Idle state */
    tmpcr2 |= OC_Config->OCNIdleState;
 800315c:	698d      	ldr	r5, [r1, #24]
 800315e:	694e      	ldr	r6, [r1, #20]
 8003160:	ea46 0c05 	orr.w	ip, r6, r5
 8003164:	ea4c 0404 	orr.w	r4, ip, r4
  }

  /* Write to TIMx CR2 */
  TIMx->CR2 = tmpcr2;
 8003168:	6044      	str	r4, [r0, #4]

  /* Write to TIMx CCMR1 */
  TIMx->CCMR1 = tmpccmrx;
 800316a:	6182      	str	r2, [r0, #24]

  /* Set the Capture Compare Register value */
  TIMx->CCR1 = OC_Config->Pulse;
 800316c:	684a      	ldr	r2, [r1, #4]
 800316e:	6342      	str	r2, [r0, #52]	; 0x34

  /* Write to TIMx CCER */
  TIMx->CCER = tmpccer;
 8003170:	6203      	str	r3, [r0, #32]
}
 8003172:	bc70      	pop	{r4, r5, r6}
 8003174:	4770      	bx	lr
    tmpccer &= ~TIM_CCER_CC1NP;
 8003176:	f023 0308 	bic.w	r3, r3, #8
    tmpccer |= OC_Config->OCNPolarity;
 800317a:	68cd      	ldr	r5, [r1, #12]
 800317c:	432b      	orrs	r3, r5
    tmpccer &= ~TIM_CCER_CC1NE;
 800317e:	f023 0304 	bic.w	r3, r3, #4
  if (IS_TIM_BREAK_INSTANCE(TIMx))
 8003182:	e7e9      	b.n	8003158 <TIM_OC1_SetConfig+0x5c>
    tmpccer &= ~TIM_CCER_CC1NP;
 8003184:	f023 0308 	bic.w	r3, r3, #8
    tmpccer |= OC_Config->OCNPolarity;
 8003188:	68cd      	ldr	r5, [r1, #12]
 800318a:	432b      	orrs	r3, r5
    tmpccer &= ~TIM_CCER_CC1NE;
 800318c:	f023 0304 	bic.w	r3, r3, #4
  if (IS_TIM_BREAK_INSTANCE(TIMx))
 8003190:	e7e2      	b.n	8003158 <TIM_OC1_SetConfig+0x5c>
 8003192:	bf00      	nop
 8003194:	40012c00 	.word	0x40012c00

08003198 <TIM_OC3_SetConfig>:
  * @param  TIMx to select the TIM peripheral
  * @param  OC_Config The output configuration structure
  * @retval None
  */
static void TIM_OC3_SetConfig(TIM_TypeDef *TIMx, const TIM_OC_InitTypeDef *OC_Config)
{
 8003198:	b470      	push	{r4, r5, r6}
  uint32_t tmpccmrx;
  uint32_t tmpccer;
  uint32_t tmpcr2;

  /* Disable the Channel 3: Reset the CC2E Bit */
  TIMx->CCER &= ~TIM_CCER_CC3E;
 800319a:	6a03      	ldr	r3, [r0, #32]
 800319c:	f423 7380 	bic.w	r3, r3, #256	; 0x100
 80031a0:	6203      	str	r3, [r0, #32]

  /* Get the TIMx CCER register value */
  tmpccer = TIMx->CCER;
 80031a2:	6a03      	ldr	r3, [r0, #32]
  /* Get the TIMx CR2 register value */
  tmpcr2 =  TIMx->CR2;
 80031a4:	6844      	ldr	r4, [r0, #4]

  /* Get the TIMx CCMR2 register value */
  tmpccmrx = TIMx->CCMR2;
 80031a6:	69c2      	ldr	r2, [r0, #28]

  /* Reset the Output Compare mode and Capture/Compare selection Bits */
  tmpccmrx &= ~TIM_CCMR2_OC3M;
  tmpccmrx &= ~TIM_CCMR2_CC3S;
 80031a8:	f422 3280 	bic.w	r2, r2, #65536	; 0x10000
 80031ac:	f022 0273 	bic.w	r2, r2, #115	; 0x73
  /* Select the Output Compare Mode */
  tmpccmrx |= OC_Config->OCMode;
 80031b0:	680d      	ldr	r5, [r1, #0]
 80031b2:	432a      	orrs	r2, r5

  /* Reset the Output Polarity level */
  tmpccer &= ~TIM_CCER_CC3P;
 80031b4:	f423 7300 	bic.w	r3, r3, #512	; 0x200
  /* Set the Output Compare Polarity */
  tmpccer |= (OC_Config->OCPolarity << 8U);
 80031b8:	688d      	ldr	r5, [r1, #8]
 80031ba:	ea43 2305 	orr.w	r3, r3, r5, lsl #8

  if (IS_TIM_CCXN_INSTANCE(TIMx, TIM_CHANNEL_3))
 80031be:	4d12      	ldr	r5, [pc, #72]	; (8003208 <TIM_OC3_SetConfig+0x70>)
 80031c0:	42a8      	cmp	r0, r5
 80031c2:	d00a      	beq.n	80031da <TIM_OC3_SetConfig+0x42>
    /* Reset the Output N State */
    tmpccer &= ~TIM_CCER_CC3NE;
  }

#if defined(TIM_CR2_OIS3)
  if (IS_TIM_BREAK_INSTANCE(TIMx))
 80031c4:	4d11      	ldr	r5, [pc, #68]	; (800320c <TIM_OC3_SetConfig+0x74>)
 80031c6:	42a8      	cmp	r0, r5
 80031c8:	d00e      	beq.n	80031e8 <TIM_OC3_SetConfig+0x50>
 80031ca:	4d11      	ldr	r5, [pc, #68]	; (8003210 <TIM_OC3_SetConfig+0x78>)
 80031cc:	42a8      	cmp	r0, r5
 80031ce:	d00b      	beq.n	80031e8 <TIM_OC3_SetConfig+0x50>
 80031d0:	f505 6580 	add.w	r5, r5, #1024	; 0x400
 80031d4:	42a8      	cmp	r0, r5
 80031d6:	d10f      	bne.n	80031f8 <TIM_OC3_SetConfig+0x60>
 80031d8:	e006      	b.n	80031e8 <TIM_OC3_SetConfig+0x50>
    tmpccer &= ~TIM_CCER_CC3NP;
 80031da:	f423 6300 	bic.w	r3, r3, #2048	; 0x800
    tmpccer |= (OC_Config->OCNPolarity << 8U);
 80031de:	68cd      	ldr	r5, [r1, #12]
 80031e0:	ea43 2305 	orr.w	r3, r3, r5, lsl #8
    tmpccer &= ~TIM_CCER_CC3NE;
 80031e4:	f423 6380 	bic.w	r3, r3, #1024	; 0x400
    assert_param(IS_TIM_OCNIDLE_STATE(OC_Config->OCNIdleState));
    assert_param(IS_TIM_OCIDLE_STATE(OC_Config->OCIdleState));

    /* Reset the Output Compare and Output Compare N IDLE State */
    tmpcr2 &= ~TIM_CR2_OIS3;
    tmpcr2 &= ~TIM_CR2_OIS3N;
 80031e8:	f424 5440 	bic.w	r4, r4, #12288	; 0x3000
    /* Set the Output Idle state */
    tmpcr2 |= (OC_Config->OCIdleState << 4U);
    /* Set the Output N Idle state */
    tmpcr2 |= (OC_Config->OCNIdleState << 4U);
 80031ec:	698d      	ldr	r5, [r1, #24]
 80031ee:	694e      	ldr	r6, [r1, #20]
 80031f0:	ea46 0c05 	orr.w	ip, r6, r5
 80031f4:	ea44 140c 	orr.w	r4, r4, ip, lsl #4
  }
#endif /* TIM_CR2_OIS3 */

  /* Write to TIMx CR2 */
  TIMx->CR2 = tmpcr2;
 80031f8:	6044      	str	r4, [r0, #4]

  /* Write to TIMx CCMR2 */
  TIMx->CCMR2 = tmpccmrx;
 80031fa:	61c2      	str	r2, [r0, #28]

  /* Set the Capture Compare Register value */
  TIMx->CCR3 = OC_Config->Pulse;
 80031fc:	684a      	ldr	r2, [r1, #4]
 80031fe:	63c2      	str	r2, [r0, #60]	; 0x3c

  /* Write to TIMx CCER */
  TIMx->CCER = tmpccer;
 8003200:	6203      	str	r3, [r0, #32]
}
 8003202:	bc70      	pop	{r4, r5, r6}
 8003204:	4770      	bx	lr
 8003206:	bf00      	nop
 8003208:	40012c00 	.word	0x40012c00
 800320c:	40014000 	.word	0x40014000
 8003210:	40014400 	.word	0x40014400

08003214 <TIM_OC4_SetConfig>:
  * @param  TIMx to select the TIM peripheral
  * @param  OC_Config The output configuration structure
  * @retval None
  */
static void TIM_OC4_SetConfig(TIM_TypeDef *TIMx, const TIM_OC_InitTypeDef *OC_Config)
{
 8003214:	b430      	push	{r4, r5}
  uint32_t tmpccmrx;
  uint32_t tmpccer;
  uint32_t tmpcr2;

  /* Disable the Channel 4: Reset the CC4E Bit */
  TIMx->CCER &= ~TIM_CCER_CC4E;
 8003216:	6a03      	ldr	r3, [r0, #32]
 8003218:	f423 5380 	bic.w	r3, r3, #4096	; 0x1000
 800321c:	6203      	str	r3, [r0, #32]

  /* Get the TIMx CCER register value */
  tmpccer = TIMx->CCER;
 800321e:	6a02      	ldr	r2, [r0, #32]
  /* Get the TIMx CR2 register value */
  tmpcr2 =  TIMx->CR2;
 8003220:	6844      	ldr	r4, [r0, #4]

  /* Get the TIMx CCMR2 register value */
  tmpccmrx = TIMx->CCMR2;
 8003222:	69c3      	ldr	r3, [r0, #28]

  /* Reset the Output Compare mode and Capture/Compare selection Bits */
  tmpccmrx &= ~TIM_CCMR2_OC4M;
  tmpccmrx &= ~TIM_CCMR2_CC4S;
 8003224:	f023 7380 	bic.w	r3, r3, #16777216	; 0x1000000
 8003228:	f423 43e6 	bic.w	r3, r3, #29440	; 0x7300

  /* Select the Output Compare Mode */
  tmpccmrx |= (OC_Config->OCMode << 8U);
 800322c:	680d      	ldr	r5, [r1, #0]
 800322e:	ea43 2305 	orr.w	r3, r3, r5, lsl #8

  /* Reset the Output Polarity level */
  tmpccer &= ~TIM_CCER_CC4P;
 8003232:	f422 5200 	bic.w	r2, r2, #8192	; 0x2000
  /* Set the Output Compare Polarity */
  tmpccer |= (OC_Config->OCPolarity << 12U);
 8003236:	688d      	ldr	r5, [r1, #8]
 8003238:	ea42 3205 	orr.w	r2, r2, r5, lsl #12

#if defined(TIM_CR2_OIS4)
  if (IS_TIM_BREAK_INSTANCE(TIMx))
 800323c:	4d0d      	ldr	r5, [pc, #52]	; (8003274 <TIM_OC4_SetConfig+0x60>)
 800323e:	42a8      	cmp	r0, r5
 8003240:	d00b      	beq.n	800325a <TIM_OC4_SetConfig+0x46>
 8003242:	f505 55a0 	add.w	r5, r5, #5120	; 0x1400
 8003246:	42a8      	cmp	r0, r5
 8003248:	d007      	beq.n	800325a <TIM_OC4_SetConfig+0x46>
 800324a:	f505 6580 	add.w	r5, r5, #1024	; 0x400
 800324e:	42a8      	cmp	r0, r5
 8003250:	d003      	beq.n	800325a <TIM_OC4_SetConfig+0x46>
 8003252:	f505 6580 	add.w	r5, r5, #1024	; 0x400
 8003256:	42a8      	cmp	r0, r5
 8003258:	d104      	bne.n	8003264 <TIM_OC4_SetConfig+0x50>
  {
    /* Check parameters */
    assert_param(IS_TIM_OCIDLE_STATE(OC_Config->OCIdleState));

    /* Reset the Output Compare IDLE State */
    tmpcr2 &= ~TIM_CR2_OIS4;
 800325a:	f424 4480 	bic.w	r4, r4, #16384	; 0x4000

    /* Set the Output Idle state */
    tmpcr2 |= (OC_Config->OCIdleState << 6U);
 800325e:	694d      	ldr	r5, [r1, #20]
 8003260:	ea44 1485 	orr.w	r4, r4, r5, lsl #6
  }
#endif /* TIM_CR2_OIS4 */

  /* Write to TIMx CR2 */
  TIMx->CR2 = tmpcr2;
 8003264:	6044      	str	r4, [r0, #4]

  /* Write to TIMx CCMR2 */
  TIMx->CCMR2 = tmpccmrx;
 8003266:	61c3      	str	r3, [r0, #28]

  /* Set the Capture Compare Register value */
  TIMx->CCR4 = OC_Config->Pulse;
 8003268:	684b      	ldr	r3, [r1, #4]
 800326a:	6403      	str	r3, [r0, #64]	; 0x40

  /* Write to TIMx CCER */
  TIMx->CCER = tmpccer;
 800326c:	6202      	str	r2, [r0, #32]
}
 800326e:	bc30      	pop	{r4, r5}
 8003270:	4770      	bx	lr
 8003272:	bf00      	nop
 8003274:	40012c00 	.word	0x40012c00

08003278 <TIM_OC5_SetConfig>:
  * @param  OC_Config The output configuration structure
  * @retval None
  */
static void TIM_OC5_SetConfig(TIM_TypeDef *TIMx,
                              const TIM_OC_InitTypeDef *OC_Config)
{
 8003278:	b430      	push	{r4, r5}
  uint32_t tmpccmrx;
  uint32_t tmpccer;
  uint32_t tmpcr2;

  /* Disable the output: Reset the CCxE Bit */
  TIMx->CCER &= ~TIM_CCER_CC5E;
 800327a:	6a03      	ldr	r3, [r0, #32]
 800327c:	f423 3380 	bic.w	r3, r3, #65536	; 0x10000
 8003280:	6203      	str	r3, [r0, #32]

  /* Get the TIMx CCER register value */
  tmpccer = TIMx->CCER;
 8003282:	6a02      	ldr	r2, [r0, #32]
  /* Get the TIMx CR2 register value */
  tmpcr2 =  TIMx->CR2;
 8003284:	6844      	ldr	r4, [r0, #4]
  /* Get the TIMx CCMR1 register value */
  tmpccmrx = TIMx->CCMR3;
 8003286:	6d43      	ldr	r3, [r0, #84]	; 0x54

  /* Reset the Output Compare Mode Bits */
  tmpccmrx &= ~(TIM_CCMR3_OC5M);
 8003288:	f423 3380 	bic.w	r3, r3, #65536	; 0x10000
 800328c:	f023 0370 	bic.w	r3, r3, #112	; 0x70
  /* Select the Output Compare Mode */
  tmpccmrx |= OC_Config->OCMode;
 8003290:	680d      	ldr	r5, [r1, #0]
 8003292:	432b      	orrs	r3, r5

  /* Reset the Output Polarity level */
  tmpccer &= ~TIM_CCER_CC5P;
 8003294:	f422 3200 	bic.w	r2, r2, #131072	; 0x20000
  /* Set the Output Compare Polarity */
  tmpccer |= (OC_Config->OCPolarity << 16U);
 8003298:	688d      	ldr	r5, [r1, #8]
 800329a:	ea42 4205 	orr.w	r2, r2, r5, lsl #16

  if (IS_TIM_BREAK_INSTANCE(TIMx))
 800329e:	4d0d      	ldr	r5, [pc, #52]	; (80032d4 <TIM_OC5_SetConfig+0x5c>)
 80032a0:	42a8      	cmp	r0, r5
 80032a2:	d00b      	beq.n	80032bc <TIM_OC5_SetConfig+0x44>
 80032a4:	f505 55a0 	add.w	r5, r5, #5120	; 0x1400
 80032a8:	42a8      	cmp	r0, r5
 80032aa:	d007      	beq.n	80032bc <TIM_OC5_SetConfig+0x44>
 80032ac:	f505 6580 	add.w	r5, r5, #1024	; 0x400
 80032b0:	42a8      	cmp	r0, r5
 80032b2:	d003      	beq.n	80032bc <TIM_OC5_SetConfig+0x44>
 80032b4:	f505 6580 	add.w	r5, r5, #1024	; 0x400
 80032b8:	42a8      	cmp	r0, r5
 80032ba:	d104      	bne.n	80032c6 <TIM_OC5_SetConfig+0x4e>
  {
    /* Reset the Output Compare IDLE State */
    tmpcr2 &= ~TIM_CR2_OIS5;
 80032bc:	f424 3480 	bic.w	r4, r4, #65536	; 0x10000
    /* Set the Output Idle state */
    tmpcr2 |= (OC_Config->OCIdleState << 8U);
 80032c0:	694d      	ldr	r5, [r1, #20]
 80032c2:	ea44 2405 	orr.w	r4, r4, r5, lsl #8
  }
  /* Write to TIMx CR2 */
  TIMx->CR2 = tmpcr2;
 80032c6:	6044      	str	r4, [r0, #4]

  /* Write to TIMx CCMR3 */
  TIMx->CCMR3 = tmpccmrx;
 80032c8:	6543      	str	r3, [r0, #84]	; 0x54

  /* Set the Capture Compare Register value */
  TIMx->CCR5 = OC_Config->Pulse;
 80032ca:	684b      	ldr	r3, [r1, #4]
 80032cc:	6583      	str	r3, [r0, #88]	; 0x58

  /* Write to TIMx CCER */
  TIMx->CCER = tmpccer;
 80032ce:	6202      	str	r2, [r0, #32]
}
 80032d0:	bc30      	pop	{r4, r5}
 80032d2:	4770      	bx	lr
 80032d4:	40012c00 	.word	0x40012c00

080032d8 <TIM_OC6_SetConfig>:
  * @param  OC_Config The output configuration structure
  * @retval None
  */
static void TIM_OC6_SetConfig(TIM_TypeDef *TIMx,
                              const TIM_OC_InitTypeDef *OC_Config)
{
 80032d8:	b430      	push	{r4, r5}
  uint32_t tmpccmrx;
  uint32_t tmpccer;
  uint32_t tmpcr2;

  /* Disable the output: Reset the CCxE Bit */
  TIMx->CCER &= ~TIM_CCER_CC6E;
 80032da:	6a03      	ldr	r3, [r0, #32]
 80032dc:	f423 1380 	bic.w	r3, r3, #1048576	; 0x100000
 80032e0:	6203      	str	r3, [r0, #32]

  /* Get the TIMx CCER register value */
  tmpccer = TIMx->CCER;
 80032e2:	6a02      	ldr	r2, [r0, #32]
  /* Get the TIMx CR2 register value */
  tmpcr2 =  TIMx->CR2;
 80032e4:	6844      	ldr	r4, [r0, #4]
  /* Get the TIMx CCMR1 register value */
  tmpccmrx = TIMx->CCMR3;
 80032e6:	6d43      	ldr	r3, [r0, #84]	; 0x54

  /* Reset the Output Compare Mode Bits */
  tmpccmrx &= ~(TIM_CCMR3_OC6M);
 80032e8:	f023 7380 	bic.w	r3, r3, #16777216	; 0x1000000
 80032ec:	f423 43e0 	bic.w	r3, r3, #28672	; 0x7000
  /* Select the Output Compare Mode */
  tmpccmrx |= (OC_Config->OCMode << 8U);
 80032f0:	680d      	ldr	r5, [r1, #0]
 80032f2:	ea43 2305 	orr.w	r3, r3, r5, lsl #8

  /* Reset the Output Polarity level */
  tmpccer &= (uint32_t)~TIM_CCER_CC6P;
 80032f6:	f422 1200 	bic.w	r2, r2, #2097152	; 0x200000
  /* Set the Output Compare Polarity */
  tmpccer |= (OC_Config->OCPolarity << 20U);
 80032fa:	688d      	ldr	r5, [r1, #8]
 80032fc:	ea42 5205 	orr.w	r2, r2, r5, lsl #20

  if (IS_TIM_BREAK_INSTANCE(TIMx))
 8003300:	4d0d      	ldr	r5, [pc, #52]	; (8003338 <TIM_OC6_SetConfig+0x60>)
 8003302:	42a8      	cmp	r0, r5
 8003304:	d00b      	beq.n	800331e <TIM_OC6_SetConfig+0x46>
 8003306:	f505 55a0 	add.w	r5, r5, #5120	; 0x1400
 800330a:	42a8      	cmp	r0, r5
 800330c:	d007      	beq.n	800331e <TIM_OC6_SetConfig+0x46>
 800330e:	f505 6580 	add.w	r5, r5, #1024	; 0x400
 8003312:	42a8      	cmp	r0, r5
 8003314:	d003      	beq.n	800331e <TIM_OC6_SetConfig+0x46>
 8003316:	f505 6580 	add.w	r5, r5, #1024	; 0x400
 800331a:	42a8      	cmp	r0, r5
 800331c:	d104      	bne.n	8003328 <TIM_OC6_SetConfig+0x50>
  {
    /* Reset the Output Compare IDLE State */
    tmpcr2 &= ~TIM_CR2_OIS6;
 800331e:	f424 2480 	bic.w	r4, r4, #262144	; 0x40000
    /* Set the Output Idle state */
    tmpcr2 |= (OC_Config->OCIdleState << 10U);
 8003322:	694d      	ldr	r5, [r1, #20]
 8003324:	ea44 2485 	orr.w	r4, r4, r5, lsl #10
  }

  /* Write to TIMx CR2 */
  TIMx->CR2 = tmpcr2;
 8003328:	6044      	str	r4, [r0, #4]

  /* Write to TIMx CCMR3 */
  TIMx->CCMR3 = tmpccmrx;
 800332a:	6543      	str	r3, [r0, #84]	; 0x54

  /* Set the Capture Compare Register value */
  TIMx->CCR6 = OC_Config->Pulse;
 800332c:	684b      	ldr	r3, [r1, #4]
 800332e:	65c3      	str	r3, [r0, #92]	; 0x5c

  /* Write to TIMx CCER */
  TIMx->CCER = tmpccer;
 8003330:	6202      	str	r2, [r0, #32]
}
 8003332:	bc30      	pop	{r4, r5}
 8003334:	4770      	bx	lr
 8003336:	bf00      	nop
 8003338:	40012c00 	.word	0x40012c00

0800333c <HAL_TIM_Base_Start_IT>:
  if (htim->State != HAL_TIM_STATE_READY)
 800333c:	f890 303d 	ldrb.w	r3, [r0, #61]	; 0x3d
 8003340:	b2db      	uxtb	r3, r3
 8003342:	2b01      	cmp	r3, #1
 8003344:	d12e      	bne.n	80033a4 <HAL_TIM_Base_Start_IT+0x68>
  htim->State = HAL_TIM_STATE_BUSY;
 8003346:	2302      	movs	r3, #2
 8003348:	f880 303d 	strb.w	r3, [r0, #61]	; 0x3d
  __HAL_TIM_ENABLE_IT(htim, TIM_IT_UPDATE);
 800334c:	6802      	ldr	r2, [r0, #0]
 800334e:	68d3      	ldr	r3, [r2, #12]
 8003350:	f043 0301 	orr.w	r3, r3, #1
 8003354:	60d3      	str	r3, [r2, #12]
  if (IS_TIM_SLAVE_INSTANCE(htim->Instance))
 8003356:	6803      	ldr	r3, [r0, #0]
 8003358:	4a15      	ldr	r2, [pc, #84]	; (80033b0 <HAL_TIM_Base_Start_IT+0x74>)
 800335a:	4293      	cmp	r3, r2
 800335c:	d014      	beq.n	8003388 <HAL_TIM_Base_Start_IT+0x4c>
 800335e:	f1b3 4f80 	cmp.w	r3, #1073741824	; 0x40000000
 8003362:	d011      	beq.n	8003388 <HAL_TIM_Base_Start_IT+0x4c>
 8003364:	f5a2 3294 	sub.w	r2, r2, #75776	; 0x12800
 8003368:	4293      	cmp	r3, r2
 800336a:	d00d      	beq.n	8003388 <HAL_TIM_Base_Start_IT+0x4c>
 800336c:	f502 6280 	add.w	r2, r2, #1024	; 0x400
 8003370:	4293      	cmp	r3, r2
 8003372:	d009      	beq.n	8003388 <HAL_TIM_Base_Start_IT+0x4c>
 8003374:	f502 329c 	add.w	r2, r2, #79872	; 0x13800
 8003378:	4293      	cmp	r3, r2
 800337a:	d005      	beq.n	8003388 <HAL_TIM_Base_Start_IT+0x4c>
    __HAL_TIM_ENABLE(htim);
 800337c:	681a      	ldr	r2, [r3, #0]
 800337e:	f042 0201 	orr.w	r2, r2, #1
 8003382:	601a      	str	r2, [r3, #0]
  return HAL_OK;
 8003384:	2000      	movs	r0, #0
 8003386:	4770      	bx	lr
    tmpsmcr = htim->Instance->SMCR & TIM_SMCR_SMS;
 8003388:	6899      	ldr	r1, [r3, #8]
 800338a:	4a0a      	ldr	r2, [pc, #40]	; (80033b4 <HAL_TIM_Base_Start_IT+0x78>)
 800338c:	400a      	ands	r2, r1
    if (!IS_TIM_SLAVEMODE_TRIGGER_ENABLED(tmpsmcr))
 800338e:	2a06      	cmp	r2, #6
 8003390:	d00a      	beq.n	80033a8 <HAL_TIM_Base_Start_IT+0x6c>
 8003392:	f5b2 3f80 	cmp.w	r2, #65536	; 0x10000
 8003396:	d009      	beq.n	80033ac <HAL_TIM_Base_Start_IT+0x70>
      __HAL_TIM_ENABLE(htim);
 8003398:	681a      	ldr	r2, [r3, #0]
 800339a:	f042 0201 	orr.w	r2, r2, #1
 800339e:	601a      	str	r2, [r3, #0]
  return HAL_OK;
 80033a0:	2000      	movs	r0, #0
 80033a2:	4770      	bx	lr
    return HAL_ERROR;
 80033a4:	2001      	movs	r0, #1
 80033a6:	4770      	bx	lr
  return HAL_OK;
 80033a8:	2000      	movs	r0, #0
 80033aa:	4770      	bx	lr
 80033ac:	2000      	movs	r0, #0
}
 80033ae:	4770      	bx	lr
 80033b0:	40012c00 	.word	0x40012c00
 80033b4:	00010007 	.word	0x00010007

080033b8 <HAL_TIM_PWM_MspInit>:
}
 80033b8:	4770      	bx	lr

080033ba <HAL_TIM_PeriodElapsedCallback>:
}
 80033ba:	4770      	bx	lr

080033bc <HAL_TIM_OC_DelayElapsedCallback>:
}
 80033bc:	4770      	bx	lr

080033be <HAL_TIM_IC_CaptureCallback>:
}
 80033be:	4770      	bx	lr

080033c0 <HAL_TIM_PWM_PulseFinishedCallback>:
}
 80033c0:	4770      	bx	lr

080033c2 <HAL_TIM_TriggerCallback>:
}
 80033c2:	4770      	bx	lr

080033c4 <HAL_TIM_IRQHandler>:
{
 80033c4:	b510      	push	{r4, lr}
 80033c6:	4604      	mov	r4, r0
  if (__HAL_TIM_GET_FLAG(htim, TIM_FLAG_CC1) != RESET)
 80033c8:	6803      	ldr	r3, [r0, #0]
 80033ca:	691a      	ldr	r2, [r3, #16]
 80033cc:	f012 0f02 	tst.w	r2, #2
 80033d0:	d011      	beq.n	80033f6 <HAL_TIM_IRQHandler+0x32>
    if (__HAL_TIM_GET_IT_SOURCE(htim, TIM_IT_CC1) != RESET)
 80033d2:	68da      	ldr	r2, [r3, #12]
 80033d4:	f012 0f02 	tst.w	r2, #2
 80033d8:	d00d      	beq.n	80033f6 <HAL_TIM_IRQHandler+0x32>
        __HAL_TIM_CLEAR_IT(htim, TIM_IT_CC1);
 80033da:	f06f 0202 	mvn.w	r2, #2
 80033de:	611a      	str	r2, [r3, #16]
        htim->Channel = HAL_TIM_ACTIVE_CHANNEL_1;
 80033e0:	2301      	movs	r3, #1
 80033e2:	7703      	strb	r3, [r0, #28]
        if ((htim->Instance->CCMR1 & TIM_CCMR1_CC1S) != 0x00U)
 80033e4:	6803      	ldr	r3, [r0, #0]
 80033e6:	699b      	ldr	r3, [r3, #24]
 80033e8:	f013 0f03 	tst.w	r3, #3
 80033ec:	d079      	beq.n	80034e2 <HAL_TIM_IRQHandler+0x11e>
          HAL_TIM_IC_CaptureCallback(htim);
 80033ee:	f7ff ffe6 	bl	80033be <HAL_TIM_IC_CaptureCallback>
        htim->Channel = HAL_TIM_ACTIVE_CHANNEL_CLEARED;
 80033f2:	2300      	movs	r3, #0
 80033f4:	7723      	strb	r3, [r4, #28]
  if (__HAL_TIM_GET_FLAG(htim, TIM_FLAG_CC2) != RESET)
 80033f6:	6823      	ldr	r3, [r4, #0]
 80033f8:	691a      	ldr	r2, [r3, #16]
 80033fa:	f012 0f04 	tst.w	r2, #4
 80033fe:	d012      	beq.n	8003426 <HAL_TIM_IRQHandler+0x62>
    if (__HAL_TIM_GET_IT_SOURCE(htim, TIM_IT_CC2) != RESET)
 8003400:	68da      	ldr	r2, [r3, #12]
 8003402:	f012 0f04 	tst.w	r2, #4
 8003406:	d00e      	beq.n	8003426 <HAL_TIM_IRQHandler+0x62>
      __HAL_TIM_CLEAR_IT(htim, TIM_IT_CC2);
 8003408:	f06f 0204 	mvn.w	r2, #4
 800340c:	611a      	str	r2, [r3, #16]
      htim->Channel = HAL_TIM_ACTIVE_CHANNEL_2;
 800340e:	2302      	movs	r3, #2
 8003410:	7723      	strb	r3, [r4, #28]
      if ((htim->Instance->CCMR1 & TIM_CCMR1_CC2S) != 0x00U)
 8003412:	6823      	ldr	r3, [r4, #0]
 8003414:	699b      	ldr	r3, [r3, #24]
 8003416:	f413 7f40 	tst.w	r3, #768	; 0x300
 800341a:	d068      	beq.n	80034ee <HAL_TIM_IRQHandler+0x12a>
        HAL_TIM_IC_CaptureCallback(htim);
 800341c:	4620      	mov	r0, r4
 800341e:	f7ff ffce 	bl	80033be <HAL_TIM_IC_CaptureCallback>
      htim->Channel = HAL_TIM_ACTIVE_CHANNEL_CLEARED;
 8003422:	2300      	movs	r3, #0
 8003424:	7723      	strb	r3, [r4, #28]
  if (__HAL_TIM_GET_FLAG(htim, TIM_FLAG_CC3) != RESET)
 8003426:	6823      	ldr	r3, [r4, #0]
 8003428:	691a      	ldr	r2, [r3, #16]
 800342a:	f012 0f08 	tst.w	r2, #8
 800342e:	d012      	beq.n	8003456 <HAL_TIM_IRQHandler+0x92>
    if (__HAL_TIM_GET_IT_SOURCE(htim, TIM_IT_CC3) != RESET)
 8003430:	68da      	ldr	r2, [r3, #12]
 8003432:	f012 0f08 	tst.w	r2, #8
 8003436:	d00e      	beq.n	8003456 <HAL_TIM_IRQHandler+0x92>
      __HAL_TIM_CLEAR_IT(htim, TIM_IT_CC3);
 8003438:	f06f 0208 	mvn.w	r2, #8
 800343c:	611a      	str	r2, [r3, #16]
      htim->Channel = HAL_TIM_ACTIVE_CHANNEL_3;
 800343e:	2304      	movs	r3, #4
 8003440:	7723      	strb	r3, [r4, #28]
      if ((htim->Instance->CCMR2 & TIM_CCMR2_CC3S) != 0x00U)
 8003442:	6823      	ldr	r3, [r4, #0]
 8003444:	69db      	ldr	r3, [r3, #28]
 8003446:	f013 0f03 	tst.w	r3, #3
 800344a:	d057      	beq.n	80034fc <HAL_TIM_IRQHandler+0x138>
        HAL_TIM_IC_CaptureCallback(htim);
 800344c:	4620      	mov	r0, r4
 800344e:	f7ff ffb6 	bl	80033be <HAL_TIM_IC_CaptureCallback>
      htim->Channel = HAL_TIM_ACTIVE_CHANNEL_CLEARED;
 8003452:	2300      	movs	r3, #0
 8003454:	7723      	strb	r3, [r4, #28]
  if (__HAL_TIM_GET_FLAG(htim, TIM_FLAG_CC4) != RESET)
 8003456:	6823      	ldr	r3, [r4, #0]
 8003458:	691a      	ldr	r2, [r3, #16]
 800345a:	f012 0f10 	tst.w	r2, #16
 800345e:	d012      	beq.n	8003486 <HAL_TIM_IRQHandler+0xc2>
    if (__HAL_TIM_GET_IT_SOURCE(htim, TIM_IT_CC4) != RESET)
 8003460:	68da      	ldr	r2, [r3, #12]
 8003462:	f012 0f10 	tst.w	r2, #16
 8003466:	d00e      	beq.n	8003486 <HAL_TIM_IRQHandler+0xc2>
      __HAL_TIM_CLEAR_IT(htim, TIM_IT_CC4);
 8003468:	f06f 0210 	mvn.w	r2, #16
 800346c:	611a      	str	r2, [r3, #16]
      htim->Channel = HAL_TIM_ACTIVE_CHANNEL_4;
 800346e:	2308      	movs	r3, #8
 8003470:	7723      	strb	r3, [r4, #28]
      if ((htim->Instance->CCMR2 & TIM_CCMR2_CC4S) != 0x00U)
 8003472:	6823      	ldr	r3, [r4, #0]
 8003474:	69db      	ldr	r3, [r3, #28]
 8003476:	f413 7f40 	tst.w	r3, #768	; 0x300
 800347a:	d046      	beq.n	800350a <HAL_TIM_IRQHandler+0x146>
        HAL_TIM_IC_CaptureCallback(htim);
 800347c:	4620      	mov	r0, r4
 800347e:	f7ff ff9e 	bl	80033be <HAL_TIM_IC_CaptureCallback>
      htim->Channel = HAL_TIM_ACTIVE_CHANNEL_CLEARED;
 8003482:	2300      	movs	r3, #0
 8003484:	7723      	strb	r3, [r4, #28]
  if (__HAL_TIM_GET_FLAG(htim, TIM_FLAG_UPDATE) != RESET)
 8003486:	6823      	ldr	r3, [r4, #0]
 8003488:	691a      	ldr	r2, [r3, #16]
 800348a:	f012 0f01 	tst.w	r2, #1
 800348e:	d003      	beq.n	8003498 <HAL_TIM_IRQHandler+0xd4>
    if (__HAL_TIM_GET_IT_SOURCE(htim, TIM_IT_UPDATE) != RESET)
 8003490:	68da      	ldr	r2, [r3, #12]
 8003492:	f012 0f01 	tst.w	r2, #1
 8003496:	d13f      	bne.n	8003518 <HAL_TIM_IRQHandler+0x154>
  if (__HAL_TIM_GET_FLAG(htim, TIM_FLAG_BREAK) != RESET)
 8003498:	6823      	ldr	r3, [r4, #0]
 800349a:	691a      	ldr	r2, [r3, #16]
 800349c:	f012 0f80 	tst.w	r2, #128	; 0x80
 80034a0:	d003      	beq.n	80034aa <HAL_TIM_IRQHandler+0xe6>
    if (__HAL_TIM_GET_IT_SOURCE(htim, TIM_IT_BREAK) != RESET)
 80034a2:	68da      	ldr	r2, [r3, #12]
 80034a4:	f012 0f80 	tst.w	r2, #128	; 0x80
 80034a8:	d13d      	bne.n	8003526 <HAL_TIM_IRQHandler+0x162>
  if (__HAL_TIM_GET_FLAG(htim, TIM_FLAG_BREAK2) != RESET)
 80034aa:	6823      	ldr	r3, [r4, #0]
 80034ac:	691a      	ldr	r2, [r3, #16]
 80034ae:	f412 7f80 	tst.w	r2, #256	; 0x100
 80034b2:	d003      	beq.n	80034bc <HAL_TIM_IRQHandler+0xf8>
    if (__HAL_TIM_GET_IT_SOURCE(htim, TIM_IT_BREAK) != RESET)
 80034b4:	68da      	ldr	r2, [r3, #12]
 80034b6:	f012 0f80 	tst.w	r2, #128	; 0x80
 80034ba:	d13b      	bne.n	8003534 <HAL_TIM_IRQHandler+0x170>
  if (__HAL_TIM_GET_FLAG(htim, TIM_FLAG_TRIGGER) != RESET)
 80034bc:	6823      	ldr	r3, [r4, #0]
 80034be:	691a      	ldr	r2, [r3, #16]
 80034c0:	f012 0f40 	tst.w	r2, #64	; 0x40
 80034c4:	d003      	beq.n	80034ce <HAL_TIM_IRQHandler+0x10a>
    if (__HAL_TIM_GET_IT_SOURCE(htim, TIM_IT_TRIGGER) != RESET)
 80034c6:	68da      	ldr	r2, [r3, #12]
 80034c8:	f012 0f40 	tst.w	r2, #64	; 0x40
 80034cc:	d139      	bne.n	8003542 <HAL_TIM_IRQHandler+0x17e>
  if (__HAL_TIM_GET_FLAG(htim, TIM_FLAG_COM) != RESET)
 80034ce:	6823      	ldr	r3, [r4, #0]
 80034d0:	691a      	ldr	r2, [r3, #16]
 80034d2:	f012 0f20 	tst.w	r2, #32
 80034d6:	d003      	beq.n	80034e0 <HAL_TIM_IRQHandler+0x11c>
    if (__HAL_TIM_GET_IT_SOURCE(htim, TIM_IT_COM) != RESET)
 80034d8:	68da      	ldr	r2, [r3, #12]
 80034da:	f012 0f20 	tst.w	r2, #32
 80034de:	d137      	bne.n	8003550 <HAL_TIM_IRQHandler+0x18c>
}
 80034e0:	bd10      	pop	{r4, pc}
          HAL_TIM_OC_DelayElapsedCallback(htim);
 80034e2:	f7ff ff6b 	bl	80033bc <HAL_TIM_OC_DelayElapsedCallback>
          HAL_TIM_PWM_PulseFinishedCallback(htim);
 80034e6:	4620      	mov	r0, r4
 80034e8:	f7ff ff6a 	bl	80033c0 <HAL_TIM_PWM_PulseFinishedCallback>
 80034ec:	e781      	b.n	80033f2 <HAL_TIM_IRQHandler+0x2e>
        HAL_TIM_OC_DelayElapsedCallback(htim);
 80034ee:	4620      	mov	r0, r4
 80034f0:	f7ff ff64 	bl	80033bc <HAL_TIM_OC_DelayElapsedCallback>
        HAL_TIM_PWM_PulseFinishedCallback(htim);
 80034f4:	4620      	mov	r0, r4
 80034f6:	f7ff ff63 	bl	80033c0 <HAL_TIM_PWM_PulseFinishedCallback>
 80034fa:	e792      	b.n	8003422 <HAL_TIM_IRQHandler+0x5e>
        HAL_TIM_OC_DelayElapsedCallback(htim);
 80034fc:	4620      	mov	r0, r4
 80034fe:	f7ff ff5d 	bl	80033bc <HAL_TIM_OC_DelayElapsedCallback>
        HAL_TIM_PWM_PulseFinishedCallback(htim);
 8003502:	4620      	mov	r0, r4
 8003504:	f7ff ff5c 	bl	80033c0 <HAL_TIM_PWM_PulseFinishedCallback>
 8003508:	e7a3      	b.n	8003452 <HAL_TIM_IRQHandler+0x8e>
        HAL_TIM_OC_DelayElapsedCallback(htim);
 800350a:	4620      	mov	r0, r4
 800350c:	f7ff ff56 	bl	80033bc <HAL_TIM_OC_DelayElapsedCallback>
        HAL_TIM_PWM_PulseFinishedCallback(htim);
 8003510:	4620      	mov	r0, r4
 8003512:	f7ff ff55 	bl	80033c0 <HAL_TIM_PWM_PulseFinishedCallback>
 8003516:	e7b4      	b.n	8003482 <HAL_TIM_IRQHandler+0xbe>
      __HAL_TIM_CLEAR_IT(htim, TIM_IT_UPDATE);
 8003518:	f06f 0201 	mvn.w	r2, #1
 800351c:	611a      	str	r2, [r3, #16]
      HAL_TIM_PeriodElapsedCallback(htim);
 800351e:	4620      	mov	r0, r4
 8003520:	f7ff ff4b 	bl	80033ba <HAL_TIM_PeriodElapsedCallback>
 8003524:	e7b8      	b.n	8003498 <HAL_TIM_IRQHandler+0xd4>
      __HAL_TIM_CLEAR_IT(htim, TIM_IT_BREAK);
 8003526:	f06f 0280 	mvn.w	r2, #128	; 0x80
 800352a:	611a      	str	r2, [r3, #16]
      HAL_TIMEx_BreakCallback(htim);
 800352c:	4620      	mov	r0, r4
 800352e:	f000 fada 	bl	8003ae6 <HAL_TIMEx_BreakCallback>
 8003532:	e7ba      	b.n	80034aa <HAL_TIM_IRQHandler+0xe6>
      __HAL_TIM_CLEAR_FLAG(htim, TIM_FLAG_BREAK2);
 8003534:	f46f 7280 	mvn.w	r2, #256	; 0x100
 8003538:	611a      	str	r2, [r3, #16]
      HAL_TIMEx_Break2Callback(htim);
 800353a:	4620      	mov	r0, r4
 800353c:	f000 fad4 	bl	8003ae8 <HAL_TIMEx_Break2Callback>
 8003540:	e7bc      	b.n	80034bc <HAL_TIM_IRQHandler+0xf8>
      __HAL_TIM_CLEAR_IT(htim, TIM_IT_TRIGGER);
 8003542:	f06f 0240 	mvn.w	r2, #64	; 0x40
 8003546:	611a      	str	r2, [r3, #16]
      HAL_TIM_TriggerCallback(htim);
 8003548:	4620      	mov	r0, r4
 800354a:	f7ff ff3a 	bl	80033c2 <HAL_TIM_TriggerCallback>
 800354e:	e7be      	b.n	80034ce <HAL_TIM_IRQHandler+0x10a>
      __HAL_TIM_CLEAR_IT(htim, TIM_FLAG_COM);
 8003550:	f06f 0220 	mvn.w	r2, #32
 8003554:	611a      	str	r2, [r3, #16]
      HAL_TIMEx_CommutCallback(htim);
 8003556:	4620      	mov	r0, r4
 8003558:	f000 fac4 	bl	8003ae4 <HAL_TIMEx_CommutCallback>
}
 800355c:	e7c0      	b.n	80034e0 <HAL_TIM_IRQHandler+0x11c>
	...

08003560 <TIM_Base_SetConfig>:
  tmpcr1 = TIMx->CR1;
 8003560:	6803      	ldr	r3, [r0, #0]
  if (IS_TIM_COUNTER_MODE_SELECT_INSTANCE(TIMx))
 8003562:	4a40      	ldr	r2, [pc, #256]	; (8003664 <TIM_Base_SetConfig+0x104>)
 8003564:	4290      	cmp	r0, r2
 8003566:	d04a      	beq.n	80035fe <TIM_Base_SetConfig+0x9e>
 8003568:	f1b0 4f80 	cmp.w	r0, #1073741824	; 0x40000000
 800356c:	d05d      	beq.n	800362a <TIM_Base_SetConfig+0xca>
 800356e:	f5a2 3294 	sub.w	r2, r2, #75776	; 0x12800
 8003572:	4290      	cmp	r0, r2
 8003574:	d070      	beq.n	8003658 <TIM_Base_SetConfig+0xf8>
 8003576:	f502 6280 	add.w	r2, r2, #1024	; 0x400
 800357a:	4290      	cmp	r0, r2
 800357c:	d067      	beq.n	800364e <TIM_Base_SetConfig+0xee>
  if (IS_TIM_CLOCK_DIVISION_INSTANCE(TIMx))
 800357e:	f502 329c 	add.w	r2, r2, #79872	; 0x13800
 8003582:	4290      	cmp	r0, r2
 8003584:	d02d      	beq.n	80035e2 <TIM_Base_SetConfig+0x82>
 8003586:	f502 6280 	add.w	r2, r2, #1024	; 0x400
 800358a:	4290      	cmp	r0, r2
 800358c:	d00d      	beq.n	80035aa <TIM_Base_SetConfig+0x4a>
 800358e:	f502 6280 	add.w	r2, r2, #1024	; 0x400
 8003592:	4290      	cmp	r0, r2
 8003594:	d017      	beq.n	80035c6 <TIM_Base_SetConfig+0x66>
  MODIFY_REG(tmpcr1, TIM_CR1_ARPE, Structure->AutoReloadPreload);
 8003596:	f023 0380 	bic.w	r3, r3, #128	; 0x80
 800359a:	694a      	ldr	r2, [r1, #20]
 800359c:	4313      	orrs	r3, r2
  TIMx->CR1 = tmpcr1;
 800359e:	6003      	str	r3, [r0, #0]
  TIMx->ARR = (uint32_t)Structure->Period ;
 80035a0:	688b      	ldr	r3, [r1, #8]
 80035a2:	62c3      	str	r3, [r0, #44]	; 0x2c
  TIMx->PSC = Structure->Prescaler;
 80035a4:	680b      	ldr	r3, [r1, #0]
 80035a6:	6283      	str	r3, [r0, #40]	; 0x28
  if (IS_TIM_REPETITION_COUNTER_INSTANCE(TIMx))
 80035a8:	e03c      	b.n	8003624 <TIM_Base_SetConfig+0xc4>
    tmpcr1 &= ~TIM_CR1_CKD;
 80035aa:	f423 7340 	bic.w	r3, r3, #768	; 0x300
    tmpcr1 |= (uint32_t)Structure->ClockDivision;
 80035ae:	68ca      	ldr	r2, [r1, #12]
 80035b0:	4313      	orrs	r3, r2
  MODIFY_REG(tmpcr1, TIM_CR1_ARPE, Structure->AutoReloadPreload);
 80035b2:	f023 0380 	bic.w	r3, r3, #128	; 0x80
 80035b6:	694a      	ldr	r2, [r1, #20]
 80035b8:	4313      	orrs	r3, r2
  TIMx->CR1 = tmpcr1;
 80035ba:	6003      	str	r3, [r0, #0]
  TIMx->ARR = (uint32_t)Structure->Period ;
 80035bc:	688b      	ldr	r3, [r1, #8]
 80035be:	62c3      	str	r3, [r0, #44]	; 0x2c
  TIMx->PSC = Structure->Prescaler;
 80035c0:	680b      	ldr	r3, [r1, #0]
 80035c2:	6283      	str	r3, [r0, #40]	; 0x28
  if (IS_TIM_REPETITION_COUNTER_INSTANCE(TIMx))
 80035c4:	e02c      	b.n	8003620 <TIM_Base_SetConfig+0xc0>
    tmpcr1 &= ~TIM_CR1_CKD;
 80035c6:	f423 7340 	bic.w	r3, r3, #768	; 0x300
    tmpcr1 |= (uint32_t)Structure->ClockDivision;
 80035ca:	68ca      	ldr	r2, [r1, #12]
 80035cc:	4313      	orrs	r3, r2
  MODIFY_REG(tmpcr1, TIM_CR1_ARPE, Structure->AutoReloadPreload);
 80035ce:	f023 0380 	bic.w	r3, r3, #128	; 0x80
 80035d2:	694a      	ldr	r2, [r1, #20]
 80035d4:	4313      	orrs	r3, r2
  TIMx->CR1 = tmpcr1;
 80035d6:	6003      	str	r3, [r0, #0]
  TIMx->ARR = (uint32_t)Structure->Period ;
 80035d8:	688b      	ldr	r3, [r1, #8]
 80035da:	62c3      	str	r3, [r0, #44]	; 0x2c
  TIMx->PSC = Structure->Prescaler;
 80035dc:	680b      	ldr	r3, [r1, #0]
 80035de:	6283      	str	r3, [r0, #40]	; 0x28
  if (IS_TIM_REPETITION_COUNTER_INSTANCE(TIMx))
 80035e0:	e01e      	b.n	8003620 <TIM_Base_SetConfig+0xc0>
    tmpcr1 &= ~TIM_CR1_CKD;
 80035e2:	f423 7340 	bic.w	r3, r3, #768	; 0x300
    tmpcr1 |= (uint32_t)Structure->ClockDivision;
 80035e6:	68ca      	ldr	r2, [r1, #12]
 80035e8:	4313      	orrs	r3, r2
  MODIFY_REG(tmpcr1, TIM_CR1_ARPE, Structure->AutoReloadPreload);
 80035ea:	f023 0380 	bic.w	r3, r3, #128	; 0x80
 80035ee:	694a      	ldr	r2, [r1, #20]
 80035f0:	4313      	orrs	r3, r2
  TIMx->CR1 = tmpcr1;
 80035f2:	6003      	str	r3, [r0, #0]
  TIMx->ARR = (uint32_t)Structure->Period ;
 80035f4:	688b      	ldr	r3, [r1, #8]
 80035f6:	62c3      	str	r3, [r0, #44]	; 0x2c
  TIMx->PSC = Structure->Prescaler;
 80035f8:	680b      	ldr	r3, [r1, #0]
 80035fa:	6283      	str	r3, [r0, #40]	; 0x28
  if (IS_TIM_REPETITION_COUNTER_INSTANCE(TIMx))
 80035fc:	e010      	b.n	8003620 <TIM_Base_SetConfig+0xc0>
    tmpcr1 &= ~(TIM_CR1_DIR | TIM_CR1_CMS);
 80035fe:	f023 0370 	bic.w	r3, r3, #112	; 0x70
    tmpcr1 |= Structure->CounterMode;
 8003602:	684a      	ldr	r2, [r1, #4]
 8003604:	4313      	orrs	r3, r2
    tmpcr1 &= ~TIM_CR1_CKD;
 8003606:	f423 7340 	bic.w	r3, r3, #768	; 0x300
    tmpcr1 |= (uint32_t)Structure->ClockDivision;
 800360a:	68ca      	ldr	r2, [r1, #12]
 800360c:	4313      	orrs	r3, r2
  MODIFY_REG(tmpcr1, TIM_CR1_ARPE, Structure->AutoReloadPreload);
 800360e:	f023 0380 	bic.w	r3, r3, #128	; 0x80
 8003612:	694a      	ldr	r2, [r1, #20]
 8003614:	4313      	orrs	r3, r2
  TIMx->CR1 = tmpcr1;
 8003616:	6003      	str	r3, [r0, #0]
  TIMx->ARR = (uint32_t)Structure->Period ;
 8003618:	688b      	ldr	r3, [r1, #8]
 800361a:	62c3      	str	r3, [r0, #44]	; 0x2c
  TIMx->PSC = Structure->Prescaler;
 800361c:	680b      	ldr	r3, [r1, #0]
 800361e:	6283      	str	r3, [r0, #40]	; 0x28
    TIMx->RCR = Structure->RepetitionCounter;
 8003620:	690b      	ldr	r3, [r1, #16]
 8003622:	6303      	str	r3, [r0, #48]	; 0x30
  TIMx->EGR = TIM_EGR_UG;
 8003624:	2301      	movs	r3, #1
 8003626:	6143      	str	r3, [r0, #20]
}
 8003628:	4770      	bx	lr
    tmpcr1 &= ~(TIM_CR1_DIR | TIM_CR1_CMS);
 800362a:	f023 0370 	bic.w	r3, r3, #112	; 0x70
    tmpcr1 |= Structure->CounterMode;
 800362e:	684a      	ldr	r2, [r1, #4]
 8003630:	4313      	orrs	r3, r2
    tmpcr1 &= ~TIM_CR1_CKD;
 8003632:	f423 7340 	bic.w	r3, r3, #768	; 0x300
    tmpcr1 |= (uint32_t)Structure->ClockDivision;
 8003636:	68ca      	ldr	r2, [r1, #12]
 8003638:	4313      	orrs	r3, r2
  MODIFY_REG(tmpcr1, TIM_CR1_ARPE, Structure->AutoReloadPreload);
 800363a:	f023 0380 	bic.w	r3, r3, #128	; 0x80
 800363e:	694a      	ldr	r2, [r1, #20]
 8003640:	4313      	orrs	r3, r2
  TIMx->CR1 = tmpcr1;
 8003642:	6003      	str	r3, [r0, #0]
  TIMx->ARR = (uint32_t)Structure->Period ;
 8003644:	688b      	ldr	r3, [r1, #8]
 8003646:	62c3      	str	r3, [r0, #44]	; 0x2c
  TIMx->PSC = Structure->Prescaler;
 8003648:	680b      	ldr	r3, [r1, #0]
 800364a:	6283      	str	r3, [r0, #40]	; 0x28
  if (IS_TIM_REPETITION_COUNTER_INSTANCE(TIMx))
 800364c:	e7ea      	b.n	8003624 <TIM_Base_SetConfig+0xc4>
    tmpcr1 &= ~(TIM_CR1_DIR | TIM_CR1_CMS);
 800364e:	f023 0370 	bic.w	r3, r3, #112	; 0x70
    tmpcr1 |= Structure->CounterMode;
 8003652:	684a      	ldr	r2, [r1, #4]
 8003654:	4313      	orrs	r3, r2
  if (IS_TIM_CLOCK_DIVISION_INSTANCE(TIMx))
 8003656:	e7ec      	b.n	8003632 <TIM_Base_SetConfig+0xd2>
    tmpcr1 &= ~(TIM_CR1_DIR | TIM_CR1_CMS);
 8003658:	f023 0370 	bic.w	r3, r3, #112	; 0x70
    tmpcr1 |= Structure->CounterMode;
 800365c:	684a      	ldr	r2, [r1, #4]
 800365e:	4313      	orrs	r3, r2
  if (IS_TIM_CLOCK_DIVISION_INSTANCE(TIMx))
 8003660:	e7e7      	b.n	8003632 <TIM_Base_SetConfig+0xd2>
 8003662:	bf00      	nop
 8003664:	40012c00 	.word	0x40012c00

08003668 <HAL_TIM_Base_Init>:
  if (htim == NULL)
 8003668:	b360      	cbz	r0, 80036c4 <HAL_TIM_Base_Init+0x5c>
{
 800366a:	b510      	push	{r4, lr}
 800366c:	4604      	mov	r4, r0
  if (htim->State == HAL_TIM_STATE_RESET)
 800366e:	f890 303d 	ldrb.w	r3, [r0, #61]	; 0x3d
 8003672:	b313      	cbz	r3, 80036ba <HAL_TIM_Base_Init+0x52>
  htim->State = HAL_TIM_STATE_BUSY;
 8003674:	2302      	movs	r3, #2
 8003676:	f884 303d 	strb.w	r3, [r4, #61]	; 0x3d
  TIM_Base_SetConfig(htim->Instance, &htim->Init);
 800367a:	4621      	mov	r1, r4
 800367c:	f851 0b04 	ldr.w	r0, [r1], #4
 8003680:	f7ff ff6e 	bl	8003560 <TIM_Base_SetConfig>
  htim->DMABurstState = HAL_DMA_BURST_STATE_READY;
 8003684:	2301      	movs	r3, #1
 8003686:	f884 3048 	strb.w	r3, [r4, #72]	; 0x48
  TIM_CHANNEL_STATE_SET_ALL(htim, HAL_TIM_CHANNEL_STATE_READY);
 800368a:	f884 303e 	strb.w	r3, [r4, #62]	; 0x3e
 800368e:	f884 303f 	strb.w	r3, [r4, #63]	; 0x3f
 8003692:	f884 3040 	strb.w	r3, [r4, #64]	; 0x40
 8003696:	f884 3041 	strb.w	r3, [r4, #65]	; 0x41
 800369a:	f884 3042 	strb.w	r3, [r4, #66]	; 0x42
 800369e:	f884 3043 	strb.w	r3, [r4, #67]	; 0x43
  TIM_CHANNEL_N_STATE_SET_ALL(htim, HAL_TIM_CHANNEL_STATE_READY);
 80036a2:	f884 3044 	strb.w	r3, [r4, #68]	; 0x44
 80036a6:	f884 3045 	strb.w	r3, [r4, #69]	; 0x45
 80036aa:	f884 3046 	strb.w	r3, [r4, #70]	; 0x46
 80036ae:	f884 3047 	strb.w	r3, [r4, #71]	; 0x47
  htim->State = HAL_TIM_STATE_READY;
 80036b2:	f884 303d 	strb.w	r3, [r4, #61]	; 0x3d
  return HAL_OK;
 80036b6:	2000      	movs	r0, #0
}
 80036b8:	bd10      	pop	{r4, pc}
    htim->Lock = HAL_UNLOCKED;
 80036ba:	f880 303c 	strb.w	r3, [r0, #60]	; 0x3c
    HAL_TIM_Base_MspInit(htim);
 80036be:	f7fd f9df 	bl	8000a80 <HAL_TIM_Base_MspInit>
 80036c2:	e7d7      	b.n	8003674 <HAL_TIM_Base_Init+0xc>
    return HAL_ERROR;
 80036c4:	2001      	movs	r0, #1
}
 80036c6:	4770      	bx	lr

080036c8 <HAL_TIM_PWM_Init>:
  if (htim == NULL)
 80036c8:	b360      	cbz	r0, 8003724 <HAL_TIM_PWM_Init+0x5c>
{
 80036ca:	b510      	push	{r4, lr}
 80036cc:	4604      	mov	r4, r0
  if (htim->State == HAL_TIM_STATE_RESET)
 80036ce:	f890 303d 	ldrb.w	r3, [r0, #61]	; 0x3d
 80036d2:	b313      	cbz	r3, 800371a <HAL_TIM_PWM_Init+0x52>
  htim->State = HAL_TIM_STATE_BUSY;
 80036d4:	2302      	movs	r3, #2
 80036d6:	f884 303d 	strb.w	r3, [r4, #61]	; 0x3d
  TIM_Base_SetConfig(htim->Instance, &htim->Init);
 80036da:	4621      	mov	r1, r4
 80036dc:	f851 0b04 	ldr.w	r0, [r1], #4
 80036e0:	f7ff ff3e 	bl	8003560 <TIM_Base_SetConfig>
  htim->DMABurstState = HAL_DMA_BURST_STATE_READY;
 80036e4:	2301      	movs	r3, #1
 80036e6:	f884 3048 	strb.w	r3, [r4, #72]	; 0x48
  TIM_CHANNEL_STATE_SET_ALL(htim, HAL_TIM_CHANNEL_STATE_READY);
 80036ea:	f884 303e 	strb.w	r3, [r4, #62]	; 0x3e
 80036ee:	f884 303f 	strb.w	r3, [r4, #63]	; 0x3f
 80036f2:	f884 3040 	strb.w	r3, [r4, #64]	; 0x40
 80036f6:	f884 3041 	strb.w	r3, [r4, #65]	; 0x41
 80036fa:	f884 3042 	strb.w	r3, [r4, #66]	; 0x42
 80036fe:	f884 3043 	strb.w	r3, [r4, #67]	; 0x43
  TIM_CHANNEL_N_STATE_SET_ALL(htim, HAL_TIM_CHANNEL_STATE_READY);
 8003702:	f884 3044 	strb.w	r3, [r4, #68]	; 0x44
 8003706:	f884 3045 	strb.w	r3, [r4, #69]	; 0x45
 800370a:	f884 3046 	strb.w	r3, [r4, #70]	; 0x46
 800370e:	f884 3047 	strb.w	r3, [r4, #71]	; 0x47
  htim->State = HAL_TIM_STATE_READY;
 8003712:	f884 303d 	strb.w	r3, [r4, #61]	; 0x3d
  return HAL_OK;
 8003716:	2000      	movs	r0, #0
}
 8003718:	bd10      	pop	{r4, pc}
    htim->Lock = HAL_UNLOCKED;
 800371a:	f880 303c 	strb.w	r3, [r0, #60]	; 0x3c
    HAL_TIM_PWM_MspInit(htim);
 800371e:	f7ff fe4b 	bl	80033b8 <HAL_TIM_PWM_MspInit>
 8003722:	e7d7      	b.n	80036d4 <HAL_TIM_PWM_Init+0xc>
    return HAL_ERROR;
 8003724:	2001      	movs	r0, #1
}
 8003726:	4770      	bx	lr

08003728 <TIM_OC2_SetConfig>:
{
 8003728:	b470      	push	{r4, r5, r6}
  TIMx->CCER &= ~TIM_CCER_CC2E;
 800372a:	6a03      	ldr	r3, [r0, #32]
 800372c:	f023 0310 	bic.w	r3, r3, #16
 8003730:	6203      	str	r3, [r0, #32]
  tmpccer = TIMx->CCER;
 8003732:	6a03      	ldr	r3, [r0, #32]
  tmpcr2 =  TIMx->CR2;
 8003734:	6844      	ldr	r4, [r0, #4]
  tmpccmrx = TIMx->CCMR1;
 8003736:	6982      	ldr	r2, [r0, #24]
  tmpccmrx &= ~TIM_CCMR1_CC2S;
 8003738:	f022 7280 	bic.w	r2, r2, #16777216	; 0x1000000
 800373c:	f422 42e6 	bic.w	r2, r2, #29440	; 0x7300
  tmpccmrx |= (OC_Config->OCMode << 8U);
 8003740:	680d      	ldr	r5, [r1, #0]
 8003742:	ea42 2205 	orr.w	r2, r2, r5, lsl #8
  tmpccer &= ~TIM_CCER_CC2P;
 8003746:	f023 0320 	bic.w	r3, r3, #32
  tmpccer |= (OC_Config->OCPolarity << 4U);
 800374a:	688d      	ldr	r5, [r1, #8]
 800374c:	ea43 1305 	orr.w	r3, r3, r5, lsl #4
  if (IS_TIM_CCXN_INSTANCE(TIMx, TIM_CHANNEL_2))
 8003750:	4d11      	ldr	r5, [pc, #68]	; (8003798 <TIM_OC2_SetConfig+0x70>)
 8003752:	42a8      	cmp	r0, r5
 8003754:	d00a      	beq.n	800376c <TIM_OC2_SetConfig+0x44>
  if (IS_TIM_BREAK_INSTANCE(TIMx))
 8003756:	4d11      	ldr	r5, [pc, #68]	; (800379c <TIM_OC2_SetConfig+0x74>)
 8003758:	42a8      	cmp	r0, r5
 800375a:	d00e      	beq.n	800377a <TIM_OC2_SetConfig+0x52>
 800375c:	4d10      	ldr	r5, [pc, #64]	; (80037a0 <TIM_OC2_SetConfig+0x78>)
 800375e:	42a8      	cmp	r0, r5
 8003760:	d00b      	beq.n	800377a <TIM_OC2_SetConfig+0x52>
 8003762:	f505 6580 	add.w	r5, r5, #1024	; 0x400
 8003766:	42a8      	cmp	r0, r5
 8003768:	d10f      	bne.n	800378a <TIM_OC2_SetConfig+0x62>
 800376a:	e006      	b.n	800377a <TIM_OC2_SetConfig+0x52>
    tmpccer &= ~TIM_CCER_CC2NP;
 800376c:	f023 0380 	bic.w	r3, r3, #128	; 0x80
    tmpccer |= (OC_Config->OCNPolarity << 4U);
 8003770:	68cd      	ldr	r5, [r1, #12]
 8003772:	ea43 1305 	orr.w	r3, r3, r5, lsl #4
    tmpccer &= ~TIM_CCER_CC2NE;
 8003776:	f023 0340 	bic.w	r3, r3, #64	; 0x40
    tmpcr2 &= ~TIM_CR2_OIS2N;
 800377a:	f424 6440 	bic.w	r4, r4, #3072	; 0xc00
    tmpcr2 |= (OC_Config->OCNIdleState << 2U);
 800377e:	698d      	ldr	r5, [r1, #24]
 8003780:	694e      	ldr	r6, [r1, #20]
 8003782:	ea46 0c05 	orr.w	ip, r6, r5
 8003786:	ea44 048c 	orr.w	r4, r4, ip, lsl #2
  TIMx->CR2 = tmpcr2;
 800378a:	6044      	str	r4, [r0, #4]
  TIMx->CCMR1 = tmpccmrx;
 800378c:	6182      	str	r2, [r0, #24]
  TIMx->CCR2 = OC_Config->Pulse;
 800378e:	684a      	ldr	r2, [r1, #4]
 8003790:	6382      	str	r2, [r0, #56]	; 0x38
  TIMx->CCER = tmpccer;
 8003792:	6203      	str	r3, [r0, #32]
}
 8003794:	bc70      	pop	{r4, r5, r6}
 8003796:	4770      	bx	lr
 8003798:	40012c00 	.word	0x40012c00
 800379c:	40014000 	.word	0x40014000
 80037a0:	40014400 	.word	0x40014400

080037a4 <HAL_TIM_PWM_ConfigChannel>:
{
 80037a4:	b538      	push	{r3, r4, r5, lr}
  __HAL_LOCK(htim);
 80037a6:	f890 303c 	ldrb.w	r3, [r0, #60]	; 0x3c
 80037aa:	2b01      	cmp	r3, #1
 80037ac:	f000 8095 	beq.w	80038da <HAL_TIM_PWM_ConfigChannel+0x136>
 80037b0:	4604      	mov	r4, r0
 80037b2:	460d      	mov	r5, r1
 80037b4:	2301      	movs	r3, #1
 80037b6:	f880 303c 	strb.w	r3, [r0, #60]	; 0x3c
  switch (Channel)
 80037ba:	2a14      	cmp	r2, #20
 80037bc:	f200 8088 	bhi.w	80038d0 <HAL_TIM_PWM_ConfigChannel+0x12c>
 80037c0:	e8df f002 	tbb	[pc, r2]
 80037c4:	8686860b 	.word	0x8686860b
 80037c8:	8686861f 	.word	0x8686861f
 80037cc:	86868634 	.word	0x86868634
 80037d0:	86868648 	.word	0x86868648
 80037d4:	8686865d 	.word	0x8686865d
 80037d8:	71          	.byte	0x71
 80037d9:	00          	.byte	0x00
      TIM_OC1_SetConfig(htim->Instance, sConfig);
 80037da:	6800      	ldr	r0, [r0, #0]
 80037dc:	f7ff fc8e 	bl	80030fc <TIM_OC1_SetConfig>
      htim->Instance->CCMR1 |= TIM_CCMR1_OC1PE;
 80037e0:	6822      	ldr	r2, [r4, #0]
 80037e2:	6993      	ldr	r3, [r2, #24]
 80037e4:	f043 0308 	orr.w	r3, r3, #8
 80037e8:	6193      	str	r3, [r2, #24]
      htim->Instance->CCMR1 &= ~TIM_CCMR1_OC1FE;
 80037ea:	6822      	ldr	r2, [r4, #0]
 80037ec:	6993      	ldr	r3, [r2, #24]
 80037ee:	f023 0304 	bic.w	r3, r3, #4
 80037f2:	6193      	str	r3, [r2, #24]
      htim->Instance->CCMR1 |= sConfig->OCFastMode;
 80037f4:	6822      	ldr	r2, [r4, #0]
 80037f6:	6993      	ldr	r3, [r2, #24]
 80037f8:	6929      	ldr	r1, [r5, #16]
 80037fa:	430b      	orrs	r3, r1
 80037fc:	6193      	str	r3, [r2, #24]
  HAL_StatusTypeDef status = HAL_OK;
 80037fe:	2000      	movs	r0, #0
      break;
 8003800:	e067      	b.n	80038d2 <HAL_TIM_PWM_ConfigChannel+0x12e>
      TIM_OC2_SetConfig(htim->Instance, sConfig);
 8003802:	6800      	ldr	r0, [r0, #0]
 8003804:	f7ff ff90 	bl	8003728 <TIM_OC2_SetConfig>
      htim->Instance->CCMR1 |= TIM_CCMR1_OC2PE;
 8003808:	6822      	ldr	r2, [r4, #0]
 800380a:	6993      	ldr	r3, [r2, #24]
 800380c:	f443 6300 	orr.w	r3, r3, #2048	; 0x800
 8003810:	6193      	str	r3, [r2, #24]
      htim->Instance->CCMR1 &= ~TIM_CCMR1_OC2FE;
 8003812:	6822      	ldr	r2, [r4, #0]
 8003814:	6993      	ldr	r3, [r2, #24]
 8003816:	f423 6380 	bic.w	r3, r3, #1024	; 0x400
 800381a:	6193      	str	r3, [r2, #24]
      htim->Instance->CCMR1 |= sConfig->OCFastMode << 8U;
 800381c:	6822      	ldr	r2, [r4, #0]
 800381e:	6993      	ldr	r3, [r2, #24]
 8003820:	6929      	ldr	r1, [r5, #16]
 8003822:	ea43 2301 	orr.w	r3, r3, r1, lsl #8
 8003826:	6193      	str	r3, [r2, #24]
  HAL_StatusTypeDef status = HAL_OK;
 8003828:	2000      	movs	r0, #0
      break;
 800382a:	e052      	b.n	80038d2 <HAL_TIM_PWM_ConfigChannel+0x12e>
      TIM_OC3_SetConfig(htim->Instance, sConfig);
 800382c:	6800      	ldr	r0, [r0, #0]
 800382e:	f7ff fcb3 	bl	8003198 <TIM_OC3_SetConfig>
      htim->Instance->CCMR2 |= TIM_CCMR2_OC3PE;
 8003832:	6822      	ldr	r2, [r4, #0]
 8003834:	69d3      	ldr	r3, [r2, #28]
 8003836:	f043 0308 	orr.w	r3, r3, #8
 800383a:	61d3      	str	r3, [r2, #28]
      htim->Instance->CCMR2 &= ~TIM_CCMR2_OC3FE;
 800383c:	6822      	ldr	r2, [r4, #0]
 800383e:	69d3      	ldr	r3, [r2, #28]
 8003840:	f023 0304 	bic.w	r3, r3, #4
 8003844:	61d3      	str	r3, [r2, #28]
      htim->Instance->CCMR2 |= sConfig->OCFastMode;
 8003846:	6822      	ldr	r2, [r4, #0]
 8003848:	69d3      	ldr	r3, [r2, #28]
 800384a:	6929      	ldr	r1, [r5, #16]
 800384c:	430b      	orrs	r3, r1
 800384e:	61d3      	str	r3, [r2, #28]
  HAL_StatusTypeDef status = HAL_OK;
 8003850:	2000      	movs	r0, #0
      break;
 8003852:	e03e      	b.n	80038d2 <HAL_TIM_PWM_ConfigChannel+0x12e>
      TIM_OC4_SetConfig(htim->Instance, sConfig);
 8003854:	6800      	ldr	r0, [r0, #0]
 8003856:	f7ff fcdd 	bl	8003214 <TIM_OC4_SetConfig>
      htim->Instance->CCMR2 |= TIM_CCMR2_OC4PE;
 800385a:	6822      	ldr	r2, [r4, #0]
 800385c:	69d3      	ldr	r3, [r2, #28]
 800385e:	f443 6300 	orr.w	r3, r3, #2048	; 0x800
 8003862:	61d3      	str	r3, [r2, #28]
      htim->Instance->CCMR2 &= ~TIM_CCMR2_OC4FE;
 8003864:	6822      	ldr	r2, [r4, #0]
 8003866:	69d3      	ldr	r3, [r2, #28]
 8003868:	f423 6380 	bic.w	r3, r3, #1024	; 0x400
 800386c:	61d3      	str	r3, [r2, #28]
      htim->Instance->CCMR2 |= sConfig->OCFastMode << 8U;
 800386e:	6822      	ldr	r2, [r4, #0]
 8003870:	69d3      	ldr	r3, [r2, #28]
 8003872:	6929      	ldr	r1, [r5, #16]
 8003874:	ea43 2301 	orr.w	r3, r3, r1, lsl #8
 8003878:	61d3      	str	r3, [r2, #28]
  HAL_StatusTypeDef status = HAL_OK;
 800387a:	2000      	movs	r0, #0
      break;
 800387c:	e029      	b.n	80038d2 <HAL_TIM_PWM_ConfigChannel+0x12e>
      TIM_OC5_SetConfig(htim->Instance, sConfig);
 800387e:	6800      	ldr	r0, [r0, #0]
 8003880:	f7ff fcfa 	bl	8003278 <TIM_OC5_SetConfig>
      htim->Instance->CCMR3 |= TIM_CCMR3_OC5PE;
 8003884:	6822      	ldr	r2, [r4, #0]
 8003886:	6d53      	ldr	r3, [r2, #84]	; 0x54
 8003888:	f043 0308 	orr.w	r3, r3, #8
 800388c:	6553      	str	r3, [r2, #84]	; 0x54
      htim->Instance->CCMR3 &= ~TIM_CCMR3_OC5FE;
 800388e:	6822      	ldr	r2, [r4, #0]
 8003890:	6d53      	ldr	r3, [r2, #84]	; 0x54
 8003892:	f023 0304 	bic.w	r3, r3, #4
 8003896:	6553      	str	r3, [r2, #84]	; 0x54
      htim->Instance->CCMR3 |= sConfig->OCFastMode;
 8003898:	6822      	ldr	r2, [r4, #0]
 800389a:	6d53      	ldr	r3, [r2, #84]	; 0x54
 800389c:	6929      	ldr	r1, [r5, #16]
 800389e:	430b      	orrs	r3, r1
 80038a0:	6553      	str	r3, [r2, #84]	; 0x54
  HAL_StatusTypeDef status = HAL_OK;
 80038a2:	2000      	movs	r0, #0
      break;
 80038a4:	e015      	b.n	80038d2 <HAL_TIM_PWM_ConfigChannel+0x12e>
      TIM_OC6_SetConfig(htim->Instance, sConfig);
 80038a6:	6800      	ldr	r0, [r0, #0]
 80038a8:	f7ff fd16 	bl	80032d8 <TIM_OC6_SetConfig>
      htim->Instance->CCMR3 |= TIM_CCMR3_OC6PE;
 80038ac:	6822      	ldr	r2, [r4, #0]
 80038ae:	6d53      	ldr	r3, [r2, #84]	; 0x54
 80038b0:	f443 6300 	orr.w	r3, r3, #2048	; 0x800
 80038b4:	6553      	str	r3, [r2, #84]	; 0x54
      htim->Instance->CCMR3 &= ~TIM_CCMR3_OC6FE;
 80038b6:	6822      	ldr	r2, [r4, #0]
 80038b8:	6d53      	ldr	r3, [r2, #84]	; 0x54
 80038ba:	f423 6380 	bic.w	r3, r3, #1024	; 0x400
 80038be:	6553      	str	r3, [r2, #84]	; 0x54
      htim->Instance->CCMR3 |= sConfig->OCFastMode << 8U;
 80038c0:	6822      	ldr	r2, [r4, #0]
 80038c2:	6d53      	ldr	r3, [r2, #84]	; 0x54
 80038c4:	6929      	ldr	r1, [r5, #16]
 80038c6:	ea43 2301 	orr.w	r3, r3, r1, lsl #8
 80038ca:	6553      	str	r3, [r2, #84]	; 0x54
  HAL_StatusTypeDef status = HAL_OK;
 80038cc:	2000      	movs	r0, #0
      break;
 80038ce:	e000      	b.n	80038d2 <HAL_TIM_PWM_ConfigChannel+0x12e>
  switch (Channel)
 80038d0:	2001      	movs	r0, #1
  __HAL_UNLOCK(htim);
 80038d2:	2300      	movs	r3, #0
 80038d4:	f884 303c 	strb.w	r3, [r4, #60]	; 0x3c
}
 80038d8:	bd38      	pop	{r3, r4, r5, pc}
  __HAL_LOCK(htim);
 80038da:	2002      	movs	r0, #2
 80038dc:	e7fc      	b.n	80038d8 <HAL_TIM_PWM_ConfigChannel+0x134>

080038de <TIM_ETR_SetConfig>:
  *          This parameter must be a value between 0x00 and 0x0F
  * @retval None
  */
void TIM_ETR_SetConfig(TIM_TypeDef *TIMx, uint32_t TIM_ExtTRGPrescaler,
                       uint32_t TIM_ExtTRGPolarity, uint32_t ExtTRGFilter)
{
 80038de:	b410      	push	{r4}
  uint32_t tmpsmcr;

  tmpsmcr = TIMx->SMCR;
 80038e0:	6884      	ldr	r4, [r0, #8]

  /* Reset the ETR Bits */
  tmpsmcr &= ~(TIM_SMCR_ETF | TIM_SMCR_ETPS | TIM_SMCR_ECE | TIM_SMCR_ETP);
 80038e2:	f424 4c7f 	bic.w	ip, r4, #65280	; 0xff00

  /* Set the Prescaler, the Filter value and the Polarity */
  tmpsmcr |= (uint32_t)(TIM_ExtTRGPrescaler | (TIM_ExtTRGPolarity | (ExtTRGFilter << 8U)));
 80038e6:	430a      	orrs	r2, r1
 80038e8:	ea42 2203 	orr.w	r2, r2, r3, lsl #8
 80038ec:	ea42 020c 	orr.w	r2, r2, ip

  /* Write to TIMx SMCR */
  TIMx->SMCR = tmpsmcr;
 80038f0:	6082      	str	r2, [r0, #8]
}
 80038f2:	f85d 4b04 	ldr.w	r4, [sp], #4
 80038f6:	4770      	bx	lr

080038f8 <HAL_TIM_ConfigClockSource>:
{
 80038f8:	b538      	push	{r3, r4, r5, lr}
  __HAL_LOCK(htim);
 80038fa:	f890 303c 	ldrb.w	r3, [r0, #60]	; 0x3c
 80038fe:	2b01      	cmp	r3, #1
 8003900:	f000 80ab 	beq.w	8003a5a <HAL_TIM_ConfigClockSource+0x162>
 8003904:	4604      	mov	r4, r0
 8003906:	2301      	movs	r3, #1
 8003908:	f880 303c 	strb.w	r3, [r0, #60]	; 0x3c
  htim->State = HAL_TIM_STATE_BUSY;
 800390c:	2302      	movs	r3, #2
 800390e:	f880 303d 	strb.w	r3, [r0, #61]	; 0x3d
  tmpsmcr = htim->Instance->SMCR;
 8003912:	6802      	ldr	r2, [r0, #0]
 8003914:	6890      	ldr	r0, [r2, #8]
  tmpsmcr &= ~(TIM_SMCR_ETF | TIM_SMCR_ETPS | TIM_SMCR_ECE | TIM_SMCR_ETP);
 8003916:	4b52      	ldr	r3, [pc, #328]	; (8003a60 <HAL_TIM_ConfigClockSource+0x168>)
 8003918:	4003      	ands	r3, r0
  htim->Instance->SMCR = tmpsmcr;
 800391a:	6093      	str	r3, [r2, #8]
  switch (sClockSourceConfig->ClockSource)
 800391c:	680b      	ldr	r3, [r1, #0]
 800391e:	2b60      	cmp	r3, #96	; 0x60
 8003920:	d060      	beq.n	80039e4 <HAL_TIM_ConfigClockSource+0xec>
 8003922:	d83d      	bhi.n	80039a0 <HAL_TIM_ConfigClockSource+0xa8>
 8003924:	2b40      	cmp	r3, #64	; 0x40
 8003926:	d079      	beq.n	8003a1c <HAL_TIM_ConfigClockSource+0x124>
 8003928:	d91c      	bls.n	8003964 <HAL_TIM_ConfigClockSource+0x6c>
 800392a:	2b50      	cmp	r3, #80	; 0x50
 800392c:	d136      	bne.n	800399c <HAL_TIM_ConfigClockSource+0xa4>
      TIM_TI1_ConfigInputStage(htim->Instance,
 800392e:	6823      	ldr	r3, [r4, #0]
                               sClockSourceConfig->ClockPolarity,
 8003930:	6848      	ldr	r0, [r1, #4]
                               sClockSourceConfig->ClockFilter);
 8003932:	68cd      	ldr	r5, [r1, #12]
  tmpccer = TIMx->CCER;
 8003934:	6a19      	ldr	r1, [r3, #32]
  TIMx->CCER &= ~TIM_CCER_CC1E;
 8003936:	6a1a      	ldr	r2, [r3, #32]
 8003938:	f022 0201 	bic.w	r2, r2, #1
 800393c:	621a      	str	r2, [r3, #32]
  tmpccmr1 = TIMx->CCMR1;
 800393e:	699a      	ldr	r2, [r3, #24]
  tmpccmr1 &= ~TIM_CCMR1_IC1F;
 8003940:	f022 02f0 	bic.w	r2, r2, #240	; 0xf0
  tmpccmr1 |= (TIM_ICFilter << 4U);
 8003944:	ea42 1205 	orr.w	r2, r2, r5, lsl #4
  tmpccer &= ~(TIM_CCER_CC1P | TIM_CCER_CC1NP);
 8003948:	f021 010a 	bic.w	r1, r1, #10
  tmpccer |= TIM_ICPolarity;
 800394c:	4301      	orrs	r1, r0
  TIMx->CCMR1 = tmpccmr1;
 800394e:	619a      	str	r2, [r3, #24]
  TIMx->CCER = tmpccer;
 8003950:	6219      	str	r1, [r3, #32]
      TIM_ITRx_SetConfig(htim->Instance, TIM_CLOCKSOURCE_TI1);
 8003952:	6822      	ldr	r2, [r4, #0]
  tmpsmcr = TIMx->SMCR;
 8003954:	6893      	ldr	r3, [r2, #8]
  tmpsmcr &= ~TIM_SMCR_TS;
 8003956:	f023 0370 	bic.w	r3, r3, #112	; 0x70
  tmpsmcr |= (InputTriggerSource | TIM_SLAVEMODE_EXTERNAL1);
 800395a:	f043 0357 	orr.w	r3, r3, #87	; 0x57
  TIMx->SMCR = tmpsmcr;
 800395e:	6093      	str	r3, [r2, #8]
  HAL_StatusTypeDef status = HAL_OK;
 8003960:	2000      	movs	r0, #0
}
 8003962:	e012      	b.n	800398a <HAL_TIM_ConfigClockSource+0x92>
  switch (sClockSourceConfig->ClockSource)
 8003964:	2b20      	cmp	r3, #32
 8003966:	d002      	beq.n	800396e <HAL_TIM_ConfigClockSource+0x76>
 8003968:	d90b      	bls.n	8003982 <HAL_TIM_ConfigClockSource+0x8a>
 800396a:	2b30      	cmp	r3, #48	; 0x30
 800396c:	d114      	bne.n	8003998 <HAL_TIM_ConfigClockSource+0xa0>
      TIM_ITRx_SetConfig(htim->Instance, sClockSourceConfig->ClockSource);
 800396e:	6821      	ldr	r1, [r4, #0]
  tmpsmcr = TIMx->SMCR;
 8003970:	688a      	ldr	r2, [r1, #8]
  tmpsmcr &= ~TIM_SMCR_TS;
 8003972:	f022 0270 	bic.w	r2, r2, #112	; 0x70
  tmpsmcr |= (InputTriggerSource | TIM_SLAVEMODE_EXTERNAL1);
 8003976:	4313      	orrs	r3, r2
 8003978:	f043 0307 	orr.w	r3, r3, #7
  TIMx->SMCR = tmpsmcr;
 800397c:	608b      	str	r3, [r1, #8]
  HAL_StatusTypeDef status = HAL_OK;
 800397e:	2000      	movs	r0, #0
}
 8003980:	e003      	b.n	800398a <HAL_TIM_ConfigClockSource+0x92>
  switch (sClockSourceConfig->ClockSource)
 8003982:	f033 0210 	bics.w	r2, r3, #16
 8003986:	d0f2      	beq.n	800396e <HAL_TIM_ConfigClockSource+0x76>
 8003988:	2001      	movs	r0, #1
  htim->State = HAL_TIM_STATE_READY;
 800398a:	2301      	movs	r3, #1
 800398c:	f884 303d 	strb.w	r3, [r4, #61]	; 0x3d
  __HAL_UNLOCK(htim);
 8003990:	2300      	movs	r3, #0
 8003992:	f884 303c 	strb.w	r3, [r4, #60]	; 0x3c
}
 8003996:	bd38      	pop	{r3, r4, r5, pc}
  switch (sClockSourceConfig->ClockSource)
 8003998:	2001      	movs	r0, #1
 800399a:	e7f6      	b.n	800398a <HAL_TIM_ConfigClockSource+0x92>
 800399c:	2001      	movs	r0, #1
 800399e:	e7f4      	b.n	800398a <HAL_TIM_ConfigClockSource+0x92>
 80039a0:	f5b3 5f80 	cmp.w	r3, #4096	; 0x1000
 80039a4:	d055      	beq.n	8003a52 <HAL_TIM_ConfigClockSource+0x15a>
 80039a6:	f5b3 5f00 	cmp.w	r3, #8192	; 0x2000
 80039aa:	d10c      	bne.n	80039c6 <HAL_TIM_ConfigClockSource+0xce>
      TIM_ETR_SetConfig(htim->Instance,
 80039ac:	68cb      	ldr	r3, [r1, #12]
 80039ae:	684a      	ldr	r2, [r1, #4]
 80039b0:	6889      	ldr	r1, [r1, #8]
 80039b2:	6820      	ldr	r0, [r4, #0]
 80039b4:	f7ff ff93 	bl	80038de <TIM_ETR_SetConfig>
      htim->Instance->SMCR |= TIM_SMCR_ECE;
 80039b8:	6822      	ldr	r2, [r4, #0]
 80039ba:	6893      	ldr	r3, [r2, #8]
 80039bc:	f443 4380 	orr.w	r3, r3, #16384	; 0x4000
 80039c0:	6093      	str	r3, [r2, #8]
  HAL_StatusTypeDef status = HAL_OK;
 80039c2:	2000      	movs	r0, #0
      break;
 80039c4:	e7e1      	b.n	800398a <HAL_TIM_ConfigClockSource+0x92>
  switch (sClockSourceConfig->ClockSource)
 80039c6:	2b70      	cmp	r3, #112	; 0x70
 80039c8:	d145      	bne.n	8003a56 <HAL_TIM_ConfigClockSource+0x15e>
      TIM_ETR_SetConfig(htim->Instance,
 80039ca:	68cb      	ldr	r3, [r1, #12]
 80039cc:	684a      	ldr	r2, [r1, #4]
 80039ce:	6889      	ldr	r1, [r1, #8]
 80039d0:	6820      	ldr	r0, [r4, #0]
 80039d2:	f7ff ff84 	bl	80038de <TIM_ETR_SetConfig>
      tmpsmcr = htim->Instance->SMCR;
 80039d6:	6822      	ldr	r2, [r4, #0]
 80039d8:	6893      	ldr	r3, [r2, #8]
      tmpsmcr |= (TIM_SLAVEMODE_EXTERNAL1 | TIM_CLOCKSOURCE_ETRMODE1);
 80039da:	f043 0377 	orr.w	r3, r3, #119	; 0x77
      htim->Instance->SMCR = tmpsmcr;
 80039de:	6093      	str	r3, [r2, #8]
  HAL_StatusTypeDef status = HAL_OK;
 80039e0:	2000      	movs	r0, #0
      break;
 80039e2:	e7d2      	b.n	800398a <HAL_TIM_ConfigClockSource+0x92>
      TIM_TI2_ConfigInputStage(htim->Instance,
 80039e4:	6823      	ldr	r3, [r4, #0]
                               sClockSourceConfig->ClockPolarity,
 80039e6:	6848      	ldr	r0, [r1, #4]
                               sClockSourceConfig->ClockFilter);
 80039e8:	68cd      	ldr	r5, [r1, #12]
  TIMx->CCER &= ~TIM_CCER_CC2E;
 80039ea:	6a1a      	ldr	r2, [r3, #32]
 80039ec:	f022 0210 	bic.w	r2, r2, #16
 80039f0:	621a      	str	r2, [r3, #32]
  tmpccmr1 = TIMx->CCMR1;
 80039f2:	6999      	ldr	r1, [r3, #24]
  tmpccer = TIMx->CCER;
 80039f4:	6a1a      	ldr	r2, [r3, #32]
  tmpccmr1 &= ~TIM_CCMR1_IC2F;
 80039f6:	f421 4170 	bic.w	r1, r1, #61440	; 0xf000
  tmpccmr1 |= (TIM_ICFilter << 12U);
 80039fa:	ea41 3105 	orr.w	r1, r1, r5, lsl #12
  tmpccer &= ~(TIM_CCER_CC2P | TIM_CCER_CC2NP);
 80039fe:	f022 02a0 	bic.w	r2, r2, #160	; 0xa0
  tmpccer |= (TIM_ICPolarity << 4U);
 8003a02:	ea42 1200 	orr.w	r2, r2, r0, lsl #4
  TIMx->CCMR1 = tmpccmr1 ;
 8003a06:	6199      	str	r1, [r3, #24]
  TIMx->CCER = tmpccer;
 8003a08:	621a      	str	r2, [r3, #32]
      TIM_ITRx_SetConfig(htim->Instance, TIM_CLOCKSOURCE_TI2);
 8003a0a:	6822      	ldr	r2, [r4, #0]
  tmpsmcr = TIMx->SMCR;
 8003a0c:	6893      	ldr	r3, [r2, #8]
  tmpsmcr &= ~TIM_SMCR_TS;
 8003a0e:	f023 0370 	bic.w	r3, r3, #112	; 0x70
  tmpsmcr |= (InputTriggerSource | TIM_SLAVEMODE_EXTERNAL1);
 8003a12:	f043 0367 	orr.w	r3, r3, #103	; 0x67
  TIMx->SMCR = tmpsmcr;
 8003a16:	6093      	str	r3, [r2, #8]
  HAL_StatusTypeDef status = HAL_OK;
 8003a18:	2000      	movs	r0, #0
}
 8003a1a:	e7b6      	b.n	800398a <HAL_TIM_ConfigClockSource+0x92>
      TIM_TI1_ConfigInputStage(htim->Instance,
 8003a1c:	6823      	ldr	r3, [r4, #0]
                               sClockSourceConfig->ClockPolarity,
 8003a1e:	6848      	ldr	r0, [r1, #4]
                               sClockSourceConfig->ClockFilter);
 8003a20:	68cd      	ldr	r5, [r1, #12]
  tmpccer = TIMx->CCER;
 8003a22:	6a19      	ldr	r1, [r3, #32]
  TIMx->CCER &= ~TIM_CCER_CC1E;
 8003a24:	6a1a      	ldr	r2, [r3, #32]
 8003a26:	f022 0201 	bic.w	r2, r2, #1
 8003a2a:	621a      	str	r2, [r3, #32]
  tmpccmr1 = TIMx->CCMR1;
 8003a2c:	699a      	ldr	r2, [r3, #24]
  tmpccmr1 &= ~TIM_CCMR1_IC1F;
 8003a2e:	f022 02f0 	bic.w	r2, r2, #240	; 0xf0
  tmpccmr1 |= (TIM_ICFilter << 4U);
 8003a32:	ea42 1205 	orr.w	r2, r2, r5, lsl #4
  tmpccer &= ~(TIM_CCER_CC1P | TIM_CCER_CC1NP);
 8003a36:	f021 010a 	bic.w	r1, r1, #10
  tmpccer |= TIM_ICPolarity;
 8003a3a:	4301      	orrs	r1, r0
  TIMx->CCMR1 = tmpccmr1;
 8003a3c:	619a      	str	r2, [r3, #24]
  TIMx->CCER = tmpccer;
 8003a3e:	6219      	str	r1, [r3, #32]
      TIM_ITRx_SetConfig(htim->Instance, TIM_CLOCKSOURCE_TI1ED);
 8003a40:	6822      	ldr	r2, [r4, #0]
  tmpsmcr = TIMx->SMCR;
 8003a42:	6893      	ldr	r3, [r2, #8]
  tmpsmcr &= ~TIM_SMCR_TS;
 8003a44:	f023 0370 	bic.w	r3, r3, #112	; 0x70
  tmpsmcr |= (InputTriggerSource | TIM_SLAVEMODE_EXTERNAL1);
 8003a48:	f043 0347 	orr.w	r3, r3, #71	; 0x47
  TIMx->SMCR = tmpsmcr;
 8003a4c:	6093      	str	r3, [r2, #8]
  HAL_StatusTypeDef status = HAL_OK;
 8003a4e:	2000      	movs	r0, #0
}
 8003a50:	e79b      	b.n	800398a <HAL_TIM_ConfigClockSource+0x92>
  HAL_StatusTypeDef status = HAL_OK;
 8003a52:	2000      	movs	r0, #0
 8003a54:	e799      	b.n	800398a <HAL_TIM_ConfigClockSource+0x92>
  switch (sClockSourceConfig->ClockSource)
 8003a56:	2001      	movs	r0, #1
 8003a58:	e797      	b.n	800398a <HAL_TIM_ConfigClockSource+0x92>
  __HAL_LOCK(htim);
 8003a5a:	2002      	movs	r0, #2
 8003a5c:	e79b      	b.n	8003996 <HAL_TIM_ConfigClockSource+0x9e>
 8003a5e:	bf00      	nop
 8003a60:	fffe0088 	.word	0xfffe0088

08003a64 <HAL_TIMEx_MasterConfigSynchronization>:
  assert_param(IS_TIM_MASTER_INSTANCE(htim->Instance));
  assert_param(IS_TIM_TRGO_SOURCE(sMasterConfig->MasterOutputTrigger));
  assert_param(IS_TIM_MSM_STATE(sMasterConfig->MasterSlaveMode));

  /* Check input state */
  __HAL_LOCK(htim);
 8003a64:	f890 203c 	ldrb.w	r2, [r0, #60]	; 0x3c
 8003a68:	2a01      	cmp	r2, #1
 8003a6a:	d037      	beq.n	8003adc <HAL_TIMEx_MasterConfigSynchronization+0x78>
{
 8003a6c:	b430      	push	{r4, r5}
 8003a6e:	4603      	mov	r3, r0
  __HAL_LOCK(htim);
 8003a70:	2201      	movs	r2, #1
 8003a72:	f880 203c 	strb.w	r2, [r0, #60]	; 0x3c

  /* Change the handler state */
  htim->State = HAL_TIM_STATE_BUSY;
 8003a76:	2202      	movs	r2, #2
 8003a78:	f880 203d 	strb.w	r2, [r0, #61]	; 0x3d

  /* Get the TIMx CR2 register value */
  tmpcr2 = htim->Instance->CR2;
 8003a7c:	6804      	ldr	r4, [r0, #0]
 8003a7e:	6862      	ldr	r2, [r4, #4]

  /* Get the TIMx SMCR register value */
  tmpsmcr = htim->Instance->SMCR;
 8003a80:	68a0      	ldr	r0, [r4, #8]

#if defined(TIM_CR2_MMS2)
  /* If the timer supports ADC synchronization through TRGO2, set the master mode selection 2 */
  if (IS_TIM_TRGO2_INSTANCE(htim->Instance))
 8003a82:	4d17      	ldr	r5, [pc, #92]	; (8003ae0 <HAL_TIMEx_MasterConfigSynchronization+0x7c>)
 8003a84:	42ac      	cmp	r4, r5
 8003a86:	d024      	beq.n	8003ad2 <HAL_TIMEx_MasterConfigSynchronization+0x6e>
    tmpcr2 |= sMasterConfig->MasterOutputTrigger2;
  }
#endif /* TIM_CR2_MMS2 */

  /* Reset the MMS Bits */
  tmpcr2 &= ~TIM_CR2_MMS;
 8003a88:	f022 0270 	bic.w	r2, r2, #112	; 0x70
  /* Select the TRGO source */
  tmpcr2 |=  sMasterConfig->MasterOutputTrigger;
 8003a8c:	680d      	ldr	r5, [r1, #0]
 8003a8e:	432a      	orrs	r2, r5

  /* Update TIMx CR2 */
  htim->Instance->CR2 = tmpcr2;
 8003a90:	6062      	str	r2, [r4, #4]

  if (IS_TIM_SLAVE_INSTANCE(htim->Instance))
 8003a92:	681a      	ldr	r2, [r3, #0]
 8003a94:	4c12      	ldr	r4, [pc, #72]	; (8003ae0 <HAL_TIMEx_MasterConfigSynchronization+0x7c>)
 8003a96:	42a2      	cmp	r2, r4
 8003a98:	d00e      	beq.n	8003ab8 <HAL_TIMEx_MasterConfigSynchronization+0x54>
 8003a9a:	f1b2 4f80 	cmp.w	r2, #1073741824	; 0x40000000
 8003a9e:	d00b      	beq.n	8003ab8 <HAL_TIMEx_MasterConfigSynchronization+0x54>
 8003aa0:	f5a4 3494 	sub.w	r4, r4, #75776	; 0x12800
 8003aa4:	42a2      	cmp	r2, r4
 8003aa6:	d007      	beq.n	8003ab8 <HAL_TIMEx_MasterConfigSynchronization+0x54>
 8003aa8:	f504 6480 	add.w	r4, r4, #1024	; 0x400
 8003aac:	42a2      	cmp	r2, r4
 8003aae:	d003      	beq.n	8003ab8 <HAL_TIMEx_MasterConfigSynchronization+0x54>
 8003ab0:	f504 349c 	add.w	r4, r4, #79872	; 0x13800
 8003ab4:	42a2      	cmp	r2, r4
 8003ab6:	d104      	bne.n	8003ac2 <HAL_TIMEx_MasterConfigSynchronization+0x5e>
  {
    /* Reset the MSM Bit */
    tmpsmcr &= ~TIM_SMCR_MSM;
 8003ab8:	f020 0080 	bic.w	r0, r0, #128	; 0x80
    /* Set master mode */
    tmpsmcr |= sMasterConfig->MasterSlaveMode;
 8003abc:	6889      	ldr	r1, [r1, #8]
 8003abe:	4308      	orrs	r0, r1

    /* Update TIMx SMCR */
    htim->Instance->SMCR = tmpsmcr;
 8003ac0:	6090      	str	r0, [r2, #8]
  }

  /* Change the htim state */
  htim->State = HAL_TIM_STATE_READY;
 8003ac2:	2201      	movs	r2, #1
 8003ac4:	f883 203d 	strb.w	r2, [r3, #61]	; 0x3d

  __HAL_UNLOCK(htim);
 8003ac8:	2000      	movs	r0, #0
 8003aca:	f883 003c 	strb.w	r0, [r3, #60]	; 0x3c

  return HAL_OK;
}
 8003ace:	bc30      	pop	{r4, r5}
 8003ad0:	4770      	bx	lr
    tmpcr2 &= ~TIM_CR2_MMS2;
 8003ad2:	f422 0270 	bic.w	r2, r2, #15728640	; 0xf00000
    tmpcr2 |= sMasterConfig->MasterOutputTrigger2;
 8003ad6:	684d      	ldr	r5, [r1, #4]
 8003ad8:	432a      	orrs	r2, r5
 8003ada:	e7d5      	b.n	8003a88 <HAL_TIMEx_MasterConfigSynchronization+0x24>
  __HAL_LOCK(htim);
 8003adc:	2002      	movs	r0, #2
}
 8003ade:	4770      	bx	lr
 8003ae0:	40012c00 	.word	0x40012c00

08003ae4 <HAL_TIMEx_CommutCallback>:
  UNUSED(htim);

  /* NOTE : This function should not be modified, when the callback is needed,
            the HAL_TIMEx_CommutCallback could be implemented in the user file
   */
}
 8003ae4:	4770      	bx	lr

08003ae6 <HAL_TIMEx_BreakCallback>:
  UNUSED(htim);

  /* NOTE : This function should not be modified, when the callback is needed,
            the HAL_TIMEx_BreakCallback could be implemented in the user file
   */
}
 8003ae6:	4770      	bx	lr

08003ae8 <HAL_TIMEx_Break2Callback>:
  UNUSED(htim);

  /* NOTE : This function Should not be modified, when the callback is needed,
            the HAL_TIMEx_Break2Callback could be implemented in the user file
   */
}
 8003ae8:	4770      	bx	lr

08003aea <USB_EnableGlobalInt>:
  *         Enables the controller's Global Int in the AHB Config reg
  * @param  USBx Selected device
  * @retval HAL status
  */
HAL_StatusTypeDef USB_EnableGlobalInt(USB_TypeDef *USBx)
{
 8003aea:	4603      	mov	r3, r0
  uint32_t winterruptmask;

  /* Clear pending interrupts */
  USBx->ISTR = 0U;
 8003aec:	2000      	movs	r0, #0
 8003aee:	f8a3 0044 	strh.w	r0, [r3, #68]	; 0x44
                   USB_CNTR_SUSPM | USB_CNTR_ERRM |
                   USB_CNTR_SOFM | USB_CNTR_ESOFM |
                   USB_CNTR_RESETM;

  /* Set interrupt mask */
  USBx->CNTR = (uint16_t)winterruptmask;
 8003af2:	f44f 423f 	mov.w	r2, #48896	; 0xbf00
 8003af6:	f8a3 2040 	strh.w	r2, [r3, #64]	; 0x40

  return HAL_OK;
}
 8003afa:	4770      	bx	lr

08003afc <USB_DisableGlobalInt>:
                   USB_CNTR_SUSPM | USB_CNTR_ERRM |
                   USB_CNTR_SOFM | USB_CNTR_ESOFM |
                   USB_CNTR_RESETM;

  /* Clear interrupt mask */
  USBx->CNTR &= (uint16_t)(~winterruptmask);
 8003afc:	f8b0 3040 	ldrh.w	r3, [r0, #64]	; 0x40
 8003b00:	f423 537c 	bic.w	r3, r3, #16128	; 0x3f00
 8003b04:	045b      	lsls	r3, r3, #17
 8003b06:	0c5b      	lsrs	r3, r3, #17
 8003b08:	f8a0 3040 	strh.w	r3, [r0, #64]	; 0x40

  return HAL_OK;
}
 8003b0c:	2000      	movs	r0, #0
 8003b0e:	4770      	bx	lr

08003b10 <USB_DevInit>:
  * @param  cfg  pointer to a USB_CfgTypeDef structure that contains
  *         the configuration information for the specified USBx peripheral.
  * @retval HAL status
  */
HAL_StatusTypeDef USB_DevInit(USB_TypeDef *USBx, USB_CfgTypeDef cfg)
{
 8003b10:	b084      	sub	sp, #16
 8003b12:	4684      	mov	ip, r0
 8003b14:	a801      	add	r0, sp, #4
 8003b16:	e880 000e 	stmia.w	r0, {r1, r2, r3}
  /* Prevent unused argument(s) compilation warning */
  UNUSED(cfg);

  /* Init Device */
  /* CNTR_FRES = 1 */
  USBx->CNTR = (uint16_t)USB_CNTR_FRES;
 8003b1a:	2301      	movs	r3, #1
 8003b1c:	f8ac 3040 	strh.w	r3, [ip, #64]	; 0x40

  /* CNTR_FRES = 0 */
  USBx->CNTR = 0U;
 8003b20:	2000      	movs	r0, #0
 8003b22:	f8ac 0040 	strh.w	r0, [ip, #64]	; 0x40

  /* Clear pending interrupts */
  USBx->ISTR = 0U;
 8003b26:	f8ac 0044 	strh.w	r0, [ip, #68]	; 0x44

  /*Set Btable Address*/
  USBx->BTABLE = BTABLE_ADDRESS;
 8003b2a:	f8ac 0050 	strh.w	r0, [ip, #80]	; 0x50

  return HAL_OK;
}
 8003b2e:	b004      	add	sp, #16
 8003b30:	4770      	bx	lr

08003b32 <USB_ActivateEndpoint>:
  * @param  USBx Selected device
  * @param  ep pointer to endpoint structure
  * @retval HAL status
  */
HAL_StatusTypeDef USB_ActivateEndpoint(USB_TypeDef *USBx, USB_EPTypeDef *ep)
{
 8003b32:	b530      	push	{r4, r5, lr}
 8003b34:	4603      	mov	r3, r0
  HAL_StatusTypeDef ret = HAL_OK;
  uint16_t wEpRegVal;

  wEpRegVal = PCD_GET_ENDPOINT(USBx, ep->num) & USB_EP_T_MASK;
 8003b36:	f891 e000 	ldrb.w	lr, [r1]
 8003b3a:	f830 202e 	ldrh.w	r2, [r0, lr, lsl #2]
 8003b3e:	b292      	uxth	r2, r2
 8003b40:	f422 42ec 	bic.w	r2, r2, #30208	; 0x7600
 8003b44:	f022 0270 	bic.w	r2, r2, #112	; 0x70
 8003b48:	b292      	uxth	r2, r2

  /* initialize Endpoint */
  switch (ep->type)
 8003b4a:	78c8      	ldrb	r0, [r1, #3]
 8003b4c:	2803      	cmp	r0, #3
 8003b4e:	d863      	bhi.n	8003c18 <USB_ActivateEndpoint+0xe6>
 8003b50:	e8df f000 	tbb	[pc, r0]
 8003b54:	5a025e57 	.word	0x5a025e57
 8003b58:	2000      	movs	r0, #0
    default:
      ret = HAL_ERROR;
      break;
  }

  PCD_SET_ENDPOINT(USBx, ep->num, (wEpRegVal | USB_EP_CTR_RX | USB_EP_CTR_TX));
 8003b5a:	f248 0c80 	movw	ip, #32896	; 0x8080
 8003b5e:	ea42 020c 	orr.w	r2, r2, ip
 8003b62:	f823 202e 	strh.w	r2, [r3, lr, lsl #2]

  PCD_SET_EP_ADDRESS(USBx, ep->num, ep->num);
 8003b66:	f891 e000 	ldrb.w	lr, [r1]
 8003b6a:	f833 202e 	ldrh.w	r2, [r3, lr, lsl #2]
 8003b6e:	b292      	uxth	r2, r2
 8003b70:	f422 42e0 	bic.w	r2, r2, #28672	; 0x7000
 8003b74:	f022 0270 	bic.w	r2, r2, #112	; 0x70
 8003b78:	ea42 020e 	orr.w	r2, r2, lr
 8003b7c:	ea4c 0c02 	orr.w	ip, ip, r2
 8003b80:	f823 c02e 	strh.w	ip, [r3, lr, lsl #2]

  if (ep->doublebuffer == 0U)
 8003b84:	7b0a      	ldrb	r2, [r1, #12]
 8003b86:	2a00      	cmp	r2, #0
 8003b88:	f040 80cb 	bne.w	8003d22 <USB_ActivateEndpoint+0x1f0>
  {
    if (ep->is_in != 0U)
 8003b8c:	784a      	ldrb	r2, [r1, #1]
 8003b8e:	2a00      	cmp	r2, #0
 8003b90:	d044      	beq.n	8003c1c <USB_ActivateEndpoint+0xea>
    {
      /*Set the endpoint Transmit buffer address */
      PCD_SET_EP_TX_ADDRESS(USBx, ep->num, ep->pmaadress);
 8003b92:	f8b3 e050 	ldrh.w	lr, [r3, #80]	; 0x50
 8003b96:	fa1f fe8e 	uxth.w	lr, lr
 8003b9a:	780a      	ldrb	r2, [r1, #0]
 8003b9c:	eb03 1202 	add.w	r2, r3, r2, lsl #4
 8003ba0:	f502 6280 	add.w	r2, r2, #1024	; 0x400
 8003ba4:	f8b1 c006 	ldrh.w	ip, [r1, #6]
 8003ba8:	ea4f 0c5c 	mov.w	ip, ip, lsr #1
 8003bac:	ea4f 0c4c 	mov.w	ip, ip, lsl #1
 8003bb0:	f822 c00e 	strh.w	ip, [r2, lr]
      PCD_CLEAR_TX_DTOG(USBx, ep->num);
 8003bb4:	780c      	ldrb	r4, [r1, #0]
 8003bb6:	f833 2024 	ldrh.w	r2, [r3, r4, lsl #2]
 8003bba:	f012 0f40 	tst.w	r2, #64	; 0x40
 8003bbe:	d00c      	beq.n	8003bda <USB_ActivateEndpoint+0xa8>
 8003bc0:	f833 2024 	ldrh.w	r2, [r3, r4, lsl #2]
 8003bc4:	b292      	uxth	r2, r2
 8003bc6:	f422 42e0 	bic.w	r2, r2, #28672	; 0x7000
 8003bca:	f022 0270 	bic.w	r2, r2, #112	; 0x70
 8003bce:	f442 4200 	orr.w	r2, r2, #32768	; 0x8000
 8003bd2:	f042 02c0 	orr.w	r2, r2, #192	; 0xc0
 8003bd6:	f823 2024 	strh.w	r2, [r3, r4, lsl #2]

      if (ep->type != EP_TYPE_ISOC)
 8003bda:	78ca      	ldrb	r2, [r1, #3]
 8003bdc:	2a01      	cmp	r2, #1
      {
        /* Configure NAK status for the Endpoint */
        PCD_SET_EP_TX_STATUS(USBx, ep->num, USB_EP_TX_NAK);
 8003bde:	7809      	ldrb	r1, [r1, #0]
 8003be0:	f833 2021 	ldrh.w	r2, [r3, r1, lsl #2]
 8003be4:	b292      	uxth	r2, r2
 8003be6:	f422 42e0 	bic.w	r2, r2, #28672	; 0x7000
 8003bea:	f022 0240 	bic.w	r2, r2, #64	; 0x40
 8003bee:	bf18      	it	ne
 8003bf0:	f082 0220 	eorne.w	r2, r2, #32
      }
      else
      {
        /* Configure TX Endpoint to disabled state */
        PCD_SET_EP_TX_STATUS(USBx, ep->num, USB_EP_TX_DIS);
 8003bf4:	f442 4200 	orr.w	r2, r2, #32768	; 0x8000
 8003bf8:	f042 0280 	orr.w	r2, r2, #128	; 0x80
 8003bfc:	f823 2021 	strh.w	r2, [r3, r1, lsl #2]
    }
  }
#endif /* (USE_USB_DOUBLE_BUFFER == 1U) */

  return ret;
}
 8003c00:	bd30      	pop	{r4, r5, pc}
      wEpRegVal |= USB_EP_CONTROL;
 8003c02:	f442 7200 	orr.w	r2, r2, #512	; 0x200
      break;
 8003c06:	e7a8      	b.n	8003b5a <USB_ActivateEndpoint+0x28>
      wEpRegVal |= USB_EP_INTERRUPT;
 8003c08:	f442 62c0 	orr.w	r2, r2, #1536	; 0x600
  HAL_StatusTypeDef ret = HAL_OK;
 8003c0c:	2000      	movs	r0, #0
      break;
 8003c0e:	e7a4      	b.n	8003b5a <USB_ActivateEndpoint+0x28>
      wEpRegVal |= USB_EP_ISOCHRONOUS;
 8003c10:	f442 6280 	orr.w	r2, r2, #1024	; 0x400
  HAL_StatusTypeDef ret = HAL_OK;
 8003c14:	2000      	movs	r0, #0
      break;
 8003c16:	e7a0      	b.n	8003b5a <USB_ActivateEndpoint+0x28>
      ret = HAL_ERROR;
 8003c18:	2001      	movs	r0, #1
 8003c1a:	e79e      	b.n	8003b5a <USB_ActivateEndpoint+0x28>
      PCD_SET_EP_RX_ADDRESS(USBx, ep->num, ep->pmaadress);
 8003c1c:	f8b3 e050 	ldrh.w	lr, [r3, #80]	; 0x50
 8003c20:	fa1f fe8e 	uxth.w	lr, lr
 8003c24:	780a      	ldrb	r2, [r1, #0]
 8003c26:	eb03 1202 	add.w	r2, r3, r2, lsl #4
 8003c2a:	f502 6281 	add.w	r2, r2, #1032	; 0x408
 8003c2e:	f8b1 c006 	ldrh.w	ip, [r1, #6]
 8003c32:	ea4f 0c5c 	mov.w	ip, ip, lsr #1
 8003c36:	ea4f 0c4c 	mov.w	ip, ip, lsl #1
 8003c3a:	f822 c00e 	strh.w	ip, [r2, lr]
      PCD_SET_EP_RX_CNT(USBx, ep->num, ep->maxpacket);
 8003c3e:	f8b3 e050 	ldrh.w	lr, [r3, #80]	; 0x50
 8003c42:	fa1f fe8e 	uxth.w	lr, lr
 8003c46:	780a      	ldrb	r2, [r1, #0]
 8003c48:	eb03 1202 	add.w	r2, r3, r2, lsl #4
 8003c4c:	f202 420c 	addw	r2, r2, #1036	; 0x40c
 8003c50:	f832 c00e 	ldrh.w	ip, [r2, lr]
 8003c54:	f3cc 0c09 	ubfx	ip, ip, #0, #10
 8003c58:	f822 c00e 	strh.w	ip, [r2, lr]
 8003c5c:	690c      	ldr	r4, [r1, #16]
 8003c5e:	2c3e      	cmp	r4, #62	; 0x3e
 8003c60:	d936      	bls.n	8003cd0 <USB_ActivateEndpoint+0x19e>
 8003c62:	0965      	lsrs	r5, r4, #5
 8003c64:	f014 0f1f 	tst.w	r4, #31
 8003c68:	bf08      	it	eq
 8003c6a:	f105 35ff 	addeq.w	r5, r5, #4294967295
 8003c6e:	f832 c00e 	ldrh.w	ip, [r2, lr]
 8003c72:	fa1f fc8c 	uxth.w	ip, ip
 8003c76:	ea4c 2c85 	orr.w	ip, ip, r5, lsl #10
 8003c7a:	ea6f 4c4c 	mvn.w	ip, ip, lsl #17
 8003c7e:	ea6f 4c5c 	mvn.w	ip, ip, lsr #17
 8003c82:	fa1f fc8c 	uxth.w	ip, ip
 8003c86:	f822 c00e 	strh.w	ip, [r2, lr]
      PCD_CLEAR_RX_DTOG(USBx, ep->num);
 8003c8a:	780c      	ldrb	r4, [r1, #0]
 8003c8c:	f833 2024 	ldrh.w	r2, [r3, r4, lsl #2]
 8003c90:	f412 4f80 	tst.w	r2, #16384	; 0x4000
 8003c94:	d00c      	beq.n	8003cb0 <USB_ActivateEndpoint+0x17e>
 8003c96:	f833 2024 	ldrh.w	r2, [r3, r4, lsl #2]
 8003c9a:	b292      	uxth	r2, r2
 8003c9c:	f422 42e0 	bic.w	r2, r2, #28672	; 0x7000
 8003ca0:	f022 0270 	bic.w	r2, r2, #112	; 0x70
 8003ca4:	f442 4240 	orr.w	r2, r2, #49152	; 0xc000
 8003ca8:	f042 0280 	orr.w	r2, r2, #128	; 0x80
 8003cac:	f823 2024 	strh.w	r2, [r3, r4, lsl #2]
      if (ep->num == 0U)
 8003cb0:	7809      	ldrb	r1, [r1, #0]
 8003cb2:	bb31      	cbnz	r1, 8003d02 <USB_ActivateEndpoint+0x1d0>
        PCD_SET_EP_RX_STATUS(USBx, ep->num, USB_EP_RX_VALID);
 8003cb4:	881a      	ldrh	r2, [r3, #0]
 8003cb6:	b292      	uxth	r2, r2
 8003cb8:	f422 4280 	bic.w	r2, r2, #16384	; 0x4000
 8003cbc:	f022 0270 	bic.w	r2, r2, #112	; 0x70
 8003cc0:	f482 5240 	eor.w	r2, r2, #12288	; 0x3000
 8003cc4:	f442 4200 	orr.w	r2, r2, #32768	; 0x8000
 8003cc8:	f042 0280 	orr.w	r2, r2, #128	; 0x80
 8003ccc:	801a      	strh	r2, [r3, #0]
 8003cce:	e797      	b.n	8003c00 <USB_ActivateEndpoint+0xce>
      PCD_SET_EP_RX_CNT(USBx, ep->num, ep->maxpacket);
 8003cd0:	b94c      	cbnz	r4, 8003ce6 <USB_ActivateEndpoint+0x1b4>
 8003cd2:	f832 400e 	ldrh.w	r4, [r2, lr]
 8003cd6:	ea6f 4444 	mvn.w	r4, r4, lsl #17
 8003cda:	ea6f 4454 	mvn.w	r4, r4, lsr #17
 8003cde:	b2a4      	uxth	r4, r4
 8003ce0:	f822 400e 	strh.w	r4, [r2, lr]
 8003ce4:	e7d1      	b.n	8003c8a <USB_ActivateEndpoint+0x158>
 8003ce6:	0865      	lsrs	r5, r4, #1
 8003ce8:	f014 0f01 	tst.w	r4, #1
 8003cec:	bf18      	it	ne
 8003cee:	3501      	addne	r5, #1
 8003cf0:	f832 400e 	ldrh.w	r4, [r2, lr]
 8003cf4:	b2a4      	uxth	r4, r4
 8003cf6:	ea44 2485 	orr.w	r4, r4, r5, lsl #10
 8003cfa:	b2a4      	uxth	r4, r4
 8003cfc:	f822 400e 	strh.w	r4, [r2, lr]
 8003d00:	e7c3      	b.n	8003c8a <USB_ActivateEndpoint+0x158>
        PCD_SET_EP_RX_STATUS(USBx, ep->num, USB_EP_RX_NAK);
 8003d02:	f833 2021 	ldrh.w	r2, [r3, r1, lsl #2]
 8003d06:	b292      	uxth	r2, r2
 8003d08:	f422 4280 	bic.w	r2, r2, #16384	; 0x4000
 8003d0c:	f022 0270 	bic.w	r2, r2, #112	; 0x70
 8003d10:	f482 5200 	eor.w	r2, r2, #8192	; 0x2000
 8003d14:	f442 4200 	orr.w	r2, r2, #32768	; 0x8000
 8003d18:	f042 0280 	orr.w	r2, r2, #128	; 0x80
 8003d1c:	f823 2021 	strh.w	r2, [r3, r1, lsl #2]
 8003d20:	e76e      	b.n	8003c00 <USB_ActivateEndpoint+0xce>
    if (ep->type == EP_TYPE_BULK)
 8003d22:	78ca      	ldrb	r2, [r1, #3]
 8003d24:	2a02      	cmp	r2, #2
 8003d26:	d075      	beq.n	8003e14 <USB_ActivateEndpoint+0x2e2>
      PCD_CLEAR_EP_KIND(USBx, ep->num);
 8003d28:	780c      	ldrb	r4, [r1, #0]
 8003d2a:	f833 2024 	ldrh.w	r2, [r3, r4, lsl #2]
 8003d2e:	b292      	uxth	r2, r2
 8003d30:	f422 42e2 	bic.w	r2, r2, #28928	; 0x7100
 8003d34:	f022 0270 	bic.w	r2, r2, #112	; 0x70
 8003d38:	f442 4200 	orr.w	r2, r2, #32768	; 0x8000
 8003d3c:	f042 0280 	orr.w	r2, r2, #128	; 0x80
 8003d40:	f823 2024 	strh.w	r2, [r3, r4, lsl #2]
    PCD_SET_EP_DBUF_ADDR(USBx, ep->num, ep->pmaaddr0, ep->pmaaddr1);
 8003d44:	f8b3 e050 	ldrh.w	lr, [r3, #80]	; 0x50
 8003d48:	fa1f fe8e 	uxth.w	lr, lr
 8003d4c:	780a      	ldrb	r2, [r1, #0]
 8003d4e:	eb03 1202 	add.w	r2, r3, r2, lsl #4
 8003d52:	f502 6280 	add.w	r2, r2, #1024	; 0x400
 8003d56:	f8b1 c008 	ldrh.w	ip, [r1, #8]
 8003d5a:	ea4f 0c5c 	mov.w	ip, ip, lsr #1
 8003d5e:	ea4f 0c4c 	mov.w	ip, ip, lsl #1
 8003d62:	f822 c00e 	strh.w	ip, [r2, lr]
 8003d66:	f8b3 e050 	ldrh.w	lr, [r3, #80]	; 0x50
 8003d6a:	fa1f fe8e 	uxth.w	lr, lr
 8003d6e:	780a      	ldrb	r2, [r1, #0]
 8003d70:	eb03 1202 	add.w	r2, r3, r2, lsl #4
 8003d74:	f502 6281 	add.w	r2, r2, #1032	; 0x408
 8003d78:	f8b1 c00a 	ldrh.w	ip, [r1, #10]
 8003d7c:	ea4f 0c5c 	mov.w	ip, ip, lsr #1
 8003d80:	ea4f 0c4c 	mov.w	ip, ip, lsl #1
 8003d84:	f822 c00e 	strh.w	ip, [r2, lr]
    if (ep->is_in == 0U)
 8003d88:	784a      	ldrb	r2, [r1, #1]
 8003d8a:	2a00      	cmp	r2, #0
 8003d8c:	d151      	bne.n	8003e32 <USB_ActivateEndpoint+0x300>
      PCD_CLEAR_RX_DTOG(USBx, ep->num);
 8003d8e:	780c      	ldrb	r4, [r1, #0]
 8003d90:	f833 2024 	ldrh.w	r2, [r3, r4, lsl #2]
 8003d94:	f412 4f80 	tst.w	r2, #16384	; 0x4000
 8003d98:	d00c      	beq.n	8003db4 <USB_ActivateEndpoint+0x282>
 8003d9a:	f833 2024 	ldrh.w	r2, [r3, r4, lsl #2]
 8003d9e:	b292      	uxth	r2, r2
 8003da0:	f422 42e0 	bic.w	r2, r2, #28672	; 0x7000
 8003da4:	f022 0270 	bic.w	r2, r2, #112	; 0x70
 8003da8:	f442 4240 	orr.w	r2, r2, #49152	; 0xc000
 8003dac:	f042 0280 	orr.w	r2, r2, #128	; 0x80
 8003db0:	f823 2024 	strh.w	r2, [r3, r4, lsl #2]
      PCD_CLEAR_TX_DTOG(USBx, ep->num);
 8003db4:	780c      	ldrb	r4, [r1, #0]
 8003db6:	f833 2024 	ldrh.w	r2, [r3, r4, lsl #2]
 8003dba:	f012 0f40 	tst.w	r2, #64	; 0x40
 8003dbe:	d00c      	beq.n	8003dda <USB_ActivateEndpoint+0x2a8>
 8003dc0:	f833 2024 	ldrh.w	r2, [r3, r4, lsl #2]
 8003dc4:	b292      	uxth	r2, r2
 8003dc6:	f422 42e0 	bic.w	r2, r2, #28672	; 0x7000
 8003dca:	f022 0270 	bic.w	r2, r2, #112	; 0x70
 8003dce:	f442 4200 	orr.w	r2, r2, #32768	; 0x8000
 8003dd2:	f042 02c0 	orr.w	r2, r2, #192	; 0xc0
 8003dd6:	f823 2024 	strh.w	r2, [r3, r4, lsl #2]
      PCD_SET_EP_RX_STATUS(USBx, ep->num, USB_EP_RX_VALID);
 8003dda:	780c      	ldrb	r4, [r1, #0]
 8003ddc:	f833 2024 	ldrh.w	r2, [r3, r4, lsl #2]
 8003de0:	b292      	uxth	r2, r2
 8003de2:	f422 4280 	bic.w	r2, r2, #16384	; 0x4000
 8003de6:	f022 0270 	bic.w	r2, r2, #112	; 0x70
 8003dea:	f482 5240 	eor.w	r2, r2, #12288	; 0x3000
 8003dee:	f248 0c80 	movw	ip, #32896	; 0x8080
 8003df2:	ea4c 0202 	orr.w	r2, ip, r2
 8003df6:	f823 2024 	strh.w	r2, [r3, r4, lsl #2]
      PCD_SET_EP_TX_STATUS(USBx, ep->num, USB_EP_TX_DIS);
 8003dfa:	7809      	ldrb	r1, [r1, #0]
 8003dfc:	f833 2021 	ldrh.w	r2, [r3, r1, lsl #2]
 8003e00:	b292      	uxth	r2, r2
 8003e02:	f422 42e0 	bic.w	r2, r2, #28672	; 0x7000
 8003e06:	f022 0240 	bic.w	r2, r2, #64	; 0x40
 8003e0a:	ea4c 0c02 	orr.w	ip, ip, r2
 8003e0e:	f823 c021 	strh.w	ip, [r3, r1, lsl #2]
 8003e12:	e6f5      	b.n	8003c00 <USB_ActivateEndpoint+0xce>
      PCD_SET_BULK_EP_DBUF(USBx, ep->num);
 8003e14:	780c      	ldrb	r4, [r1, #0]
 8003e16:	f833 2024 	ldrh.w	r2, [r3, r4, lsl #2]
 8003e1a:	b292      	uxth	r2, r2
 8003e1c:	f422 42e0 	bic.w	r2, r2, #28672	; 0x7000
 8003e20:	f022 0270 	bic.w	r2, r2, #112	; 0x70
 8003e24:	f442 4201 	orr.w	r2, r2, #33024	; 0x8100
 8003e28:	f042 0280 	orr.w	r2, r2, #128	; 0x80
 8003e2c:	f823 2024 	strh.w	r2, [r3, r4, lsl #2]
 8003e30:	e788      	b.n	8003d44 <USB_ActivateEndpoint+0x212>
      PCD_CLEAR_RX_DTOG(USBx, ep->num);
 8003e32:	780c      	ldrb	r4, [r1, #0]
 8003e34:	f833 2024 	ldrh.w	r2, [r3, r4, lsl #2]
 8003e38:	f412 4f80 	tst.w	r2, #16384	; 0x4000
 8003e3c:	d00c      	beq.n	8003e58 <USB_ActivateEndpoint+0x326>
 8003e3e:	f833 2024 	ldrh.w	r2, [r3, r4, lsl #2]
 8003e42:	b292      	uxth	r2, r2
 8003e44:	f422 42e0 	bic.w	r2, r2, #28672	; 0x7000
 8003e48:	f022 0270 	bic.w	r2, r2, #112	; 0x70
 8003e4c:	f442 4240 	orr.w	r2, r2, #49152	; 0xc000
 8003e50:	f042 0280 	orr.w	r2, r2, #128	; 0x80
 8003e54:	f823 2024 	strh.w	r2, [r3, r4, lsl #2]
      PCD_CLEAR_TX_DTOG(USBx, ep->num);
 8003e58:	780c      	ldrb	r4, [r1, #0]
 8003e5a:	f833 2024 	ldrh.w	r2, [r3, r4, lsl #2]
 8003e5e:	f012 0f40 	tst.w	r2, #64	; 0x40
 8003e62:	d00c      	beq.n	8003e7e <USB_ActivateEndpoint+0x34c>
 8003e64:	f833 2024 	ldrh.w	r2, [r3, r4, lsl #2]
 8003e68:	b292      	uxth	r2, r2
 8003e6a:	f422 42e0 	bic.w	r2, r2, #28672	; 0x7000
 8003e6e:	f022 0270 	bic.w	r2, r2, #112	; 0x70
 8003e72:	f442 4200 	orr.w	r2, r2, #32768	; 0x8000
 8003e76:	f042 02c0 	orr.w	r2, r2, #192	; 0xc0
 8003e7a:	f823 2024 	strh.w	r2, [r3, r4, lsl #2]
      if (ep->type != EP_TYPE_ISOC)
 8003e7e:	78ca      	ldrb	r2, [r1, #3]
 8003e80:	2a01      	cmp	r2, #1
        PCD_SET_EP_TX_STATUS(USBx, ep->num, USB_EP_TX_NAK);
 8003e82:	780c      	ldrb	r4, [r1, #0]
 8003e84:	f833 2024 	ldrh.w	r2, [r3, r4, lsl #2]
 8003e88:	b292      	uxth	r2, r2
 8003e8a:	f422 42e0 	bic.w	r2, r2, #28672	; 0x7000
 8003e8e:	f022 0240 	bic.w	r2, r2, #64	; 0x40
 8003e92:	bf18      	it	ne
 8003e94:	f082 0220 	eorne.w	r2, r2, #32
        PCD_SET_EP_TX_STATUS(USBx, ep->num, USB_EP_TX_DIS);
 8003e98:	f442 4200 	orr.w	r2, r2, #32768	; 0x8000
 8003e9c:	f042 0280 	orr.w	r2, r2, #128	; 0x80
 8003ea0:	f823 2024 	strh.w	r2, [r3, r4, lsl #2]
      PCD_SET_EP_RX_STATUS(USBx, ep->num, USB_EP_RX_DIS);
 8003ea4:	7809      	ldrb	r1, [r1, #0]
 8003ea6:	f833 2021 	ldrh.w	r2, [r3, r1, lsl #2]
 8003eaa:	b292      	uxth	r2, r2
 8003eac:	f422 4280 	bic.w	r2, r2, #16384	; 0x4000
 8003eb0:	f022 0270 	bic.w	r2, r2, #112	; 0x70
 8003eb4:	f442 4200 	orr.w	r2, r2, #32768	; 0x8000
 8003eb8:	f042 0280 	orr.w	r2, r2, #128	; 0x80
 8003ebc:	f823 2021 	strh.w	r2, [r3, r1, lsl #2]
 8003ec0:	e69e      	b.n	8003c00 <USB_ActivateEndpoint+0xce>

08003ec2 <USB_DeactivateEndpoint>:
  * @param  ep pointer to endpoint structure
  * @retval HAL status
  */
HAL_StatusTypeDef USB_DeactivateEndpoint(USB_TypeDef *USBx, USB_EPTypeDef *ep)
{
  if (ep->doublebuffer == 0U)
 8003ec2:	7b0b      	ldrb	r3, [r1, #12]
 8003ec4:	2b00      	cmp	r3, #0
 8003ec6:	d146      	bne.n	8003f56 <USB_DeactivateEndpoint+0x94>
  {
    if (ep->is_in != 0U)
 8003ec8:	784b      	ldrb	r3, [r1, #1]
 8003eca:	b313      	cbz	r3, 8003f12 <USB_DeactivateEndpoint+0x50>
    {
      PCD_CLEAR_TX_DTOG(USBx, ep->num);
 8003ecc:	780a      	ldrb	r2, [r1, #0]
 8003ece:	f830 3022 	ldrh.w	r3, [r0, r2, lsl #2]
 8003ed2:	f013 0f40 	tst.w	r3, #64	; 0x40
 8003ed6:	d00c      	beq.n	8003ef2 <USB_DeactivateEndpoint+0x30>
 8003ed8:	f830 3022 	ldrh.w	r3, [r0, r2, lsl #2]
 8003edc:	b29b      	uxth	r3, r3
 8003ede:	f423 43e0 	bic.w	r3, r3, #28672	; 0x7000
 8003ee2:	f023 0370 	bic.w	r3, r3, #112	; 0x70
 8003ee6:	f443 4300 	orr.w	r3, r3, #32768	; 0x8000
 8003eea:	f043 03c0 	orr.w	r3, r3, #192	; 0xc0
 8003eee:	f820 3022 	strh.w	r3, [r0, r2, lsl #2]

      /* Configure DISABLE status for the Endpoint */
      PCD_SET_EP_TX_STATUS(USBx, ep->num, USB_EP_TX_DIS);
 8003ef2:	780a      	ldrb	r2, [r1, #0]
 8003ef4:	f830 3022 	ldrh.w	r3, [r0, r2, lsl #2]
 8003ef8:	b29b      	uxth	r3, r3
 8003efa:	f423 43e0 	bic.w	r3, r3, #28672	; 0x7000
 8003efe:	f023 0340 	bic.w	r3, r3, #64	; 0x40
 8003f02:	f443 4300 	orr.w	r3, r3, #32768	; 0x8000
 8003f06:	f043 0380 	orr.w	r3, r3, #128	; 0x80
 8003f0a:	f820 3022 	strh.w	r3, [r0, r2, lsl #2]
    }
  }
#endif /* (USE_USB_DOUBLE_BUFFER == 1U) */

  return HAL_OK;
}
 8003f0e:	2000      	movs	r0, #0
 8003f10:	4770      	bx	lr
      PCD_CLEAR_RX_DTOG(USBx, ep->num);
 8003f12:	780a      	ldrb	r2, [r1, #0]
 8003f14:	f830 3022 	ldrh.w	r3, [r0, r2, lsl #2]
 8003f18:	f413 4f80 	tst.w	r3, #16384	; 0x4000
 8003f1c:	d00c      	beq.n	8003f38 <USB_DeactivateEndpoint+0x76>
 8003f1e:	f830 3022 	ldrh.w	r3, [r0, r2, lsl #2]
 8003f22:	b29b      	uxth	r3, r3
 8003f24:	f423 43e0 	bic.w	r3, r3, #28672	; 0x7000
 8003f28:	f023 0370 	bic.w	r3, r3, #112	; 0x70
 8003f2c:	f443 4340 	orr.w	r3, r3, #49152	; 0xc000
 8003f30:	f043 0380 	orr.w	r3, r3, #128	; 0x80
 8003f34:	f820 3022 	strh.w	r3, [r0, r2, lsl #2]
      PCD_SET_EP_RX_STATUS(USBx, ep->num, USB_EP_RX_DIS);
 8003f38:	780a      	ldrb	r2, [r1, #0]
 8003f3a:	f830 3022 	ldrh.w	r3, [r0, r2, lsl #2]
 8003f3e:	b29b      	uxth	r3, r3
 8003f40:	f423 4380 	bic.w	r3, r3, #16384	; 0x4000
 8003f44:	f023 0370 	bic.w	r3, r3, #112	; 0x70
 8003f48:	f443 4300 	orr.w	r3, r3, #32768	; 0x8000
 8003f4c:	f043 0380 	orr.w	r3, r3, #128	; 0x80
 8003f50:	f820 3022 	strh.w	r3, [r0, r2, lsl #2]
 8003f54:	e7db      	b.n	8003f0e <USB_DeactivateEndpoint+0x4c>
    if (ep->is_in == 0U)
 8003f56:	784b      	ldrb	r3, [r1, #1]
 8003f58:	2b00      	cmp	r3, #0
 8003f5a:	d14d      	bne.n	8003ff8 <USB_DeactivateEndpoint+0x136>
      PCD_CLEAR_RX_DTOG(USBx, ep->num);
 8003f5c:	780a      	ldrb	r2, [r1, #0]
 8003f5e:	f830 3022 	ldrh.w	r3, [r0, r2, lsl #2]
 8003f62:	f413 4f80 	tst.w	r3, #16384	; 0x4000
 8003f66:	d00c      	beq.n	8003f82 <USB_DeactivateEndpoint+0xc0>
 8003f68:	f830 3022 	ldrh.w	r3, [r0, r2, lsl #2]
 8003f6c:	b29b      	uxth	r3, r3
 8003f6e:	f423 43e0 	bic.w	r3, r3, #28672	; 0x7000
 8003f72:	f023 0370 	bic.w	r3, r3, #112	; 0x70
 8003f76:	f443 4340 	orr.w	r3, r3, #49152	; 0xc000
 8003f7a:	f043 0380 	orr.w	r3, r3, #128	; 0x80
 8003f7e:	f820 3022 	strh.w	r3, [r0, r2, lsl #2]
      PCD_CLEAR_TX_DTOG(USBx, ep->num);
 8003f82:	780a      	ldrb	r2, [r1, #0]
 8003f84:	f830 3022 	ldrh.w	r3, [r0, r2, lsl #2]
 8003f88:	f013 0f40 	tst.w	r3, #64	; 0x40
 8003f8c:	d00c      	beq.n	8003fa8 <USB_DeactivateEndpoint+0xe6>
 8003f8e:	f830 3022 	ldrh.w	r3, [r0, r2, lsl #2]
 8003f92:	b29b      	uxth	r3, r3
 8003f94:	f423 43e0 	bic.w	r3, r3, #28672	; 0x7000
 8003f98:	f023 0370 	bic.w	r3, r3, #112	; 0x70
 8003f9c:	f443 4300 	orr.w	r3, r3, #32768	; 0x8000
 8003fa0:	f043 03c0 	orr.w	r3, r3, #192	; 0xc0
 8003fa4:	f820 3022 	strh.w	r3, [r0, r2, lsl #2]
      PCD_TX_DTOG(USBx, ep->num);
 8003fa8:	780a      	ldrb	r2, [r1, #0]
 8003faa:	f830 3022 	ldrh.w	r3, [r0, r2, lsl #2]
 8003fae:	b29b      	uxth	r3, r3
 8003fb0:	f423 43e0 	bic.w	r3, r3, #28672	; 0x7000
 8003fb4:	f023 0370 	bic.w	r3, r3, #112	; 0x70
 8003fb8:	f443 4300 	orr.w	r3, r3, #32768	; 0x8000
 8003fbc:	f043 03c0 	orr.w	r3, r3, #192	; 0xc0
 8003fc0:	f820 3022 	strh.w	r3, [r0, r2, lsl #2]
      PCD_SET_EP_RX_STATUS(USBx, ep->num, USB_EP_RX_DIS);
 8003fc4:	f891 c000 	ldrb.w	ip, [r1]
 8003fc8:	f830 302c 	ldrh.w	r3, [r0, ip, lsl #2]
 8003fcc:	b29b      	uxth	r3, r3
 8003fce:	f423 4380 	bic.w	r3, r3, #16384	; 0x4000
 8003fd2:	f023 0370 	bic.w	r3, r3, #112	; 0x70
 8003fd6:	f248 0280 	movw	r2, #32896	; 0x8080
 8003fda:	4313      	orrs	r3, r2
 8003fdc:	f820 302c 	strh.w	r3, [r0, ip, lsl #2]
      PCD_SET_EP_TX_STATUS(USBx, ep->num, USB_EP_TX_DIS);
 8003fe0:	7809      	ldrb	r1, [r1, #0]
 8003fe2:	f830 3021 	ldrh.w	r3, [r0, r1, lsl #2]
 8003fe6:	b29b      	uxth	r3, r3
 8003fe8:	f423 43e0 	bic.w	r3, r3, #28672	; 0x7000
 8003fec:	f023 0340 	bic.w	r3, r3, #64	; 0x40
 8003ff0:	431a      	orrs	r2, r3
 8003ff2:	f820 2021 	strh.w	r2, [r0, r1, lsl #2]
 8003ff6:	e78a      	b.n	8003f0e <USB_DeactivateEndpoint+0x4c>
      PCD_CLEAR_RX_DTOG(USBx, ep->num);
 8003ff8:	780a      	ldrb	r2, [r1, #0]
 8003ffa:	f830 3022 	ldrh.w	r3, [r0, r2, lsl #2]
 8003ffe:	f413 4f80 	tst.w	r3, #16384	; 0x4000
 8004002:	d00c      	beq.n	800401e <USB_DeactivateEndpoint+0x15c>
 8004004:	f830 3022 	ldrh.w	r3, [r0, r2, lsl #2]
 8004008:	b29b      	uxth	r3, r3
 800400a:	f423 43e0 	bic.w	r3, r3, #28672	; 0x7000
 800400e:	f023 0370 	bic.w	r3, r3, #112	; 0x70
 8004012:	f443 4340 	orr.w	r3, r3, #49152	; 0xc000
 8004016:	f043 0380 	orr.w	r3, r3, #128	; 0x80
 800401a:	f820 3022 	strh.w	r3, [r0, r2, lsl #2]
      PCD_CLEAR_TX_DTOG(USBx, ep->num);
 800401e:	780a      	ldrb	r2, [r1, #0]
 8004020:	f830 3022 	ldrh.w	r3, [r0, r2, lsl #2]
 8004024:	f013 0f40 	tst.w	r3, #64	; 0x40
 8004028:	d00c      	beq.n	8004044 <USB_DeactivateEndpoint+0x182>
 800402a:	f830 3022 	ldrh.w	r3, [r0, r2, lsl #2]
 800402e:	b29b      	uxth	r3, r3
 8004030:	f423 43e0 	bic.w	r3, r3, #28672	; 0x7000
 8004034:	f023 0370 	bic.w	r3, r3, #112	; 0x70
 8004038:	f443 4300 	orr.w	r3, r3, #32768	; 0x8000
 800403c:	f043 03c0 	orr.w	r3, r3, #192	; 0xc0
 8004040:	f820 3022 	strh.w	r3, [r0, r2, lsl #2]
      PCD_RX_DTOG(USBx, ep->num);
 8004044:	780a      	ldrb	r2, [r1, #0]
 8004046:	f830 3022 	ldrh.w	r3, [r0, r2, lsl #2]
 800404a:	b29b      	uxth	r3, r3
 800404c:	f423 43e0 	bic.w	r3, r3, #28672	; 0x7000
 8004050:	f023 0370 	bic.w	r3, r3, #112	; 0x70
 8004054:	f443 4340 	orr.w	r3, r3, #49152	; 0xc000
 8004058:	f043 0380 	orr.w	r3, r3, #128	; 0x80
 800405c:	f820 3022 	strh.w	r3, [r0, r2, lsl #2]
      PCD_SET_EP_TX_STATUS(USBx, ep->num, USB_EP_TX_DIS);
 8004060:	f891 c000 	ldrb.w	ip, [r1]
 8004064:	f830 302c 	ldrh.w	r3, [r0, ip, lsl #2]
 8004068:	b29b      	uxth	r3, r3
 800406a:	f423 43e0 	bic.w	r3, r3, #28672	; 0x7000
 800406e:	f023 0340 	bic.w	r3, r3, #64	; 0x40
 8004072:	f248 0280 	movw	r2, #32896	; 0x8080
 8004076:	4313      	orrs	r3, r2
 8004078:	f820 302c 	strh.w	r3, [r0, ip, lsl #2]
      PCD_SET_EP_RX_STATUS(USBx, ep->num, USB_EP_RX_DIS);
 800407c:	7809      	ldrb	r1, [r1, #0]
 800407e:	f830 3021 	ldrh.w	r3, [r0, r1, lsl #2]
 8004082:	b29b      	uxth	r3, r3
 8004084:	f423 4380 	bic.w	r3, r3, #16384	; 0x4000
 8004088:	f023 0370 	bic.w	r3, r3, #112	; 0x70
 800408c:	431a      	orrs	r2, r3
 800408e:	f820 2021 	strh.w	r2, [r0, r1, lsl #2]
 8004092:	e73c      	b.n	8003f0e <USB_DeactivateEndpoint+0x4c>

08004094 <USB_EPSetStall>:
  * @param  ep pointer to endpoint structure
  * @retval HAL status
  */
HAL_StatusTypeDef USB_EPSetStall(USB_TypeDef *USBx, USB_EPTypeDef *ep)
{
  if (ep->is_in != 0U)
 8004094:	784b      	ldrb	r3, [r1, #1]
 8004096:	b18b      	cbz	r3, 80040bc <USB_EPSetStall+0x28>
  {
    PCD_SET_EP_TX_STATUS(USBx, ep->num, USB_EP_TX_STALL);
 8004098:	780a      	ldrb	r2, [r1, #0]
 800409a:	f830 3022 	ldrh.w	r3, [r0, r2, lsl #2]
 800409e:	b29b      	uxth	r3, r3
 80040a0:	f423 43e0 	bic.w	r3, r3, #28672	; 0x7000
 80040a4:	f023 0340 	bic.w	r3, r3, #64	; 0x40
 80040a8:	f083 0310 	eor.w	r3, r3, #16
 80040ac:	f443 4300 	orr.w	r3, r3, #32768	; 0x8000
 80040b0:	f043 0380 	orr.w	r3, r3, #128	; 0x80
 80040b4:	f820 3022 	strh.w	r3, [r0, r2, lsl #2]
  {
    PCD_SET_EP_RX_STATUS(USBx, ep->num, USB_EP_RX_STALL);
  }

  return HAL_OK;
}
 80040b8:	2000      	movs	r0, #0
 80040ba:	4770      	bx	lr
    PCD_SET_EP_RX_STATUS(USBx, ep->num, USB_EP_RX_STALL);
 80040bc:	780a      	ldrb	r2, [r1, #0]
 80040be:	f830 3022 	ldrh.w	r3, [r0, r2, lsl #2]
 80040c2:	b29b      	uxth	r3, r3
 80040c4:	f423 4380 	bic.w	r3, r3, #16384	; 0x4000
 80040c8:	f023 0370 	bic.w	r3, r3, #112	; 0x70
 80040cc:	f483 5380 	eor.w	r3, r3, #4096	; 0x1000
 80040d0:	f443 4300 	orr.w	r3, r3, #32768	; 0x8000
 80040d4:	f043 0380 	orr.w	r3, r3, #128	; 0x80
 80040d8:	f820 3022 	strh.w	r3, [r0, r2, lsl #2]
 80040dc:	e7ec      	b.n	80040b8 <USB_EPSetStall+0x24>

080040de <USB_EPClearStall>:
  * @param  ep pointer to endpoint structure
  * @retval HAL status
  */
HAL_StatusTypeDef USB_EPClearStall(USB_TypeDef *USBx, USB_EPTypeDef *ep)
{
  if (ep->doublebuffer == 0U)
 80040de:	7b0b      	ldrb	r3, [r1, #12]
 80040e0:	2b00      	cmp	r3, #0
 80040e2:	d14b      	bne.n	800417c <USB_EPClearStall+0x9e>
  {
    if (ep->is_in != 0U)
 80040e4:	784b      	ldrb	r3, [r1, #1]
 80040e6:	b333      	cbz	r3, 8004136 <USB_EPClearStall+0x58>
    {
      PCD_CLEAR_TX_DTOG(USBx, ep->num);
 80040e8:	780a      	ldrb	r2, [r1, #0]
 80040ea:	f830 3022 	ldrh.w	r3, [r0, r2, lsl #2]
 80040ee:	f013 0f40 	tst.w	r3, #64	; 0x40
 80040f2:	d00c      	beq.n	800410e <USB_EPClearStall+0x30>
 80040f4:	f830 3022 	ldrh.w	r3, [r0, r2, lsl #2]
 80040f8:	b29b      	uxth	r3, r3
 80040fa:	f423 43e0 	bic.w	r3, r3, #28672	; 0x7000
 80040fe:	f023 0370 	bic.w	r3, r3, #112	; 0x70
 8004102:	f443 4300 	orr.w	r3, r3, #32768	; 0x8000
 8004106:	f043 03c0 	orr.w	r3, r3, #192	; 0xc0
 800410a:	f820 3022 	strh.w	r3, [r0, r2, lsl #2]

      if (ep->type != EP_TYPE_ISOC)
 800410e:	78cb      	ldrb	r3, [r1, #3]
 8004110:	2b01      	cmp	r3, #1
 8004112:	d033      	beq.n	800417c <USB_EPClearStall+0x9e>
      {
        /* Configure NAK status for the Endpoint */
        PCD_SET_EP_TX_STATUS(USBx, ep->num, USB_EP_TX_NAK);
 8004114:	780a      	ldrb	r2, [r1, #0]
 8004116:	f830 3022 	ldrh.w	r3, [r0, r2, lsl #2]
 800411a:	b29b      	uxth	r3, r3
 800411c:	f423 43e0 	bic.w	r3, r3, #28672	; 0x7000
 8004120:	f023 0340 	bic.w	r3, r3, #64	; 0x40
 8004124:	f083 0320 	eor.w	r3, r3, #32
 8004128:	f443 4300 	orr.w	r3, r3, #32768	; 0x8000
 800412c:	f043 0380 	orr.w	r3, r3, #128	; 0x80
 8004130:	f820 3022 	strh.w	r3, [r0, r2, lsl #2]
 8004134:	e022      	b.n	800417c <USB_EPClearStall+0x9e>
      }
    }
    else
    {
      PCD_CLEAR_RX_DTOG(USBx, ep->num);
 8004136:	780a      	ldrb	r2, [r1, #0]
 8004138:	f830 3022 	ldrh.w	r3, [r0, r2, lsl #2]
 800413c:	f413 4f80 	tst.w	r3, #16384	; 0x4000
 8004140:	d00c      	beq.n	800415c <USB_EPClearStall+0x7e>
 8004142:	f830 3022 	ldrh.w	r3, [r0, r2, lsl #2]
 8004146:	b29b      	uxth	r3, r3
 8004148:	f423 43e0 	bic.w	r3, r3, #28672	; 0x7000
 800414c:	f023 0370 	bic.w	r3, r3, #112	; 0x70
 8004150:	f443 4340 	orr.w	r3, r3, #49152	; 0xc000
 8004154:	f043 0380 	orr.w	r3, r3, #128	; 0x80
 8004158:	f820 3022 	strh.w	r3, [r0, r2, lsl #2]

      /* Configure VALID status for the Endpoint */
      PCD_SET_EP_RX_STATUS(USBx, ep->num, USB_EP_RX_VALID);
 800415c:	780a      	ldrb	r2, [r1, #0]
 800415e:	f830 3022 	ldrh.w	r3, [r0, r2, lsl #2]
 8004162:	b29b      	uxth	r3, r3
 8004164:	f423 4380 	bic.w	r3, r3, #16384	; 0x4000
 8004168:	f023 0370 	bic.w	r3, r3, #112	; 0x70
 800416c:	f483 5340 	eor.w	r3, r3, #12288	; 0x3000
 8004170:	f443 4300 	orr.w	r3, r3, #32768	; 0x8000
 8004174:	f043 0380 	orr.w	r3, r3, #128	; 0x80
 8004178:	f820 3022 	strh.w	r3, [r0, r2, lsl #2]
    }
  }

  return HAL_OK;
}
 800417c:	2000      	movs	r0, #0
 800417e:	4770      	bx	lr

08004180 <USB_SetDevAddress>:
  *          This parameter can be a value from 0 to 255
  * @retval HAL status
  */
HAL_StatusTypeDef  USB_SetDevAddress(USB_TypeDef *USBx, uint8_t address)
{
  if (address == 0U)
 8004180:	b911      	cbnz	r1, 8004188 <USB_SetDevAddress+0x8>
  {
    /* set device address and enable function */
    USBx->DADDR = (uint16_t)USB_DADDR_EF;
 8004182:	2380      	movs	r3, #128	; 0x80
 8004184:	f8a0 304c 	strh.w	r3, [r0, #76]	; 0x4c
  }

  return HAL_OK;
}
 8004188:	2000      	movs	r0, #0
 800418a:	4770      	bx	lr

0800418c <USB_DevConnect>:
              only by USB OTG FS peripheral.
            - This function is added to ensure compatibility across platforms.
   */

  return HAL_OK;
}
 800418c:	2000      	movs	r0, #0
 800418e:	4770      	bx	lr

08004190 <USB_ReadInterrupts>:
  */
uint32_t USB_ReadInterrupts(USB_TypeDef *USBx)
{
  uint32_t tmpreg;

  tmpreg = USBx->ISTR;
 8004190:	f8b0 0044 	ldrh.w	r0, [r0, #68]	; 0x44
  return tmpreg;
}
 8004194:	b280      	uxth	r0, r0
 8004196:	4770      	bx	lr

08004198 <USB_WritePMA>:
  * @param   wNBytes no. of bytes to be copied.
  * @retval None
  */
void USB_WritePMA(USB_TypeDef *USBx, uint8_t *pbUsrBuf, uint16_t wPMABufAddr, uint16_t wNBytes)
{
  uint32_t n = ((uint32_t)wNBytes + 1U) >> 1;
 8004198:	3301      	adds	r3, #1
  uint32_t count;
  uint16_t WrVal;
  __IO uint16_t *pdwVal;
  uint8_t *pBuf = pbUsrBuf;

  pdwVal = (__IO uint16_t *)(BaseAddr + 0x400U + ((uint32_t)wPMABufAddr * PMA_ACCESS));
 800419a:	eb00 0c42 	add.w	ip, r0, r2, lsl #1
 800419e:	f50c 6c80 	add.w	ip, ip, #1024	; 0x400
 80041a2:	4662      	mov	r2, ip

  for (count = n; count != 0U; count--)
 80041a4:	085b      	lsrs	r3, r3, #1
 80041a6:	d00d      	beq.n	80041c4 <USB_WritePMA+0x2c>
 80041a8:	3102      	adds	r1, #2
 80041aa:	eb0c 0c83 	add.w	ip, ip, r3, lsl #2
  {
    WrVal = pBuf[0];
    WrVal |= (uint16_t)pBuf[1] << 8;
 80041ae:	f811 0c01 	ldrb.w	r0, [r1, #-1]
 80041b2:	f811 3c02 	ldrb.w	r3, [r1, #-2]
 80041b6:	ea43 2300 	orr.w	r3, r3, r0, lsl #8
    *pdwVal = (WrVal & 0xFFFFU);
 80041ba:	f822 3b04 	strh.w	r3, [r2], #4
  for (count = n; count != 0U; count--)
 80041be:	3102      	adds	r1, #2
 80041c0:	4594      	cmp	ip, r2
 80041c2:	d1f4      	bne.n	80041ae <USB_WritePMA+0x16>
#endif /* PMA_ACCESS */

    pBuf++;
    pBuf++;
  }
}
 80041c4:	4770      	bx	lr

080041c6 <USB_EPStartXfer>:
{
 80041c6:	b5f8      	push	{r3, r4, r5, r6, r7, lr}
 80041c8:	4605      	mov	r5, r0
 80041ca:	460c      	mov	r4, r1
  if (ep->is_in == 1U)
 80041cc:	784b      	ldrb	r3, [r1, #1]
 80041ce:	2b01      	cmp	r3, #1
 80041d0:	d03c      	beq.n	800424c <USB_EPStartXfer+0x86>
    if (ep->doublebuffer == 0U)
 80041d2:	7b0a      	ldrb	r2, [r1, #12]
 80041d4:	2a00      	cmp	r2, #0
 80041d6:	f040 8215 	bne.w	8004604 <USB_EPStartXfer+0x43e>
      if (ep->xfer_len > ep->maxpacket)
 80041da:	698b      	ldr	r3, [r1, #24]
 80041dc:	690a      	ldr	r2, [r1, #16]
 80041de:	4293      	cmp	r3, r2
        ep->xfer_len -= len;
 80041e0:	bf86      	itte	hi
 80041e2:	1a99      	subhi	r1, r3, r2
        len = ep->maxpacket;
 80041e4:	4613      	movhi	r3, r2
        ep->xfer_len = 0U;
 80041e6:	2100      	movls	r1, #0
 80041e8:	61a1      	str	r1, [r4, #24]
      PCD_SET_EP_RX_CNT(USBx, ep->num, len);
 80041ea:	f8b0 1050 	ldrh.w	r1, [r0, #80]	; 0x50
 80041ee:	7820      	ldrb	r0, [r4, #0]
 80041f0:	0100      	lsls	r0, r0, #4
 80041f2:	f205 420c 	addw	r2, r5, #1036	; 0x40c
 80041f6:	fa12 f181 	uxtah	r1, r2, r1
 80041fa:	5a42      	ldrh	r2, [r0, r1]
 80041fc:	f3c2 0209 	ubfx	r2, r2, #0, #10
 8004200:	5242      	strh	r2, [r0, r1]
 8004202:	2b3e      	cmp	r3, #62	; 0x3e
 8004204:	f240 81e9 	bls.w	80045da <USB_EPStartXfer+0x414>
 8004208:	095a      	lsrs	r2, r3, #5
 800420a:	f013 0f1f 	tst.w	r3, #31
 800420e:	bf08      	it	eq
 8004210:	f102 32ff 	addeq.w	r2, r2, #4294967295
 8004214:	5a43      	ldrh	r3, [r0, r1]
 8004216:	b29b      	uxth	r3, r3
 8004218:	ea43 2382 	orr.w	r3, r3, r2, lsl #10
 800421c:	ea6f 4343 	mvn.w	r3, r3, lsl #17
 8004220:	ea6f 4353 	mvn.w	r3, r3, lsr #17
 8004224:	b29b      	uxth	r3, r3
 8004226:	5243      	strh	r3, [r0, r1]
    PCD_SET_EP_RX_STATUS(USBx, ep->num, USB_EP_RX_VALID);
 8004228:	7822      	ldrb	r2, [r4, #0]
 800422a:	f835 3022 	ldrh.w	r3, [r5, r2, lsl #2]
 800422e:	b29b      	uxth	r3, r3
 8004230:	f423 4380 	bic.w	r3, r3, #16384	; 0x4000
 8004234:	f023 0370 	bic.w	r3, r3, #112	; 0x70
 8004238:	f483 5340 	eor.w	r3, r3, #12288	; 0x3000
 800423c:	f443 4300 	orr.w	r3, r3, #32768	; 0x8000
 8004240:	f043 0380 	orr.w	r3, r3, #128	; 0x80
 8004244:	f825 3022 	strh.w	r3, [r5, r2, lsl #2]
  return HAL_OK;
 8004248:	2000      	movs	r0, #0
}
 800424a:	bdf8      	pop	{r3, r4, r5, r6, r7, pc}
    if (ep->xfer_len > ep->maxpacket)
 800424c:	690a      	ldr	r2, [r1, #16]
 800424e:	698e      	ldr	r6, [r1, #24]
 8004250:	4296      	cmp	r6, r2
 8004252:	bf28      	it	cs
 8004254:	4616      	movcs	r6, r2
    if (ep->doublebuffer == 0U)
 8004256:	7b0b      	ldrb	r3, [r1, #12]
 8004258:	b1d3      	cbz	r3, 8004290 <USB_EPStartXfer+0xca>
      if (ep->type == EP_TYPE_BULK)
 800425a:	78cb      	ldrb	r3, [r1, #3]
 800425c:	2b02      	cmp	r3, #2
 800425e:	d038      	beq.n	80042d2 <USB_EPStartXfer+0x10c>
        ep->xfer_len_db -= len;
 8004260:	6a0b      	ldr	r3, [r1, #32]
 8004262:	1b9b      	subs	r3, r3, r6
 8004264:	620b      	str	r3, [r1, #32]
        if ((PCD_GET_ENDPOINT(USBx, ep->num) & USB_EP_DTOG_TX) != 0U)
 8004266:	780b      	ldrb	r3, [r1, #0]
 8004268:	f830 2023 	ldrh.w	r2, [r0, r3, lsl #2]
 800426c:	f012 0f40 	tst.w	r2, #64	; 0x40
 8004270:	f000 81a5 	beq.w	80045be <USB_EPStartXfer+0x3f8>
          PCD_SET_EP_DBUF1_CNT(USBx, ep->num, ep->is_in, len);
 8004274:	f8b0 1050 	ldrh.w	r1, [r0, #80]	; 0x50
 8004278:	f200 420c 	addw	r2, r0, #1036	; 0x40c
 800427c:	fa12 f181 	uxtah	r1, r2, r1
 8004280:	011a      	lsls	r2, r3, #4
 8004282:	b2b3      	uxth	r3, r6
 8004284:	528b      	strh	r3, [r1, r2]
          USB_WritePMA(USBx, ep->xfer_buff, pmabuffer, (uint16_t)len);
 8004286:	8962      	ldrh	r2, [r4, #10]
 8004288:	6961      	ldr	r1, [r4, #20]
 800428a:	f7ff ff85 	bl	8004198 <USB_WritePMA>
 800428e:	e00e      	b.n	80042ae <USB_EPStartXfer+0xe8>
      USB_WritePMA(USBx, ep->xfer_buff, ep->pmaadress, (uint16_t)len);
 8004290:	b2b6      	uxth	r6, r6
 8004292:	4633      	mov	r3, r6
 8004294:	88ca      	ldrh	r2, [r1, #6]
 8004296:	6949      	ldr	r1, [r1, #20]
 8004298:	f7ff ff7e 	bl	8004198 <USB_WritePMA>
      PCD_SET_EP_TX_CNT(USBx, ep->num, len);
 800429c:	f8b5 3050 	ldrh.w	r3, [r5, #80]	; 0x50
 80042a0:	7822      	ldrb	r2, [r4, #0]
 80042a2:	0112      	lsls	r2, r2, #4
 80042a4:	f205 4104 	addw	r1, r5, #1028	; 0x404
 80042a8:	fa11 f383 	uxtah	r3, r1, r3
 80042ac:	52d6      	strh	r6, [r2, r3]
    PCD_SET_EP_TX_STATUS(USBx, ep->num, USB_EP_TX_VALID);
 80042ae:	7822      	ldrb	r2, [r4, #0]
 80042b0:	f835 3022 	ldrh.w	r3, [r5, r2, lsl #2]
 80042b4:	b29b      	uxth	r3, r3
 80042b6:	f423 43e0 	bic.w	r3, r3, #28672	; 0x7000
 80042ba:	f023 0340 	bic.w	r3, r3, #64	; 0x40
 80042be:	f083 0330 	eor.w	r3, r3, #48	; 0x30
 80042c2:	f443 4300 	orr.w	r3, r3, #32768	; 0x8000
 80042c6:	f043 0380 	orr.w	r3, r3, #128	; 0x80
 80042ca:	f825 3022 	strh.w	r3, [r5, r2, lsl #2]
  return HAL_OK;
 80042ce:	2000      	movs	r0, #0
 80042d0:	e7bb      	b.n	800424a <USB_EPStartXfer+0x84>
        if (ep->xfer_len_db > ep->maxpacket)
 80042d2:	6a0b      	ldr	r3, [r1, #32]
 80042d4:	429a      	cmp	r2, r3
 80042d6:	f080 8154 	bcs.w	8004582 <USB_EPStartXfer+0x3bc>
          PCD_SET_BULK_EP_DBUF(USBx, ep->num);
 80042da:	780a      	ldrb	r2, [r1, #0]
 80042dc:	f830 3022 	ldrh.w	r3, [r0, r2, lsl #2]
 80042e0:	b29b      	uxth	r3, r3
 80042e2:	f423 43e0 	bic.w	r3, r3, #28672	; 0x7000
 80042e6:	f023 0370 	bic.w	r3, r3, #112	; 0x70
 80042ea:	f443 4301 	orr.w	r3, r3, #33024	; 0x8100
 80042ee:	f043 0380 	orr.w	r3, r3, #128	; 0x80
 80042f2:	f820 3022 	strh.w	r3, [r0, r2, lsl #2]
          ep->xfer_len_db -= len;
 80042f6:	6a0b      	ldr	r3, [r1, #32]
 80042f8:	1b9b      	subs	r3, r3, r6
 80042fa:	620b      	str	r3, [r1, #32]
          if ((PCD_GET_ENDPOINT(USBx, ep->num) & USB_EP_DTOG_TX) != 0U)
 80042fc:	780b      	ldrb	r3, [r1, #0]
 80042fe:	f830 2023 	ldrh.w	r2, [r0, r3, lsl #2]
 8004302:	f012 0f40 	tst.w	r2, #64	; 0x40
 8004306:	f000 809e 	beq.w	8004446 <USB_EPStartXfer+0x280>
            PCD_SET_EP_DBUF1_CNT(USBx, ep->num, ep->is_in, len);
 800430a:	784a      	ldrb	r2, [r1, #1]
 800430c:	2a00      	cmp	r2, #0
 800430e:	d132      	bne.n	8004376 <USB_EPStartXfer+0x1b0>
 8004310:	f8b0 2050 	ldrh.w	r2, [r0, #80]	; 0x50
 8004314:	f200 410c 	addw	r1, r0, #1036	; 0x40c
 8004318:	fa11 f282 	uxtah	r2, r1, r2
 800431c:	011b      	lsls	r3, r3, #4
 800431e:	5ad1      	ldrh	r1, [r2, r3]
 8004320:	f3c1 0109 	ubfx	r1, r1, #0, #10
 8004324:	52d1      	strh	r1, [r2, r3]
 8004326:	2e3e      	cmp	r6, #62	; 0x3e
 8004328:	d910      	bls.n	800434c <USB_EPStartXfer+0x186>
 800432a:	0970      	lsrs	r0, r6, #5
 800432c:	f016 0f1f 	tst.w	r6, #31
 8004330:	bf08      	it	eq
 8004332:	f100 30ff 	addeq.w	r0, r0, #4294967295
 8004336:	5ad1      	ldrh	r1, [r2, r3]
 8004338:	b289      	uxth	r1, r1
 800433a:	ea41 2180 	orr.w	r1, r1, r0, lsl #10
 800433e:	ea6f 4141 	mvn.w	r1, r1, lsl #17
 8004342:	ea6f 4151 	mvn.w	r1, r1, lsr #17
 8004346:	b289      	uxth	r1, r1
 8004348:	52d1      	strh	r1, [r2, r3]
 800434a:	e016      	b.n	800437a <USB_EPStartXfer+0x1b4>
 800434c:	b93e      	cbnz	r6, 800435e <USB_EPStartXfer+0x198>
 800434e:	5ad1      	ldrh	r1, [r2, r3]
 8004350:	ea6f 4141 	mvn.w	r1, r1, lsl #17
 8004354:	ea6f 4151 	mvn.w	r1, r1, lsr #17
 8004358:	b289      	uxth	r1, r1
 800435a:	52d1      	strh	r1, [r2, r3]
 800435c:	e00d      	b.n	800437a <USB_EPStartXfer+0x1b4>
 800435e:	0870      	lsrs	r0, r6, #1
 8004360:	f016 0f01 	tst.w	r6, #1
 8004364:	bf18      	it	ne
 8004366:	3001      	addne	r0, #1
 8004368:	5ad1      	ldrh	r1, [r2, r3]
 800436a:	b289      	uxth	r1, r1
 800436c:	ea41 2180 	orr.w	r1, r1, r0, lsl #10
 8004370:	b289      	uxth	r1, r1
 8004372:	52d1      	strh	r1, [r2, r3]
 8004374:	e001      	b.n	800437a <USB_EPStartXfer+0x1b4>
 8004376:	2a01      	cmp	r2, #1
 8004378:	d032      	beq.n	80043e0 <USB_EPStartXfer+0x21a>
            USB_WritePMA(USBx, ep->xfer_buff, pmabuffer, (uint16_t)len);
 800437a:	b2b3      	uxth	r3, r6
 800437c:	8962      	ldrh	r2, [r4, #10]
 800437e:	6961      	ldr	r1, [r4, #20]
 8004380:	4628      	mov	r0, r5
 8004382:	f7ff ff09 	bl	8004198 <USB_WritePMA>
            ep->xfer_buff += len;
 8004386:	6963      	ldr	r3, [r4, #20]
 8004388:	4433      	add	r3, r6
 800438a:	6163      	str	r3, [r4, #20]
            if (ep->xfer_len_db > ep->maxpacket)
 800438c:	6a23      	ldr	r3, [r4, #32]
 800438e:	6922      	ldr	r2, [r4, #16]
 8004390:	4293      	cmp	r3, r2
              ep->xfer_len_db -= len;
 8004392:	bf86      	itte	hi
 8004394:	1b9a      	subhi	r2, r3, r6
 8004396:	4633      	movhi	r3, r6
              ep->xfer_len_db = 0U;
 8004398:	2200      	movls	r2, #0
 800439a:	6222      	str	r2, [r4, #32]
            PCD_SET_EP_DBUF0_CNT(USBx, ep->num, ep->is_in, len);
 800439c:	7862      	ldrb	r2, [r4, #1]
 800439e:	2a00      	cmp	r2, #0
 80043a0:	d13d      	bne.n	800441e <USB_EPStartXfer+0x258>
 80043a2:	f8b5 2050 	ldrh.w	r2, [r5, #80]	; 0x50
 80043a6:	7820      	ldrb	r0, [r4, #0]
 80043a8:	0100      	lsls	r0, r0, #4
 80043aa:	f205 4104 	addw	r1, r5, #1028	; 0x404
 80043ae:	fa11 f282 	uxtah	r2, r1, r2
 80043b2:	5a81      	ldrh	r1, [r0, r2]
 80043b4:	f3c1 0109 	ubfx	r1, r1, #0, #10
 80043b8:	5281      	strh	r1, [r0, r2]
 80043ba:	2b3e      	cmp	r3, #62	; 0x3e
 80043bc:	d91a      	bls.n	80043f4 <USB_EPStartXfer+0x22e>
 80043be:	095e      	lsrs	r6, r3, #5
 80043c0:	f013 0f1f 	tst.w	r3, #31
 80043c4:	bf08      	it	eq
 80043c6:	f106 36ff 	addeq.w	r6, r6, #4294967295
 80043ca:	5a81      	ldrh	r1, [r0, r2]
 80043cc:	b289      	uxth	r1, r1
 80043ce:	ea41 2186 	orr.w	r1, r1, r6, lsl #10
 80043d2:	ea6f 4141 	mvn.w	r1, r1, lsl #17
 80043d6:	ea6f 4151 	mvn.w	r1, r1, lsr #17
 80043da:	b289      	uxth	r1, r1
 80043dc:	5281      	strh	r1, [r0, r2]
 80043de:	e020      	b.n	8004422 <USB_EPStartXfer+0x25c>
            PCD_SET_EP_DBUF1_CNT(USBx, ep->num, ep->is_in, len);
 80043e0:	f8b0 2050 	ldrh.w	r2, [r0, #80]	; 0x50
 80043e4:	f200 410c 	addw	r1, r0, #1036	; 0x40c
 80043e8:	fa11 f282 	uxtah	r2, r1, r2
 80043ec:	011b      	lsls	r3, r3, #4
 80043ee:	b2b1      	uxth	r1, r6
 80043f0:	52d1      	strh	r1, [r2, r3]
 80043f2:	e7c2      	b.n	800437a <USB_EPStartXfer+0x1b4>
            PCD_SET_EP_DBUF0_CNT(USBx, ep->num, ep->is_in, len);
 80043f4:	b93b      	cbnz	r3, 8004406 <USB_EPStartXfer+0x240>
 80043f6:	5a81      	ldrh	r1, [r0, r2]
 80043f8:	ea6f 4141 	mvn.w	r1, r1, lsl #17
 80043fc:	ea6f 4151 	mvn.w	r1, r1, lsr #17
 8004400:	b289      	uxth	r1, r1
 8004402:	5281      	strh	r1, [r0, r2]
 8004404:	e00d      	b.n	8004422 <USB_EPStartXfer+0x25c>
 8004406:	085e      	lsrs	r6, r3, #1
 8004408:	f013 0f01 	tst.w	r3, #1
 800440c:	bf18      	it	ne
 800440e:	3601      	addne	r6, #1
 8004410:	5a81      	ldrh	r1, [r0, r2]
 8004412:	b289      	uxth	r1, r1
 8004414:	ea41 2186 	orr.w	r1, r1, r6, lsl #10
 8004418:	b289      	uxth	r1, r1
 800441a:	5281      	strh	r1, [r0, r2]
 800441c:	e001      	b.n	8004422 <USB_EPStartXfer+0x25c>
 800441e:	2a01      	cmp	r2, #1
 8004420:	d006      	beq.n	8004430 <USB_EPStartXfer+0x26a>
            USB_WritePMA(USBx, ep->xfer_buff, pmabuffer, (uint16_t)len);
 8004422:	b29b      	uxth	r3, r3
 8004424:	8922      	ldrh	r2, [r4, #8]
 8004426:	6961      	ldr	r1, [r4, #20]
 8004428:	4628      	mov	r0, r5
 800442a:	f7ff feb5 	bl	8004198 <USB_WritePMA>
 800442e:	e73e      	b.n	80042ae <USB_EPStartXfer+0xe8>
            PCD_SET_EP_DBUF0_CNT(USBx, ep->num, ep->is_in, len);
 8004430:	f8b5 2050 	ldrh.w	r2, [r5, #80]	; 0x50
 8004434:	7821      	ldrb	r1, [r4, #0]
 8004436:	0109      	lsls	r1, r1, #4
 8004438:	f205 4004 	addw	r0, r5, #1028	; 0x404
 800443c:	fa10 f282 	uxtah	r2, r0, r2
 8004440:	b298      	uxth	r0, r3
 8004442:	5288      	strh	r0, [r1, r2]
 8004444:	e7ed      	b.n	8004422 <USB_EPStartXfer+0x25c>
            PCD_SET_EP_DBUF0_CNT(USBx, ep->num, ep->is_in, len);
 8004446:	784a      	ldrb	r2, [r1, #1]
 8004448:	2a00      	cmp	r2, #0
 800444a:	d132      	bne.n	80044b2 <USB_EPStartXfer+0x2ec>
 800444c:	f8b0 2050 	ldrh.w	r2, [r0, #80]	; 0x50
 8004450:	f200 4104 	addw	r1, r0, #1028	; 0x404
 8004454:	fa11 f282 	uxtah	r2, r1, r2
 8004458:	011b      	lsls	r3, r3, #4
 800445a:	5ad1      	ldrh	r1, [r2, r3]
 800445c:	f3c1 0109 	ubfx	r1, r1, #0, #10
 8004460:	52d1      	strh	r1, [r2, r3]
 8004462:	2e3e      	cmp	r6, #62	; 0x3e
 8004464:	d910      	bls.n	8004488 <USB_EPStartXfer+0x2c2>
 8004466:	0970      	lsrs	r0, r6, #5
 8004468:	f016 0f1f 	tst.w	r6, #31
 800446c:	bf08      	it	eq
 800446e:	f100 30ff 	addeq.w	r0, r0, #4294967295
 8004472:	5ad1      	ldrh	r1, [r2, r3]
 8004474:	b289      	uxth	r1, r1
 8004476:	ea41 2180 	orr.w	r1, r1, r0, lsl #10
 800447a:	ea6f 4141 	mvn.w	r1, r1, lsl #17
 800447e:	ea6f 4151 	mvn.w	r1, r1, lsr #17
 8004482:	b289      	uxth	r1, r1
 8004484:	52d1      	strh	r1, [r2, r3]
 8004486:	e016      	b.n	80044b6 <USB_EPStartXfer+0x2f0>
 8004488:	b93e      	cbnz	r6, 800449a <USB_EPStartXfer+0x2d4>
 800448a:	5ad1      	ldrh	r1, [r2, r3]
 800448c:	ea6f 4141 	mvn.w	r1, r1, lsl #17
 8004490:	ea6f 4151 	mvn.w	r1, r1, lsr #17
 8004494:	b289      	uxth	r1, r1
 8004496:	52d1      	strh	r1, [r2, r3]
 8004498:	e00d      	b.n	80044b6 <USB_EPStartXfer+0x2f0>
 800449a:	0870      	lsrs	r0, r6, #1
 800449c:	f016 0f01 	tst.w	r6, #1
 80044a0:	bf18      	it	ne
 80044a2:	3001      	addne	r0, #1
 80044a4:	5ad1      	ldrh	r1, [r2, r3]
 80044a6:	b289      	uxth	r1, r1
 80044a8:	ea41 2180 	orr.w	r1, r1, r0, lsl #10
 80044ac:	b289      	uxth	r1, r1
 80044ae:	52d1      	strh	r1, [r2, r3]
 80044b0:	e001      	b.n	80044b6 <USB_EPStartXfer+0x2f0>
 80044b2:	2a01      	cmp	r2, #1
 80044b4:	d032      	beq.n	800451c <USB_EPStartXfer+0x356>
            USB_WritePMA(USBx, ep->xfer_buff, pmabuffer, (uint16_t)len);
 80044b6:	b2b3      	uxth	r3, r6
 80044b8:	8922      	ldrh	r2, [r4, #8]
 80044ba:	6961      	ldr	r1, [r4, #20]
 80044bc:	4628      	mov	r0, r5
 80044be:	f7ff fe6b 	bl	8004198 <USB_WritePMA>
            ep->xfer_buff += len;
 80044c2:	6963      	ldr	r3, [r4, #20]
 80044c4:	4433      	add	r3, r6
 80044c6:	6163      	str	r3, [r4, #20]
            if (ep->xfer_len_db > ep->maxpacket)
 80044c8:	6a23      	ldr	r3, [r4, #32]
 80044ca:	6922      	ldr	r2, [r4, #16]
 80044cc:	4293      	cmp	r3, r2
              ep->xfer_len_db -= len;
 80044ce:	bf86      	itte	hi
 80044d0:	1b9a      	subhi	r2, r3, r6
 80044d2:	4633      	movhi	r3, r6
              ep->xfer_len_db = 0U;
 80044d4:	2200      	movls	r2, #0
 80044d6:	6222      	str	r2, [r4, #32]
            PCD_SET_EP_DBUF1_CNT(USBx, ep->num, ep->is_in, len);
 80044d8:	7862      	ldrb	r2, [r4, #1]
 80044da:	2a00      	cmp	r2, #0
 80044dc:	d13d      	bne.n	800455a <USB_EPStartXfer+0x394>
 80044de:	f8b5 2050 	ldrh.w	r2, [r5, #80]	; 0x50
 80044e2:	7820      	ldrb	r0, [r4, #0]
 80044e4:	0100      	lsls	r0, r0, #4
 80044e6:	f205 410c 	addw	r1, r5, #1036	; 0x40c
 80044ea:	fa11 f282 	uxtah	r2, r1, r2
 80044ee:	5a81      	ldrh	r1, [r0, r2]
 80044f0:	f3c1 0109 	ubfx	r1, r1, #0, #10
 80044f4:	5281      	strh	r1, [r0, r2]
 80044f6:	2b3e      	cmp	r3, #62	; 0x3e
 80044f8:	d91a      	bls.n	8004530 <USB_EPStartXfer+0x36a>
 80044fa:	095e      	lsrs	r6, r3, #5
 80044fc:	f013 0f1f 	tst.w	r3, #31
 8004500:	bf08      	it	eq
 8004502:	f106 36ff 	addeq.w	r6, r6, #4294967295
 8004506:	5a81      	ldrh	r1, [r0, r2]
 8004508:	b289      	uxth	r1, r1
 800450a:	ea41 2186 	orr.w	r1, r1, r6, lsl #10
 800450e:	ea6f 4141 	mvn.w	r1, r1, lsl #17
 8004512:	ea6f 4151 	mvn.w	r1, r1, lsr #17
 8004516:	b289      	uxth	r1, r1
 8004518:	5281      	strh	r1, [r0, r2]
 800451a:	e020      	b.n	800455e <USB_EPStartXfer+0x398>
            PCD_SET_EP_DBUF0_CNT(USBx, ep->num, ep->is_in, len);
 800451c:	f8b0 2050 	ldrh.w	r2, [r0, #80]	; 0x50
 8004520:	f200 4104 	addw	r1, r0, #1028	; 0x404
 8004524:	fa11 f282 	uxtah	r2, r1, r2
 8004528:	011b      	lsls	r3, r3, #4
 800452a:	b2b1      	uxth	r1, r6
 800452c:	52d1      	strh	r1, [r2, r3]
 800452e:	e7c2      	b.n	80044b6 <USB_EPStartXfer+0x2f0>
            PCD_SET_EP_DBUF1_CNT(USBx, ep->num, ep->is_in, len);
 8004530:	b93b      	cbnz	r3, 8004542 <USB_EPStartXfer+0x37c>
 8004532:	5a81      	ldrh	r1, [r0, r2]
 8004534:	ea6f 4141 	mvn.w	r1, r1, lsl #17
 8004538:	ea6f 4151 	mvn.w	r1, r1, lsr #17
 800453c:	b289      	uxth	r1, r1
 800453e:	5281      	strh	r1, [r0, r2]
 8004540:	e00d      	b.n	800455e <USB_EPStartXfer+0x398>
 8004542:	085e      	lsrs	r6, r3, #1
 8004544:	f013 0f01 	tst.w	r3, #1
 8004548:	bf18      	it	ne
 800454a:	3601      	addne	r6, #1
 800454c:	5a81      	ldrh	r1, [r0, r2]
 800454e:	b289      	uxth	r1, r1
 8004550:	ea41 2186 	orr.w	r1, r1, r6, lsl #10
 8004554:	b289      	uxth	r1, r1
 8004556:	5281      	strh	r1, [r0, r2]
 8004558:	e001      	b.n	800455e <USB_EPStartXfer+0x398>
 800455a:	2a01      	cmp	r2, #1
 800455c:	d006      	beq.n	800456c <USB_EPStartXfer+0x3a6>
            USB_WritePMA(USBx, ep->xfer_buff, pmabuffer, (uint16_t)len);
 800455e:	b29b      	uxth	r3, r3
 8004560:	8962      	ldrh	r2, [r4, #10]
 8004562:	6961      	ldr	r1, [r4, #20]
 8004564:	4628      	mov	r0, r5
 8004566:	f7ff fe17 	bl	8004198 <USB_WritePMA>
 800456a:	e6a0      	b.n	80042ae <USB_EPStartXfer+0xe8>
            PCD_SET_EP_DBUF1_CNT(USBx, ep->num, ep->is_in, len);
 800456c:	f8b5 2050 	ldrh.w	r2, [r5, #80]	; 0x50
 8004570:	7821      	ldrb	r1, [r4, #0]
 8004572:	0109      	lsls	r1, r1, #4
 8004574:	f205 400c 	addw	r0, r5, #1036	; 0x40c
 8004578:	fa10 f282 	uxtah	r2, r0, r2
 800457c:	b298      	uxth	r0, r3
 800457e:	5288      	strh	r0, [r1, r2]
 8004580:	e7ed      	b.n	800455e <USB_EPStartXfer+0x398>
          PCD_CLEAR_BULK_EP_DBUF(USBx, ep->num);
 8004582:	7809      	ldrb	r1, [r1, #0]
 8004584:	f830 2021 	ldrh.w	r2, [r0, r1, lsl #2]
 8004588:	b292      	uxth	r2, r2
 800458a:	f422 42e2 	bic.w	r2, r2, #28928	; 0x7100
 800458e:	f022 0270 	bic.w	r2, r2, #112	; 0x70
 8004592:	f442 4200 	orr.w	r2, r2, #32768	; 0x8000
 8004596:	f042 0280 	orr.w	r2, r2, #128	; 0x80
 800459a:	f820 2021 	strh.w	r2, [r0, r1, lsl #2]
          PCD_SET_EP_TX_CNT(USBx, ep->num, len);
 800459e:	f8b0 2050 	ldrh.w	r2, [r0, #80]	; 0x50
 80045a2:	7821      	ldrb	r1, [r4, #0]
 80045a4:	0109      	lsls	r1, r1, #4
 80045a6:	f200 4004 	addw	r0, r0, #1028	; 0x404
 80045aa:	fa10 f282 	uxtah	r2, r0, r2
 80045ae:	b29b      	uxth	r3, r3
 80045b0:	528b      	strh	r3, [r1, r2]
          USB_WritePMA(USBx, ep->xfer_buff, pmabuffer, (uint16_t)len);
 80045b2:	8922      	ldrh	r2, [r4, #8]
 80045b4:	6961      	ldr	r1, [r4, #20]
 80045b6:	4628      	mov	r0, r5
 80045b8:	f7ff fdee 	bl	8004198 <USB_WritePMA>
 80045bc:	e677      	b.n	80042ae <USB_EPStartXfer+0xe8>
          PCD_SET_EP_DBUF0_CNT(USBx, ep->num, ep->is_in, len);
 80045be:	f8b0 1050 	ldrh.w	r1, [r0, #80]	; 0x50
 80045c2:	f200 4204 	addw	r2, r0, #1028	; 0x404
 80045c6:	fa12 f181 	uxtah	r1, r2, r1
 80045ca:	011a      	lsls	r2, r3, #4
 80045cc:	b2b3      	uxth	r3, r6
 80045ce:	528b      	strh	r3, [r1, r2]
          USB_WritePMA(USBx, ep->xfer_buff, pmabuffer, (uint16_t)len);
 80045d0:	8922      	ldrh	r2, [r4, #8]
 80045d2:	6961      	ldr	r1, [r4, #20]
 80045d4:	f7ff fde0 	bl	8004198 <USB_WritePMA>
 80045d8:	e669      	b.n	80042ae <USB_EPStartXfer+0xe8>
      PCD_SET_EP_RX_CNT(USBx, ep->num, len);
 80045da:	b93b      	cbnz	r3, 80045ec <USB_EPStartXfer+0x426>
 80045dc:	5a43      	ldrh	r3, [r0, r1]
 80045de:	ea6f 4343 	mvn.w	r3, r3, lsl #17
 80045e2:	ea6f 4353 	mvn.w	r3, r3, lsr #17
 80045e6:	b29b      	uxth	r3, r3
 80045e8:	5243      	strh	r3, [r0, r1]
 80045ea:	e61d      	b.n	8004228 <USB_EPStartXfer+0x62>
 80045ec:	085a      	lsrs	r2, r3, #1
 80045ee:	f013 0f01 	tst.w	r3, #1
 80045f2:	bf18      	it	ne
 80045f4:	3201      	addne	r2, #1
 80045f6:	5a43      	ldrh	r3, [r0, r1]
 80045f8:	b29b      	uxth	r3, r3
 80045fa:	ea43 2382 	orr.w	r3, r3, r2, lsl #10
 80045fe:	b29b      	uxth	r3, r3
 8004600:	5243      	strh	r3, [r0, r1]
 8004602:	e611      	b.n	8004228 <USB_EPStartXfer+0x62>
      if (ep->type == EP_TYPE_BULK)
 8004604:	78ca      	ldrb	r2, [r1, #3]
 8004606:	2a02      	cmp	r2, #2
 8004608:	d04b      	beq.n	80046a2 <USB_EPStartXfer+0x4dc>
      else if (ep->type == EP_TYPE_ISOC)
 800460a:	2a01      	cmp	r2, #1
 800460c:	f040 8134 	bne.w	8004878 <USB_EPStartXfer+0x6b2>
        if (ep->xfer_len > ep->maxpacket)
 8004610:	698a      	ldr	r2, [r1, #24]
 8004612:	6909      	ldr	r1, [r1, #16]
 8004614:	428a      	cmp	r2, r1
          ep->xfer_len -= len;
 8004616:	bf86      	itte	hi
 8004618:	1a50      	subhi	r0, r2, r1
          len = ep->maxpacket;
 800461a:	460a      	movhi	r2, r1
          ep->xfer_len = 0U;
 800461c:	2000      	movls	r0, #0
 800461e:	61a0      	str	r0, [r4, #24]
        PCD_SET_EP_DBUF_CNT(USBx, ep->num, ep->is_in, len);
 8004620:	2b00      	cmp	r3, #0
 8004622:	f47f ae01 	bne.w	8004228 <USB_EPStartXfer+0x62>
 8004626:	f8b5 3050 	ldrh.w	r3, [r5, #80]	; 0x50
 800462a:	7821      	ldrb	r1, [r4, #0]
 800462c:	0109      	lsls	r1, r1, #4
 800462e:	f205 4004 	addw	r0, r5, #1028	; 0x404
 8004632:	fa10 f383 	uxtah	r3, r0, r3
 8004636:	5ac8      	ldrh	r0, [r1, r3]
 8004638:	f3c0 0009 	ubfx	r0, r0, #0, #10
 800463c:	52c8      	strh	r0, [r1, r3]
 800463e:	2a3e      	cmp	r2, #62	; 0x3e
 8004640:	f240 80c7 	bls.w	80047d2 <USB_EPStartXfer+0x60c>
 8004644:	0956      	lsrs	r6, r2, #5
 8004646:	f012 071f 	ands.w	r7, r2, #31
 800464a:	bf0c      	ite	eq
 800464c:	f106 3cff 	addeq.w	ip, r6, #4294967295
 8004650:	46b4      	movne	ip, r6
 8004652:	5ac8      	ldrh	r0, [r1, r3]
 8004654:	b280      	uxth	r0, r0
 8004656:	ea40 208c 	orr.w	r0, r0, ip, lsl #10
 800465a:	ea6f 4040 	mvn.w	r0, r0, lsl #17
 800465e:	ea6f 4050 	mvn.w	r0, r0, lsr #17
 8004662:	b280      	uxth	r0, r0
 8004664:	52c8      	strh	r0, [r1, r3]
 8004666:	7863      	ldrb	r3, [r4, #1]
 8004668:	2b00      	cmp	r3, #0
 800466a:	f040 80f7 	bne.w	800485c <USB_EPStartXfer+0x696>
 800466e:	f8b5 2050 	ldrh.w	r2, [r5, #80]	; 0x50
 8004672:	f205 430c 	addw	r3, r5, #1036	; 0x40c
 8004676:	fa13 f282 	uxtah	r2, r3, r2
 800467a:	7821      	ldrb	r1, [r4, #0]
 800467c:	0109      	lsls	r1, r1, #4
 800467e:	5a53      	ldrh	r3, [r2, r1]
 8004680:	f3c3 0309 	ubfx	r3, r3, #0, #10
 8004684:	5253      	strh	r3, [r2, r1]
 8004686:	2f00      	cmp	r7, #0
 8004688:	f000 80e6 	beq.w	8004858 <USB_EPStartXfer+0x692>
 800468c:	5a53      	ldrh	r3, [r2, r1]
 800468e:	b29b      	uxth	r3, r3
 8004690:	ea43 2386 	orr.w	r3, r3, r6, lsl #10
 8004694:	ea6f 4343 	mvn.w	r3, r3, lsl #17
 8004698:	ea6f 4353 	mvn.w	r3, r3, lsr #17
 800469c:	b29b      	uxth	r3, r3
 800469e:	5253      	strh	r3, [r2, r1]
 80046a0:	e5c2      	b.n	8004228 <USB_EPStartXfer+0x62>
        PCD_SET_EP_DBUF_CNT(USBx, ep->num, ep->is_in, ep->maxpacket);
 80046a2:	2b00      	cmp	r3, #0
 80046a4:	d140      	bne.n	8004728 <USB_EPStartXfer+0x562>
 80046a6:	f8b0 3050 	ldrh.w	r3, [r0, #80]	; 0x50
 80046aa:	780a      	ldrb	r2, [r1, #0]
 80046ac:	0112      	lsls	r2, r2, #4
 80046ae:	f200 4104 	addw	r1, r0, #1028	; 0x404
 80046b2:	fa11 f383 	uxtah	r3, r1, r3
 80046b6:	5ad1      	ldrh	r1, [r2, r3]
 80046b8:	f3c1 0109 	ubfx	r1, r1, #0, #10
 80046bc:	52d1      	strh	r1, [r2, r3]
 80046be:	6921      	ldr	r1, [r4, #16]
 80046c0:	293e      	cmp	r1, #62	; 0x3e
 80046c2:	d94f      	bls.n	8004764 <USB_EPStartXfer+0x59e>
 80046c4:	0948      	lsrs	r0, r1, #5
 80046c6:	f011 0f1f 	tst.w	r1, #31
 80046ca:	bf08      	it	eq
 80046cc:	f100 30ff 	addeq.w	r0, r0, #4294967295
 80046d0:	5ad1      	ldrh	r1, [r2, r3]
 80046d2:	b289      	uxth	r1, r1
 80046d4:	ea41 2180 	orr.w	r1, r1, r0, lsl #10
 80046d8:	ea6f 4141 	mvn.w	r1, r1, lsl #17
 80046dc:	ea6f 4151 	mvn.w	r1, r1, lsr #17
 80046e0:	b289      	uxth	r1, r1
 80046e2:	52d1      	strh	r1, [r2, r3]
 80046e4:	7863      	ldrb	r3, [r4, #1]
 80046e6:	2b00      	cmp	r3, #0
 80046e8:	d166      	bne.n	80047b8 <USB_EPStartXfer+0x5f2>
 80046ea:	f8b5 3050 	ldrh.w	r3, [r5, #80]	; 0x50
 80046ee:	7822      	ldrb	r2, [r4, #0]
 80046f0:	0112      	lsls	r2, r2, #4
 80046f2:	f205 410c 	addw	r1, r5, #1036	; 0x40c
 80046f6:	fa11 f383 	uxtah	r3, r1, r3
 80046fa:	5ad1      	ldrh	r1, [r2, r3]
 80046fc:	f3c1 0109 	ubfx	r1, r1, #0, #10
 8004700:	52d1      	strh	r1, [r2, r3]
 8004702:	6921      	ldr	r1, [r4, #16]
 8004704:	293e      	cmp	r1, #62	; 0x3e
 8004706:	d942      	bls.n	800478e <USB_EPStartXfer+0x5c8>
 8004708:	0948      	lsrs	r0, r1, #5
 800470a:	f011 0f1f 	tst.w	r1, #31
 800470e:	bf08      	it	eq
 8004710:	f100 30ff 	addeq.w	r0, r0, #4294967295
 8004714:	5ad1      	ldrh	r1, [r2, r3]
 8004716:	b289      	uxth	r1, r1
 8004718:	ea41 2180 	orr.w	r1, r1, r0, lsl #10
 800471c:	ea6f 4141 	mvn.w	r1, r1, lsl #17
 8004720:	ea6f 4151 	mvn.w	r1, r1, lsr #17
 8004724:	b289      	uxth	r1, r1
 8004726:	52d1      	strh	r1, [r2, r3]
        if (ep->xfer_count != 0U)
 8004728:	69e3      	ldr	r3, [r4, #28]
 800472a:	2b00      	cmp	r3, #0
 800472c:	f43f ad7c 	beq.w	8004228 <USB_EPStartXfer+0x62>
          wEPVal = PCD_GET_ENDPOINT(USBx, ep->num);
 8004730:	7822      	ldrb	r2, [r4, #0]
 8004732:	f835 1022 	ldrh.w	r1, [r5, r2, lsl #2]
          if ((((wEPVal & USB_EP_DTOG_RX) != 0U) && ((wEPVal & USB_EP_DTOG_TX) != 0U)) ||
 8004736:	f244 0340 	movw	r3, #16448	; 0x4040
 800473a:	ea03 0001 	and.w	r0, r3, r1
 800473e:	438b      	bics	r3, r1
 8004740:	d002      	beq.n	8004748 <USB_EPStartXfer+0x582>
 8004742:	2800      	cmp	r0, #0
 8004744:	f47f ad70 	bne.w	8004228 <USB_EPStartXfer+0x62>
            PCD_FREE_USER_BUFFER(USBx, ep->num, 0U);
 8004748:	f835 3022 	ldrh.w	r3, [r5, r2, lsl #2]
 800474c:	b29b      	uxth	r3, r3
 800474e:	f423 43e0 	bic.w	r3, r3, #28672	; 0x7000
 8004752:	f023 0370 	bic.w	r3, r3, #112	; 0x70
 8004756:	f443 4300 	orr.w	r3, r3, #32768	; 0x8000
 800475a:	f043 03c0 	orr.w	r3, r3, #192	; 0xc0
 800475e:	f825 3022 	strh.w	r3, [r5, r2, lsl #2]
 8004762:	e561      	b.n	8004228 <USB_EPStartXfer+0x62>
        PCD_SET_EP_DBUF_CNT(USBx, ep->num, ep->is_in, ep->maxpacket);
 8004764:	b939      	cbnz	r1, 8004776 <USB_EPStartXfer+0x5b0>
 8004766:	5ad1      	ldrh	r1, [r2, r3]
 8004768:	ea6f 4141 	mvn.w	r1, r1, lsl #17
 800476c:	ea6f 4151 	mvn.w	r1, r1, lsr #17
 8004770:	b289      	uxth	r1, r1
 8004772:	52d1      	strh	r1, [r2, r3]
 8004774:	e7b6      	b.n	80046e4 <USB_EPStartXfer+0x51e>
 8004776:	0848      	lsrs	r0, r1, #1
 8004778:	f011 0f01 	tst.w	r1, #1
 800477c:	bf18      	it	ne
 800477e:	3001      	addne	r0, #1
 8004780:	5ad1      	ldrh	r1, [r2, r3]
 8004782:	b289      	uxth	r1, r1
 8004784:	ea41 2180 	orr.w	r1, r1, r0, lsl #10
 8004788:	b289      	uxth	r1, r1
 800478a:	52d1      	strh	r1, [r2, r3]
 800478c:	e7aa      	b.n	80046e4 <USB_EPStartXfer+0x51e>
 800478e:	b939      	cbnz	r1, 80047a0 <USB_EPStartXfer+0x5da>
 8004790:	5ad1      	ldrh	r1, [r2, r3]
 8004792:	ea6f 4141 	mvn.w	r1, r1, lsl #17
 8004796:	ea6f 4151 	mvn.w	r1, r1, lsr #17
 800479a:	b289      	uxth	r1, r1
 800479c:	52d1      	strh	r1, [r2, r3]
 800479e:	e7c3      	b.n	8004728 <USB_EPStartXfer+0x562>
 80047a0:	0848      	lsrs	r0, r1, #1
 80047a2:	f011 0f01 	tst.w	r1, #1
 80047a6:	bf18      	it	ne
 80047a8:	3001      	addne	r0, #1
 80047aa:	5ad1      	ldrh	r1, [r2, r3]
 80047ac:	b289      	uxth	r1, r1
 80047ae:	ea41 2180 	orr.w	r1, r1, r0, lsl #10
 80047b2:	b289      	uxth	r1, r1
 80047b4:	52d1      	strh	r1, [r2, r3]
 80047b6:	e7b7      	b.n	8004728 <USB_EPStartXfer+0x562>
 80047b8:	2b01      	cmp	r3, #1
 80047ba:	d1b5      	bne.n	8004728 <USB_EPStartXfer+0x562>
 80047bc:	f8b5 3050 	ldrh.w	r3, [r5, #80]	; 0x50
 80047c0:	7822      	ldrb	r2, [r4, #0]
 80047c2:	0112      	lsls	r2, r2, #4
 80047c4:	f205 410c 	addw	r1, r5, #1036	; 0x40c
 80047c8:	fa11 f383 	uxtah	r3, r1, r3
 80047cc:	8a21      	ldrh	r1, [r4, #16]
 80047ce:	52d1      	strh	r1, [r2, r3]
 80047d0:	e7aa      	b.n	8004728 <USB_EPStartXfer+0x562>
        PCD_SET_EP_DBUF_CNT(USBx, ep->num, ep->is_in, len);
 80047d2:	b9ea      	cbnz	r2, 8004810 <USB_EPStartXfer+0x64a>
 80047d4:	5ac8      	ldrh	r0, [r1, r3]
 80047d6:	ea6f 4040 	mvn.w	r0, r0, lsl #17
 80047da:	ea6f 4050 	mvn.w	r0, r0, lsr #17
 80047de:	b280      	uxth	r0, r0
 80047e0:	52c8      	strh	r0, [r1, r3]
 80047e2:	7863      	ldrb	r3, [r4, #1]
 80047e4:	2b00      	cmp	r3, #0
 80047e6:	d139      	bne.n	800485c <USB_EPStartXfer+0x696>
 80047e8:	f8b5 2050 	ldrh.w	r2, [r5, #80]	; 0x50
 80047ec:	7821      	ldrb	r1, [r4, #0]
 80047ee:	0109      	lsls	r1, r1, #4
 80047f0:	f205 430c 	addw	r3, r5, #1036	; 0x40c
 80047f4:	fa13 f282 	uxtah	r2, r3, r2
 80047f8:	5a8b      	ldrh	r3, [r1, r2]
 80047fa:	f3c3 0309 	ubfx	r3, r3, #0, #10
 80047fe:	528b      	strh	r3, [r1, r2]
 8004800:	5a8b      	ldrh	r3, [r1, r2]
 8004802:	ea6f 4343 	mvn.w	r3, r3, lsl #17
 8004806:	ea6f 4353 	mvn.w	r3, r3, lsr #17
 800480a:	b29b      	uxth	r3, r3
 800480c:	528b      	strh	r3, [r1, r2]
 800480e:	e50b      	b.n	8004228 <USB_EPStartXfer+0x62>
 8004810:	0856      	lsrs	r6, r2, #1
 8004812:	f012 0701 	ands.w	r7, r2, #1
 8004816:	bf14      	ite	ne
 8004818:	f106 0c01 	addne.w	ip, r6, #1
 800481c:	46b4      	moveq	ip, r6
 800481e:	5ac8      	ldrh	r0, [r1, r3]
 8004820:	b280      	uxth	r0, r0
 8004822:	ea40 208c 	orr.w	r0, r0, ip, lsl #10
 8004826:	b280      	uxth	r0, r0
 8004828:	52c8      	strh	r0, [r1, r3]
 800482a:	7863      	ldrb	r3, [r4, #1]
 800482c:	b9b3      	cbnz	r3, 800485c <USB_EPStartXfer+0x696>
 800482e:	f8b5 2050 	ldrh.w	r2, [r5, #80]	; 0x50
 8004832:	f205 430c 	addw	r3, r5, #1036	; 0x40c
 8004836:	fa13 f282 	uxtah	r2, r3, r2
 800483a:	7821      	ldrb	r1, [r4, #0]
 800483c:	0109      	lsls	r1, r1, #4
 800483e:	5a53      	ldrh	r3, [r2, r1]
 8004840:	f3c3 0309 	ubfx	r3, r3, #0, #10
 8004844:	5253      	strh	r3, [r2, r1]
 8004846:	b107      	cbz	r7, 800484a <USB_EPStartXfer+0x684>
 8004848:	3601      	adds	r6, #1
 800484a:	5a53      	ldrh	r3, [r2, r1]
 800484c:	b29b      	uxth	r3, r3
 800484e:	ea43 2386 	orr.w	r3, r3, r6, lsl #10
 8004852:	b29b      	uxth	r3, r3
 8004854:	5253      	strh	r3, [r2, r1]
 8004856:	e4e7      	b.n	8004228 <USB_EPStartXfer+0x62>
 8004858:	3e01      	subs	r6, #1
 800485a:	e717      	b.n	800468c <USB_EPStartXfer+0x4c6>
 800485c:	2b01      	cmp	r3, #1
 800485e:	f47f ace3 	bne.w	8004228 <USB_EPStartXfer+0x62>
 8004862:	f8b5 3050 	ldrh.w	r3, [r5, #80]	; 0x50
 8004866:	b29b      	uxth	r3, r3
 8004868:	7821      	ldrb	r1, [r4, #0]
 800486a:	f203 430c 	addw	r3, r3, #1036	; 0x40c
 800486e:	eb03 1301 	add.w	r3, r3, r1, lsl #4
 8004872:	b292      	uxth	r2, r2
 8004874:	52ea      	strh	r2, [r5, r3]
 8004876:	e4d7      	b.n	8004228 <USB_EPStartXfer+0x62>
        return HAL_ERROR;
 8004878:	2001      	movs	r0, #1
 800487a:	e4e6      	b.n	800424a <USB_EPStartXfer+0x84>

0800487c <USB_ReadPMA>:
  * @param   wPMABufAddr address into PMA.
  * @param   wNBytes no. of bytes to be copied.
  * @retval None
  */
void USB_ReadPMA(USB_TypeDef *USBx, uint8_t *pbUsrBuf, uint16_t wPMABufAddr, uint16_t wNBytes)
{
 800487c:	b530      	push	{r4, r5, lr}
  uint32_t count;
  uint32_t RdVal;
  __IO uint16_t *pdwVal;
  uint8_t *pBuf = pbUsrBuf;

  pdwVal = (__IO uint16_t *)(BaseAddr + 0x400U + ((uint32_t)wPMABufAddr * PMA_ACCESS));
 800487e:	eb00 0042 	add.w	r0, r0, r2, lsl #1
 8004882:	f500 6480 	add.w	r4, r0, #1024	; 0x400

  for (count = n; count != 0U; count--)
 8004886:	085d      	lsrs	r5, r3, #1
 8004888:	d014      	beq.n	80048b4 <USB_ReadPMA+0x38>
 800488a:	f101 0c02 	add.w	ip, r1, #2
  pdwVal = (__IO uint16_t *)(BaseAddr + 0x400U + ((uint32_t)wPMABufAddr * PMA_ACCESS));
 800488e:	4620      	mov	r0, r4
  for (count = n; count != 0U; count--)
 8004890:	46ae      	mov	lr, r5
  {
    RdVal = *(__IO uint16_t *)pdwVal;
 8004892:	f830 2b04 	ldrh.w	r2, [r0], #4
 8004896:	b292      	uxth	r2, r2
    pdwVal++;
    *pBuf = (uint8_t)((RdVal >> 0) & 0xFFU);
 8004898:	f80c 2c02 	strb.w	r2, [ip, #-2]
    pBuf++;
    *pBuf = (uint8_t)((RdVal >> 8) & 0xFFU);
 800489c:	0a12      	lsrs	r2, r2, #8
 800489e:	f80c 2c01 	strb.w	r2, [ip, #-1]
  for (count = n; count != 0U; count--)
 80048a2:	f10c 0c02 	add.w	ip, ip, #2
 80048a6:	f1be 0e01 	subs.w	lr, lr, #1
 80048aa:	d1f2      	bne.n	8004892 <USB_ReadPMA+0x16>
    pBuf++;
 80048ac:	eb01 0145 	add.w	r1, r1, r5, lsl #1

#if PMA_ACCESS > 1U
    pdwVal++;
 80048b0:	eb04 0485 	add.w	r4, r4, r5, lsl #2
#endif /* PMA_ACCESS */
  }

  if ((wNBytes % 2U) != 0U)
 80048b4:	f013 0f01 	tst.w	r3, #1
  {
    RdVal = *pdwVal;
 80048b8:	bf1c      	itt	ne
 80048ba:	8823      	ldrhne	r3, [r4, #0]
    *pBuf = (uint8_t)((RdVal >> 0) & 0xFFU);
 80048bc:	700b      	strbne	r3, [r1, #0]
  }
}
 80048be:	bd30      	pop	{r4, r5, pc}

080048c0 <USBD_CDC_EP0_RxReady>:
  */
static uint8_t  USBD_CDC_EP0_RxReady(USBD_HandleTypeDef *pdev)
{
  USBD_CDC_HandleTypeDef   *hcdc = (USBD_CDC_HandleTypeDef *) pdev->pClassData;

  if ((pdev->pUserData != NULL) && (hcdc->CmdOpCode != 0xFFU))
 80048c0:	f8d0 32bc 	ldr.w	r3, [r0, #700]	; 0x2bc
 80048c4:	b183      	cbz	r3, 80048e8 <USBD_CDC_EP0_RxReady+0x28>
{
 80048c6:	b510      	push	{r4, lr}
  USBD_CDC_HandleTypeDef   *hcdc = (USBD_CDC_HandleTypeDef *) pdev->pClassData;
 80048c8:	f8d0 42b8 	ldr.w	r4, [r0, #696]	; 0x2b8
  if ((pdev->pUserData != NULL) && (hcdc->CmdOpCode != 0xFFU))
 80048cc:	f894 0200 	ldrb.w	r0, [r4, #512]	; 0x200
 80048d0:	28ff      	cmp	r0, #255	; 0xff
 80048d2:	d007      	beq.n	80048e4 <USBD_CDC_EP0_RxReady+0x24>
  {
    ((USBD_CDC_ItfTypeDef *)pdev->pUserData)->Control(hcdc->CmdOpCode,
 80048d4:	689b      	ldr	r3, [r3, #8]
 80048d6:	f894 2201 	ldrb.w	r2, [r4, #513]	; 0x201
 80048da:	4621      	mov	r1, r4
 80048dc:	4798      	blx	r3
                                                      (uint8_t *)(void *)hcdc->data,
                                                      (uint16_t)hcdc->CmdLength);
    hcdc->CmdOpCode = 0xFFU;
 80048de:	23ff      	movs	r3, #255	; 0xff
 80048e0:	f884 3200 	strb.w	r3, [r4, #512]	; 0x200

  }
  return USBD_OK;
}
 80048e4:	2000      	movs	r0, #0
 80048e6:	bd10      	pop	{r4, pc}
 80048e8:	2000      	movs	r0, #0
 80048ea:	4770      	bx	lr

080048ec <USBD_CDC_GetFSCfgDesc>:
  * @param  length : pointer data length
  * @retval pointer to descriptor buffer
  */
static uint8_t  *USBD_CDC_GetFSCfgDesc(uint16_t *length)
{
  *length = sizeof(USBD_CDC_CfgFSDesc);
 80048ec:	2343      	movs	r3, #67	; 0x43
 80048ee:	8003      	strh	r3, [r0, #0]
  return USBD_CDC_CfgFSDesc;
}
 80048f0:	4800      	ldr	r0, [pc, #0]	; (80048f4 <USBD_CDC_GetFSCfgDesc+0x8>)
 80048f2:	4770      	bx	lr
 80048f4:	20000094 	.word	0x20000094

080048f8 <USBD_CDC_GetHSCfgDesc>:
  * @param  length : pointer data length
  * @retval pointer to descriptor buffer
  */
static uint8_t  *USBD_CDC_GetHSCfgDesc(uint16_t *length)
{
  *length = sizeof(USBD_CDC_CfgHSDesc);
 80048f8:	2343      	movs	r3, #67	; 0x43
 80048fa:	8003      	strh	r3, [r0, #0]
  return USBD_CDC_CfgHSDesc;
}
 80048fc:	4800      	ldr	r0, [pc, #0]	; (8004900 <USBD_CDC_GetHSCfgDesc+0x8>)
 80048fe:	4770      	bx	lr
 8004900:	200000d8 	.word	0x200000d8

08004904 <USBD_CDC_GetOtherSpeedCfgDesc>:
  * @param  length : pointer data length
  * @retval pointer to descriptor buffer
  */
static uint8_t  *USBD_CDC_GetOtherSpeedCfgDesc(uint16_t *length)
{
  *length = sizeof(USBD_CDC_OtherSpeedCfgDesc);
 8004904:	2343      	movs	r3, #67	; 0x43
 8004906:	8003      	strh	r3, [r0, #0]
  return USBD_CDC_OtherSpeedCfgDesc;
}
 8004908:	4800      	ldr	r0, [pc, #0]	; (800490c <USBD_CDC_GetOtherSpeedCfgDesc+0x8>)
 800490a:	4770      	bx	lr
 800490c:	20000128 	.word	0x20000128

08004910 <USBD_CDC_GetDeviceQualifierDescriptor>:
* @param  length : pointer data length
* @retval pointer to descriptor buffer
*/
uint8_t  *USBD_CDC_GetDeviceQualifierDescriptor(uint16_t *length)
{
  *length = sizeof(USBD_CDC_DeviceQualifierDesc);
 8004910:	230a      	movs	r3, #10
 8004912:	8003      	strh	r3, [r0, #0]
  return USBD_CDC_DeviceQualifierDesc;
}
 8004914:	4800      	ldr	r0, [pc, #0]	; (8004918 <USBD_CDC_GetDeviceQualifierDescriptor+0x8>)
 8004916:	4770      	bx	lr
 8004918:	2000011c 	.word	0x2000011c

0800491c <USBD_CDC_DataOut>:
{
 800491c:	b538      	push	{r3, r4, r5, lr}
 800491e:	4604      	mov	r4, r0
  USBD_CDC_HandleTypeDef   *hcdc = (USBD_CDC_HandleTypeDef *) pdev->pClassData;
 8004920:	f8d0 52b8 	ldr.w	r5, [r0, #696]	; 0x2b8
  hcdc->RxLength = USBD_LL_GetRxDataSize(pdev, epnum);
 8004924:	f001 f892 	bl	8005a4c <USBD_LL_GetRxDataSize>
 8004928:	f8c5 020c 	str.w	r0, [r5, #524]	; 0x20c
  if (pdev->pClassData != NULL)
 800492c:	f8d4 32b8 	ldr.w	r3, [r4, #696]	; 0x2b8
 8004930:	b14b      	cbz	r3, 8004946 <USBD_CDC_DataOut+0x2a>
    ((USBD_CDC_ItfTypeDef *)pdev->pUserData)->Receive(hcdc->RxBuffer, &hcdc->RxLength);
 8004932:	f8d4 32bc 	ldr.w	r3, [r4, #700]	; 0x2bc
 8004936:	68db      	ldr	r3, [r3, #12]
 8004938:	f505 7103 	add.w	r1, r5, #524	; 0x20c
 800493c:	f8d5 0204 	ldr.w	r0, [r5, #516]	; 0x204
 8004940:	4798      	blx	r3
    return USBD_OK;
 8004942:	2000      	movs	r0, #0
}
 8004944:	bd38      	pop	{r3, r4, r5, pc}
    return USBD_FAIL;
 8004946:	2002      	movs	r0, #2
 8004948:	e7fc      	b.n	8004944 <USBD_CDC_DataOut+0x28>

0800494a <USBD_CDC_DataIn>:
  USBD_CDC_HandleTypeDef *hcdc = (USBD_CDC_HandleTypeDef *)pdev->pClassData;
 800494a:	f8d0 22b8 	ldr.w	r2, [r0, #696]	; 0x2b8
  if (pdev->pClassData != NULL)
 800494e:	b312      	cbz	r2, 8004996 <USBD_CDC_DataIn+0x4c>
{
 8004950:	b510      	push	{r4, lr}
  PCD_HandleTypeDef *hpcd = pdev->pData;
 8004952:	f8d0 42c0 	ldr.w	r4, [r0, #704]	; 0x2c0
    if ((pdev->ep_in[epnum].total_length > 0U) && ((pdev->ep_in[epnum].total_length % hpcd->IN_ep[epnum].maxpacket) == 0U))
 8004956:	eb01 0381 	add.w	r3, r1, r1, lsl #2
 800495a:	eb00 0383 	add.w	r3, r0, r3, lsl #2
 800495e:	69db      	ldr	r3, [r3, #28]
 8004960:	b14b      	cbz	r3, 8004976 <USBD_CDC_DataIn+0x2c>
 8004962:	eb01 0c81 	add.w	ip, r1, r1, lsl #2
 8004966:	eb04 04cc 	add.w	r4, r4, ip, lsl #3
 800496a:	6ba4      	ldr	r4, [r4, #56]	; 0x38
 800496c:	fbb3 fcf4 	udiv	ip, r3, r4
 8004970:	fb04 331c 	mls	r3, r4, ip, r3
 8004974:	b11b      	cbz	r3, 800497e <USBD_CDC_DataIn+0x34>
      hcdc->TxState = 0U;
 8004976:	2000      	movs	r0, #0
 8004978:	f8c2 0214 	str.w	r0, [r2, #532]	; 0x214
}
 800497c:	bd10      	pop	{r4, pc}
      pdev->ep_in[epnum].total_length = 0U;
 800497e:	eb01 0381 	add.w	r3, r1, r1, lsl #2
 8004982:	eb00 0383 	add.w	r3, r0, r3, lsl #2
 8004986:	2400      	movs	r4, #0
 8004988:	61dc      	str	r4, [r3, #28]
      USBD_LL_Transmit(pdev, epnum, NULL, 0U);
 800498a:	4623      	mov	r3, r4
 800498c:	4622      	mov	r2, r4
 800498e:	f001 f84d 	bl	8005a2c <USBD_LL_Transmit>
    return USBD_OK;
 8004992:	4620      	mov	r0, r4
      USBD_LL_Transmit(pdev, epnum, NULL, 0U);
 8004994:	e7f2      	b.n	800497c <USBD_CDC_DataIn+0x32>
    return USBD_FAIL;
 8004996:	2002      	movs	r0, #2
}
 8004998:	4770      	bx	lr

0800499a <USBD_CDC_Setup>:
{
 800499a:	b5f0      	push	{r4, r5, r6, r7, lr}
 800499c:	b083      	sub	sp, #12
 800499e:	4606      	mov	r6, r0
 80049a0:	460c      	mov	r4, r1
  USBD_CDC_HandleTypeDef   *hcdc = (USBD_CDC_HandleTypeDef *) pdev->pClassData;
 80049a2:	f8d0 72b8 	ldr.w	r7, [r0, #696]	; 0x2b8
  uint8_t ifalt = 0U;
 80049a6:	2300      	movs	r3, #0
 80049a8:	f88d 3007 	strb.w	r3, [sp, #7]
  uint16_t status_info = 0U;
 80049ac:	f8ad 3004 	strh.w	r3, [sp, #4]
  switch (req->bmRequest & USB_REQ_TYPE_MASK)
 80049b0:	780b      	ldrb	r3, [r1, #0]
 80049b2:	f013 0560 	ands.w	r5, r3, #96	; 0x60
 80049b6:	d027      	beq.n	8004a08 <USBD_CDC_Setup+0x6e>
 80049b8:	2d20      	cmp	r5, #32
 80049ba:	d153      	bne.n	8004a64 <USBD_CDC_Setup+0xca>
      if (req->wLength)
 80049bc:	88ca      	ldrh	r2, [r1, #6]
 80049be:	b1da      	cbz	r2, 80049f8 <USBD_CDC_Setup+0x5e>
        if (req->bmRequest & 0x80U)
 80049c0:	f013 0f80 	tst.w	r3, #128	; 0x80
 80049c4:	d00c      	beq.n	80049e0 <USBD_CDC_Setup+0x46>
          ((USBD_CDC_ItfTypeDef *)pdev->pUserData)->Control(req->bRequest,
 80049c6:	f8d0 32bc 	ldr.w	r3, [r0, #700]	; 0x2bc
 80049ca:	689b      	ldr	r3, [r3, #8]
 80049cc:	4639      	mov	r1, r7
 80049ce:	7860      	ldrb	r0, [r4, #1]
 80049d0:	4798      	blx	r3
          USBD_CtlSendData(pdev, (uint8_t *)(void *)hcdc->data, req->wLength);
 80049d2:	88e2      	ldrh	r2, [r4, #6]
 80049d4:	4639      	mov	r1, r7
 80049d6:	4630      	mov	r0, r6
 80049d8:	f000 fd5d 	bl	8005496 <USBD_CtlSendData>
  uint8_t ret = USBD_OK;
 80049dc:	2500      	movs	r5, #0
 80049de:	e044      	b.n	8004a6a <USBD_CDC_Setup+0xd0>
          hcdc->CmdOpCode = req->bRequest;
 80049e0:	784b      	ldrb	r3, [r1, #1]
 80049e2:	f887 3200 	strb.w	r3, [r7, #512]	; 0x200
          hcdc->CmdLength = (uint8_t)req->wLength;
 80049e6:	88cb      	ldrh	r3, [r1, #6]
 80049e8:	f887 3201 	strb.w	r3, [r7, #513]	; 0x201
          USBD_CtlPrepareRx(pdev, (uint8_t *)(void *)hcdc->data, req->wLength);
 80049ec:	88ca      	ldrh	r2, [r1, #6]
 80049ee:	4639      	mov	r1, r7
 80049f0:	f000 fd66 	bl	80054c0 <USBD_CtlPrepareRx>
  uint8_t ret = USBD_OK;
 80049f4:	2500      	movs	r5, #0
 80049f6:	e038      	b.n	8004a6a <USBD_CDC_Setup+0xd0>
        ((USBD_CDC_ItfTypeDef *)pdev->pUserData)->Control(req->bRequest,
 80049f8:	f8d0 32bc 	ldr.w	r3, [r0, #700]	; 0x2bc
 80049fc:	689b      	ldr	r3, [r3, #8]
 80049fe:	2200      	movs	r2, #0
 8004a00:	7848      	ldrb	r0, [r1, #1]
 8004a02:	4798      	blx	r3
  uint8_t ret = USBD_OK;
 8004a04:	2500      	movs	r5, #0
 8004a06:	e030      	b.n	8004a6a <USBD_CDC_Setup+0xd0>
      switch (req->bRequest)
 8004a08:	784f      	ldrb	r7, [r1, #1]
 8004a0a:	2f0a      	cmp	r7, #10
 8004a0c:	d014      	beq.n	8004a38 <USBD_CDC_Setup+0x9e>
 8004a0e:	2f0b      	cmp	r7, #11
 8004a10:	d020      	beq.n	8004a54 <USBD_CDC_Setup+0xba>
 8004a12:	b11f      	cbz	r7, 8004a1c <USBD_CDC_Setup+0x82>
          USBD_CtlError(pdev, req);
 8004a14:	f000 fa55 	bl	8004ec2 <USBD_CtlError>
          ret = USBD_FAIL;
 8004a18:	2502      	movs	r5, #2
          break;
 8004a1a:	e026      	b.n	8004a6a <USBD_CDC_Setup+0xd0>
          if (pdev->dev_state == USBD_STATE_CONFIGURED)
 8004a1c:	f890 329c 	ldrb.w	r3, [r0, #668]	; 0x29c
 8004a20:	2b03      	cmp	r3, #3
 8004a22:	d003      	beq.n	8004a2c <USBD_CDC_Setup+0x92>
            USBD_CtlError(pdev, req);
 8004a24:	f000 fa4d 	bl	8004ec2 <USBD_CtlError>
            ret = USBD_FAIL;
 8004a28:	2502      	movs	r5, #2
 8004a2a:	e01e      	b.n	8004a6a <USBD_CDC_Setup+0xd0>
            USBD_CtlSendData(pdev, (uint8_t *)(void *)&status_info, 2U);
 8004a2c:	2202      	movs	r2, #2
 8004a2e:	a901      	add	r1, sp, #4
 8004a30:	f000 fd31 	bl	8005496 <USBD_CtlSendData>
  uint8_t ret = USBD_OK;
 8004a34:	463d      	mov	r5, r7
 8004a36:	e018      	b.n	8004a6a <USBD_CDC_Setup+0xd0>
          if (pdev->dev_state == USBD_STATE_CONFIGURED)
 8004a38:	f890 329c 	ldrb.w	r3, [r0, #668]	; 0x29c
 8004a3c:	2b03      	cmp	r3, #3
 8004a3e:	d003      	beq.n	8004a48 <USBD_CDC_Setup+0xae>
            USBD_CtlError(pdev, req);
 8004a40:	f000 fa3f 	bl	8004ec2 <USBD_CtlError>
            ret = USBD_FAIL;
 8004a44:	2502      	movs	r5, #2
 8004a46:	e010      	b.n	8004a6a <USBD_CDC_Setup+0xd0>
            USBD_CtlSendData(pdev, &ifalt, 1U);
 8004a48:	2201      	movs	r2, #1
 8004a4a:	f10d 0107 	add.w	r1, sp, #7
 8004a4e:	f000 fd22 	bl	8005496 <USBD_CtlSendData>
 8004a52:	e00a      	b.n	8004a6a <USBD_CDC_Setup+0xd0>
          if (pdev->dev_state != USBD_STATE_CONFIGURED)
 8004a54:	f890 329c 	ldrb.w	r3, [r0, #668]	; 0x29c
 8004a58:	2b03      	cmp	r3, #3
 8004a5a:	d006      	beq.n	8004a6a <USBD_CDC_Setup+0xd0>
            USBD_CtlError(pdev, req);
 8004a5c:	f000 fa31 	bl	8004ec2 <USBD_CtlError>
            ret = USBD_FAIL;
 8004a60:	2502      	movs	r5, #2
 8004a62:	e002      	b.n	8004a6a <USBD_CDC_Setup+0xd0>
      USBD_CtlError(pdev, req);
 8004a64:	f000 fa2d 	bl	8004ec2 <USBD_CtlError>
      ret = USBD_FAIL;
 8004a68:	2502      	movs	r5, #2
}
 8004a6a:	4628      	mov	r0, r5
 8004a6c:	b003      	add	sp, #12
 8004a6e:	bdf0      	pop	{r4, r5, r6, r7, pc}

08004a70 <USBD_CDC_DeInit>:
{
 8004a70:	b538      	push	{r3, r4, r5, lr}
 8004a72:	4604      	mov	r4, r0
  USBD_LL_CloseEP(pdev, CDC_IN_EP);
 8004a74:	2181      	movs	r1, #129	; 0x81
 8004a76:	f000 ffa2 	bl	80059be <USBD_LL_CloseEP>
  pdev->ep_in[CDC_IN_EP & 0xFU].is_used = 0U;
 8004a7a:	2500      	movs	r5, #0
 8004a7c:	62e5      	str	r5, [r4, #44]	; 0x2c
  USBD_LL_CloseEP(pdev, CDC_OUT_EP);
 8004a7e:	2101      	movs	r1, #1
 8004a80:	4620      	mov	r0, r4
 8004a82:	f000 ff9c 	bl	80059be <USBD_LL_CloseEP>
  pdev->ep_out[CDC_OUT_EP & 0xFU].is_used = 0U;
 8004a86:	f8c4 516c 	str.w	r5, [r4, #364]	; 0x16c
  USBD_LL_CloseEP(pdev, CDC_CMD_EP);
 8004a8a:	2182      	movs	r1, #130	; 0x82
 8004a8c:	4620      	mov	r0, r4
 8004a8e:	f000 ff96 	bl	80059be <USBD_LL_CloseEP>
  pdev->ep_in[CDC_CMD_EP & 0xFU].is_used = 0U;
 8004a92:	6425      	str	r5, [r4, #64]	; 0x40
  if (pdev->pClassData != NULL)
 8004a94:	f8d4 32b8 	ldr.w	r3, [r4, #696]	; 0x2b8
 8004a98:	b14b      	cbz	r3, 8004aae <USBD_CDC_DeInit+0x3e>
    ((USBD_CDC_ItfTypeDef *)pdev->pUserData)->DeInit();
 8004a9a:	f8d4 32bc 	ldr.w	r3, [r4, #700]	; 0x2bc
 8004a9e:	685b      	ldr	r3, [r3, #4]
 8004aa0:	4798      	blx	r3
    USBD_free(pdev->pClassData);
 8004aa2:	f8d4 02b8 	ldr.w	r0, [r4, #696]	; 0x2b8
 8004aa6:	f000 ffdb 	bl	8005a60 <USBD_static_free>
    pdev->pClassData = NULL;
 8004aaa:	f8c4 52b8 	str.w	r5, [r4, #696]	; 0x2b8
}
 8004aae:	2000      	movs	r0, #0
 8004ab0:	bd38      	pop	{r3, r4, r5, pc}

08004ab2 <USBD_CDC_Init>:
{
 8004ab2:	b570      	push	{r4, r5, r6, lr}
 8004ab4:	4604      	mov	r4, r0
  if (pdev->dev_speed == USBD_SPEED_HIGH)
 8004ab6:	7c03      	ldrb	r3, [r0, #16]
 8004ab8:	bba3      	cbnz	r3, 8004b24 <USBD_CDC_Init+0x72>
    USBD_LL_OpenEP(pdev, CDC_IN_EP, USBD_EP_TYPE_BULK,
 8004aba:	f44f 7300 	mov.w	r3, #512	; 0x200
 8004abe:	2202      	movs	r2, #2
 8004ac0:	2181      	movs	r1, #129	; 0x81
 8004ac2:	f000 ff71 	bl	80059a8 <USBD_LL_OpenEP>
    pdev->ep_in[CDC_IN_EP & 0xFU].is_used = 1U;
 8004ac6:	2101      	movs	r1, #1
 8004ac8:	62e1      	str	r1, [r4, #44]	; 0x2c
    USBD_LL_OpenEP(pdev, CDC_OUT_EP, USBD_EP_TYPE_BULK,
 8004aca:	f44f 7300 	mov.w	r3, #512	; 0x200
 8004ace:	2202      	movs	r2, #2
 8004ad0:	4620      	mov	r0, r4
 8004ad2:	f000 ff69 	bl	80059a8 <USBD_LL_OpenEP>
    pdev->ep_out[CDC_OUT_EP & 0xFU].is_used = 1U;
 8004ad6:	2501      	movs	r5, #1
 8004ad8:	f8c4 516c 	str.w	r5, [r4, #364]	; 0x16c
  USBD_LL_OpenEP(pdev, CDC_CMD_EP, USBD_EP_TYPE_INTR, CDC_CMD_PACKET_SIZE);
 8004adc:	2308      	movs	r3, #8
 8004ade:	2203      	movs	r2, #3
 8004ae0:	2182      	movs	r1, #130	; 0x82
 8004ae2:	4620      	mov	r0, r4
 8004ae4:	f000 ff60 	bl	80059a8 <USBD_LL_OpenEP>
  pdev->ep_in[CDC_CMD_EP & 0xFU].is_used = 1U;
 8004ae8:	6425      	str	r5, [r4, #64]	; 0x40
  pdev->pClassData = USBD_malloc(sizeof(USBD_CDC_HandleTypeDef));
 8004aea:	f44f 7007 	mov.w	r0, #540	; 0x21c
 8004aee:	f000 ffb3 	bl	8005a58 <USBD_static_malloc>
 8004af2:	4605      	mov	r5, r0
 8004af4:	f8c4 02b8 	str.w	r0, [r4, #696]	; 0x2b8
  if (pdev->pClassData == NULL)
 8004af8:	b350      	cbz	r0, 8004b50 <USBD_CDC_Init+0x9e>
    ((USBD_CDC_ItfTypeDef *)pdev->pUserData)->Init();
 8004afa:	f8d4 32bc 	ldr.w	r3, [r4, #700]	; 0x2bc
 8004afe:	681b      	ldr	r3, [r3, #0]
 8004b00:	4798      	blx	r3
    hcdc->TxState = 0U;
 8004b02:	2300      	movs	r3, #0
 8004b04:	f8c5 3214 	str.w	r3, [r5, #532]	; 0x214
    hcdc->RxState = 0U;
 8004b08:	f8c5 3218 	str.w	r3, [r5, #536]	; 0x218
    if (pdev->dev_speed == USBD_SPEED_HIGH)
 8004b0c:	7c26      	ldrb	r6, [r4, #16]
 8004b0e:	b9b6      	cbnz	r6, 8004b3e <USBD_CDC_Init+0x8c>
      USBD_LL_PrepareReceive(pdev, CDC_OUT_EP, hcdc->RxBuffer,
 8004b10:	f44f 7300 	mov.w	r3, #512	; 0x200
 8004b14:	f8d5 2204 	ldr.w	r2, [r5, #516]	; 0x204
 8004b18:	2101      	movs	r1, #1
 8004b1a:	4620      	mov	r0, r4
 8004b1c:	f000 ff8e 	bl	8005a3c <USBD_LL_PrepareReceive>
}
 8004b20:	4630      	mov	r0, r6
 8004b22:	bd70      	pop	{r4, r5, r6, pc}
    USBD_LL_OpenEP(pdev, CDC_IN_EP, USBD_EP_TYPE_BULK,
 8004b24:	2340      	movs	r3, #64	; 0x40
 8004b26:	2202      	movs	r2, #2
 8004b28:	2181      	movs	r1, #129	; 0x81
 8004b2a:	f000 ff3d 	bl	80059a8 <USBD_LL_OpenEP>
    pdev->ep_in[CDC_IN_EP & 0xFU].is_used = 1U;
 8004b2e:	2101      	movs	r1, #1
 8004b30:	62e1      	str	r1, [r4, #44]	; 0x2c
    USBD_LL_OpenEP(pdev, CDC_OUT_EP, USBD_EP_TYPE_BULK,
 8004b32:	2340      	movs	r3, #64	; 0x40
 8004b34:	2202      	movs	r2, #2
 8004b36:	4620      	mov	r0, r4
 8004b38:	f000 ff36 	bl	80059a8 <USBD_LL_OpenEP>
    pdev->ep_out[CDC_OUT_EP & 0xFU].is_used = 1U;
 8004b3c:	e7cb      	b.n	8004ad6 <USBD_CDC_Init+0x24>
      USBD_LL_PrepareReceive(pdev, CDC_OUT_EP, hcdc->RxBuffer,
 8004b3e:	2340      	movs	r3, #64	; 0x40
 8004b40:	f8d5 2204 	ldr.w	r2, [r5, #516]	; 0x204
 8004b44:	2101      	movs	r1, #1
 8004b46:	4620      	mov	r0, r4
 8004b48:	f000 ff78 	bl	8005a3c <USBD_LL_PrepareReceive>
  uint8_t ret = 0U;
 8004b4c:	2600      	movs	r6, #0
 8004b4e:	e7e7      	b.n	8004b20 <USBD_CDC_Init+0x6e>
    ret = 1U;
 8004b50:	2601      	movs	r6, #1
 8004b52:	e7e5      	b.n	8004b20 <USBD_CDC_Init+0x6e>

08004b54 <USBD_CDC_RegisterInterface>:
uint8_t  USBD_CDC_RegisterInterface(USBD_HandleTypeDef   *pdev,
                                    USBD_CDC_ItfTypeDef *fops)
{
  uint8_t  ret = USBD_FAIL;

  if (fops != NULL)
 8004b54:	b119      	cbz	r1, 8004b5e <USBD_CDC_RegisterInterface+0xa>
  {
    pdev->pUserData = fops;
 8004b56:	f8c0 12bc 	str.w	r1, [r0, #700]	; 0x2bc
    ret = USBD_OK;
 8004b5a:	2000      	movs	r0, #0
 8004b5c:	4770      	bx	lr
  uint8_t  ret = USBD_FAIL;
 8004b5e:	2002      	movs	r0, #2
  }

  return ret;
}
 8004b60:	4770      	bx	lr

08004b62 <USBD_CDC_SetTxBuffer>:
  */
uint8_t  USBD_CDC_SetTxBuffer(USBD_HandleTypeDef   *pdev,
                              uint8_t  *pbuff,
                              uint16_t length)
{
  USBD_CDC_HandleTypeDef   *hcdc = (USBD_CDC_HandleTypeDef *) pdev->pClassData;
 8004b62:	f8d0 32b8 	ldr.w	r3, [r0, #696]	; 0x2b8

  hcdc->TxBuffer = pbuff;
 8004b66:	f8c3 1208 	str.w	r1, [r3, #520]	; 0x208
  hcdc->TxLength = length;
 8004b6a:	f8c3 2210 	str.w	r2, [r3, #528]	; 0x210

  return USBD_OK;
}
 8004b6e:	2000      	movs	r0, #0
 8004b70:	4770      	bx	lr

08004b72 <USBD_CDC_SetRxBuffer>:
  * @retval status
  */
uint8_t  USBD_CDC_SetRxBuffer(USBD_HandleTypeDef   *pdev,
                              uint8_t  *pbuff)
{
  USBD_CDC_HandleTypeDef   *hcdc = (USBD_CDC_HandleTypeDef *) pdev->pClassData;
 8004b72:	f8d0 32b8 	ldr.w	r3, [r0, #696]	; 0x2b8

  hcdc->RxBuffer = pbuff;
 8004b76:	f8c3 1204 	str.w	r1, [r3, #516]	; 0x204

  return USBD_OK;
}
 8004b7a:	2000      	movs	r0, #0
 8004b7c:	4770      	bx	lr

08004b7e <USBD_CDC_TransmitPacket>:
  * @param  pdev: device instance
  * @retval status
  */
uint8_t  USBD_CDC_TransmitPacket(USBD_HandleTypeDef *pdev)
{
  USBD_CDC_HandleTypeDef   *hcdc = (USBD_CDC_HandleTypeDef *) pdev->pClassData;
 8004b7e:	f8d0 22b8 	ldr.w	r2, [r0, #696]	; 0x2b8

  if (pdev->pClassData != NULL)
 8004b82:	b1a2      	cbz	r2, 8004bae <USBD_CDC_TransmitPacket+0x30>
{
 8004b84:	b508      	push	{r3, lr}
  {
    if (hcdc->TxState == 0U)
 8004b86:	f8d2 3214 	ldr.w	r3, [r2, #532]	; 0x214
 8004b8a:	b10b      	cbz	r3, 8004b90 <USBD_CDC_TransmitPacket+0x12>

      return USBD_OK;
    }
    else
    {
      return USBD_BUSY;
 8004b8c:	2001      	movs	r0, #1
  }
  else
  {
    return USBD_FAIL;
  }
}
 8004b8e:	bd08      	pop	{r3, pc}
      hcdc->TxState = 1U;
 8004b90:	2301      	movs	r3, #1
 8004b92:	f8c2 3214 	str.w	r3, [r2, #532]	; 0x214
      pdev->ep_in[CDC_IN_EP & 0xFU].total_length = hcdc->TxLength;
 8004b96:	f8d2 3210 	ldr.w	r3, [r2, #528]	; 0x210
 8004b9a:	6303      	str	r3, [r0, #48]	; 0x30
      USBD_LL_Transmit(pdev, CDC_IN_EP, hcdc->TxBuffer,
 8004b9c:	f8b2 3210 	ldrh.w	r3, [r2, #528]	; 0x210
 8004ba0:	f8d2 2208 	ldr.w	r2, [r2, #520]	; 0x208
 8004ba4:	2181      	movs	r1, #129	; 0x81
 8004ba6:	f000 ff41 	bl	8005a2c <USBD_LL_Transmit>
      return USBD_OK;
 8004baa:	2000      	movs	r0, #0
 8004bac:	e7ef      	b.n	8004b8e <USBD_CDC_TransmitPacket+0x10>
    return USBD_FAIL;
 8004bae:	2002      	movs	r0, #2
}
 8004bb0:	4770      	bx	lr

08004bb2 <USBD_CDC_ReceivePacket>:
  *         prepare OUT Endpoint for reception
  * @param  pdev: device instance
  * @retval status
  */
uint8_t  USBD_CDC_ReceivePacket(USBD_HandleTypeDef *pdev)
{
 8004bb2:	b510      	push	{r4, lr}
  USBD_CDC_HandleTypeDef   *hcdc = (USBD_CDC_HandleTypeDef *) pdev->pClassData;
 8004bb4:	f8d0 22b8 	ldr.w	r2, [r0, #696]	; 0x2b8

  /* Suspend or Resume USB Out process */
  if (pdev->pClassData != NULL)
 8004bb8:	b192      	cbz	r2, 8004be0 <USBD_CDC_ReceivePacket+0x2e>
  {
    if (pdev->dev_speed == USBD_SPEED_HIGH)
 8004bba:	7c04      	ldrb	r4, [r0, #16]
 8004bbc:	b944      	cbnz	r4, 8004bd0 <USBD_CDC_ReceivePacket+0x1e>
    {
      /* Prepare Out endpoint to receive next packet */
      USBD_LL_PrepareReceive(pdev,
 8004bbe:	f44f 7300 	mov.w	r3, #512	; 0x200
 8004bc2:	f8d2 2204 	ldr.w	r2, [r2, #516]	; 0x204
 8004bc6:	2101      	movs	r1, #1
 8004bc8:	f000 ff38 	bl	8005a3c <USBD_LL_PrepareReceive>
  }
  else
  {
    return USBD_FAIL;
  }
}
 8004bcc:	4620      	mov	r0, r4
 8004bce:	bd10      	pop	{r4, pc}
      USBD_LL_PrepareReceive(pdev,
 8004bd0:	2340      	movs	r3, #64	; 0x40
 8004bd2:	f8d2 2204 	ldr.w	r2, [r2, #516]	; 0x204
 8004bd6:	2101      	movs	r1, #1
 8004bd8:	f000 ff30 	bl	8005a3c <USBD_LL_PrepareReceive>
    return USBD_OK;
 8004bdc:	2400      	movs	r4, #0
 8004bde:	e7f5      	b.n	8004bcc <USBD_CDC_ReceivePacket+0x1a>
    return USBD_FAIL;
 8004be0:	2402      	movs	r4, #2
 8004be2:	e7f3      	b.n	8004bcc <USBD_CDC_ReceivePacket+0x1a>

08004be4 <USBD_Init>:
*/
USBD_StatusTypeDef USBD_Init(USBD_HandleTypeDef *pdev,
                             USBD_DescriptorsTypeDef *pdesc, uint8_t id)
{
  /* Check whether the USB Host handle is valid */
  if (pdev == NULL)
 8004be4:	b198      	cbz	r0, 8004c0e <USBD_Init+0x2a>
{
 8004be6:	b508      	push	{r3, lr}
 8004be8:	4603      	mov	r3, r0
#endif
    return USBD_FAIL;
  }

  /* Unlink previous class*/
  if (pdev->pClass != NULL)
 8004bea:	f8d0 02b4 	ldr.w	r0, [r0, #692]	; 0x2b4
 8004bee:	b110      	cbz	r0, 8004bf6 <USBD_Init+0x12>
  {
    pdev->pClass = NULL;
 8004bf0:	2000      	movs	r0, #0
 8004bf2:	f8c3 02b4 	str.w	r0, [r3, #692]	; 0x2b4
  }

  /* Assign USBD Descriptors */
  if (pdesc != NULL)
 8004bf6:	b109      	cbz	r1, 8004bfc <USBD_Init+0x18>
  {
    pdev->pDesc = pdesc;
 8004bf8:	f8c3 12b0 	str.w	r1, [r3, #688]	; 0x2b0
  }

  /* Set Device initial State */
  pdev->dev_state = USBD_STATE_DEFAULT;
 8004bfc:	2101      	movs	r1, #1
 8004bfe:	f883 129c 	strb.w	r1, [r3, #668]	; 0x29c
  pdev->id = id;
 8004c02:	701a      	strb	r2, [r3, #0]
  /* Initialize low level driver */
  USBD_LL_Init(pdev);
 8004c04:	4618      	mov	r0, r3
 8004c06:	f000 fe85 	bl	8005914 <USBD_LL_Init>

  return USBD_OK;
 8004c0a:	2000      	movs	r0, #0
}
 8004c0c:	bd08      	pop	{r3, pc}
    return USBD_FAIL;
 8004c0e:	2002      	movs	r0, #2
}
 8004c10:	4770      	bx	lr

08004c12 <USBD_RegisterClass>:
  * @retval USBD Status
  */
USBD_StatusTypeDef  USBD_RegisterClass(USBD_HandleTypeDef *pdev, USBD_ClassTypeDef *pclass)
{
  USBD_StatusTypeDef status = USBD_OK;
  if (pclass != NULL)
 8004c12:	b119      	cbz	r1, 8004c1c <USBD_RegisterClass+0xa>
  {
    /* link the class to the USB Device handle */
    pdev->pClass = pclass;
 8004c14:	f8c0 12b4 	str.w	r1, [r0, #692]	; 0x2b4
    status = USBD_OK;
 8004c18:	2000      	movs	r0, #0
 8004c1a:	4770      	bx	lr
  else
  {
#if (USBD_DEBUG_LEVEL > 1U)
    USBD_ErrLog("Invalid Class handle");
#endif
    status = USBD_FAIL;
 8004c1c:	2002      	movs	r0, #2
  }

  return status;
}
 8004c1e:	4770      	bx	lr

08004c20 <USBD_Start>:
  *         Start the USB Device Core.
  * @param  pdev: Device Handle
  * @retval USBD Status
  */
USBD_StatusTypeDef  USBD_Start(USBD_HandleTypeDef *pdev)
{
 8004c20:	b508      	push	{r3, lr}
  /* Start the low level driver  */
  USBD_LL_Start(pdev);
 8004c22:	f000 feb9 	bl	8005998 <USBD_LL_Start>

  return USBD_OK;
}
 8004c26:	2000      	movs	r0, #0
 8004c28:	bd08      	pop	{r3, pc}

08004c2a <USBD_SetClassConfig>:
* @param  cfgidx: configuration index
* @retval status
*/

USBD_StatusTypeDef USBD_SetClassConfig(USBD_HandleTypeDef  *pdev, uint8_t cfgidx)
{
 8004c2a:	b508      	push	{r3, lr}
  USBD_StatusTypeDef ret = USBD_FAIL;

  if (pdev->pClass != NULL)
 8004c2c:	f8d0 32b4 	ldr.w	r3, [r0, #692]	; 0x2b4
 8004c30:	b133      	cbz	r3, 8004c40 <USBD_SetClassConfig+0x16>
  {
    /* Set configuration  and Start the Class*/
    if (pdev->pClass->Init(pdev, cfgidx) == 0U)
 8004c32:	681b      	ldr	r3, [r3, #0]
 8004c34:	4798      	blx	r3
 8004c36:	3800      	subs	r0, #0
 8004c38:	bf18      	it	ne
 8004c3a:	2001      	movne	r0, #1
 8004c3c:	0040      	lsls	r0, r0, #1
      ret = USBD_OK;
    }
  }

  return ret;
}
 8004c3e:	bd08      	pop	{r3, pc}
  USBD_StatusTypeDef ret = USBD_FAIL;
 8004c40:	2002      	movs	r0, #2
 8004c42:	e7fc      	b.n	8004c3e <USBD_SetClassConfig+0x14>

08004c44 <USBD_ClrClassConfig>:
* @param  pdev: device instance
* @param  cfgidx: configuration index
* @retval status: USBD_StatusTypeDef
*/
USBD_StatusTypeDef USBD_ClrClassConfig(USBD_HandleTypeDef  *pdev, uint8_t cfgidx)
{
 8004c44:	b508      	push	{r3, lr}
  /* Clear configuration  and De-initialize the Class process*/
  pdev->pClass->DeInit(pdev, cfgidx);
 8004c46:	f8d0 32b4 	ldr.w	r3, [r0, #692]	; 0x2b4
 8004c4a:	685b      	ldr	r3, [r3, #4]
 8004c4c:	4798      	blx	r3

  return USBD_OK;
}
 8004c4e:	2000      	movs	r0, #0
 8004c50:	bd08      	pop	{r3, pc}

08004c52 <USBD_LL_SetupStage>:
*         Handle the setup stage
* @param  pdev: device instance
* @retval status
*/
USBD_StatusTypeDef USBD_LL_SetupStage(USBD_HandleTypeDef *pdev, uint8_t *psetup)
{
 8004c52:	b538      	push	{r3, r4, r5, lr}
 8004c54:	4604      	mov	r4, r0
  USBD_ParseSetupRequest(&pdev->request, psetup);
 8004c56:	f500 752a 	add.w	r5, r0, #680	; 0x2a8
 8004c5a:	4628      	mov	r0, r5
 8004c5c:	f000 f91d 	bl	8004e9a <USBD_ParseSetupRequest>

  pdev->ep0_state = USBD_EP0_SETUP;
 8004c60:	2301      	movs	r3, #1
 8004c62:	f8c4 3294 	str.w	r3, [r4, #660]	; 0x294

  pdev->ep0_data_len = pdev->request.wLength;
 8004c66:	f8b4 32ae 	ldrh.w	r3, [r4, #686]	; 0x2ae
 8004c6a:	f8c4 3298 	str.w	r3, [r4, #664]	; 0x298

  switch (pdev->request.bmRequest & 0x1FU)
 8004c6e:	f894 12a8 	ldrb.w	r1, [r4, #680]	; 0x2a8
 8004c72:	f001 031f 	and.w	r3, r1, #31
 8004c76:	2b01      	cmp	r3, #1
 8004c78:	d00e      	beq.n	8004c98 <USBD_LL_SetupStage+0x46>
 8004c7a:	2b02      	cmp	r3, #2
 8004c7c:	d011      	beq.n	8004ca2 <USBD_LL_SetupStage+0x50>
 8004c7e:	b12b      	cbz	r3, 8004c8c <USBD_LL_SetupStage+0x3a>
    case USB_REQ_RECIPIENT_ENDPOINT:
      USBD_StdEPReq(pdev, &pdev->request);
      break;

    default:
      USBD_LL_StallEP(pdev, (pdev->request.bmRequest & 0x80U));
 8004c80:	f001 0180 	and.w	r1, r1, #128	; 0x80
 8004c84:	4620      	mov	r0, r4
 8004c86:	f000 fea2 	bl	80059ce <USBD_LL_StallEP>
      break;
 8004c8a:	e003      	b.n	8004c94 <USBD_LL_SetupStage+0x42>
      USBD_StdDevReq(pdev, &pdev->request);
 8004c8c:	4629      	mov	r1, r5
 8004c8e:	4620      	mov	r0, r4
 8004c90:	f000 f922 	bl	8004ed8 <USBD_StdDevReq>
  }

  return USBD_OK;
}
 8004c94:	2000      	movs	r0, #0
 8004c96:	bd38      	pop	{r3, r4, r5, pc}
      USBD_StdItfReq(pdev, &pdev->request);
 8004c98:	4629      	mov	r1, r5
 8004c9a:	4620      	mov	r0, r4
 8004c9c:	f000 fad4 	bl	8005248 <USBD_StdItfReq>
      break;
 8004ca0:	e7f8      	b.n	8004c94 <USBD_LL_SetupStage+0x42>
      USBD_StdEPReq(pdev, &pdev->request);
 8004ca2:	4629      	mov	r1, r5
 8004ca4:	4620      	mov	r0, r4
 8004ca6:	f000 faff 	bl	80052a8 <USBD_StdEPReq>
      break;
 8004caa:	e7f3      	b.n	8004c94 <USBD_LL_SetupStage+0x42>

08004cac <USBD_LL_DataOutStage>:
* @param  epnum: endpoint index
* @retval status
*/
USBD_StatusTypeDef USBD_LL_DataOutStage(USBD_HandleTypeDef *pdev,
                                        uint8_t epnum, uint8_t *pdata)
{
 8004cac:	b538      	push	{r3, r4, r5, lr}
 8004cae:	4604      	mov	r4, r0
  USBD_EndpointTypeDef *pep;

  if (epnum == 0U)
 8004cb0:	460d      	mov	r5, r1
 8004cb2:	bb81      	cbnz	r1, 8004d16 <USBD_LL_DataOutStage+0x6a>
 8004cb4:	4613      	mov	r3, r2
  {
    pep = &pdev->ep_out[0];

    if (pdev->ep0_state == USBD_EP0_DATA_OUT)
 8004cb6:	f8d0 2294 	ldr.w	r2, [r0, #660]	; 0x294
 8004cba:	2a03      	cmp	r2, #3
 8004cbc:	d003      	beq.n	8004cc6 <USBD_LL_DataOutStage+0x1a>
        USBD_CtlSendStatus(pdev);
      }
    }
    else
    {
      if (pdev->ep0_state == USBD_EP0_STATUS_OUT)
 8004cbe:	2a05      	cmp	r2, #5
 8004cc0:	d022      	beq.n	8004d08 <USBD_LL_DataOutStage+0x5c>
  {
    /* should never be in this condition */
    return USBD_FAIL;
  }

  return USBD_OK;
 8004cc2:	4608      	mov	r0, r1
 8004cc4:	e031      	b.n	8004d2a <USBD_LL_DataOutStage+0x7e>
      if (pep->rem_length > pep->maxpacket)
 8004cc6:	f8d0 1160 	ldr.w	r1, [r0, #352]	; 0x160
 8004cca:	f8d0 2164 	ldr.w	r2, [r0, #356]	; 0x164
 8004cce:	4291      	cmp	r1, r2
 8004cd0:	d90b      	bls.n	8004cea <USBD_LL_DataOutStage+0x3e>
        pep->rem_length -= pep->maxpacket;
 8004cd2:	1a89      	subs	r1, r1, r2
 8004cd4:	f8c0 1160 	str.w	r1, [r0, #352]	; 0x160
        USBD_CtlContinueRx(pdev, pdata,
 8004cd8:	428a      	cmp	r2, r1
 8004cda:	bf8c      	ite	hi
 8004cdc:	b28a      	uxthhi	r2, r1
 8004cde:	b292      	uxthls	r2, r2
 8004ce0:	4619      	mov	r1, r3
 8004ce2:	f000 fbfc 	bl	80054de <USBD_CtlContinueRx>
  return USBD_OK;
 8004ce6:	4628      	mov	r0, r5
 8004ce8:	e01f      	b.n	8004d2a <USBD_LL_DataOutStage+0x7e>
        if ((pdev->pClass->EP0_RxReady != NULL) &&
 8004cea:	f8d0 32b4 	ldr.w	r3, [r0, #692]	; 0x2b4
 8004cee:	691b      	ldr	r3, [r3, #16]
 8004cf0:	b11b      	cbz	r3, 8004cfa <USBD_LL_DataOutStage+0x4e>
 8004cf2:	f890 229c 	ldrb.w	r2, [r0, #668]	; 0x29c
 8004cf6:	2a03      	cmp	r2, #3
 8004cf8:	d004      	beq.n	8004d04 <USBD_LL_DataOutStage+0x58>
        USBD_CtlSendStatus(pdev);
 8004cfa:	4620      	mov	r0, r4
 8004cfc:	f000 fbf7 	bl	80054ee <USBD_CtlSendStatus>
  return USBD_OK;
 8004d00:	4628      	mov	r0, r5
 8004d02:	e012      	b.n	8004d2a <USBD_LL_DataOutStage+0x7e>
          pdev->pClass->EP0_RxReady(pdev);
 8004d04:	4798      	blx	r3
 8004d06:	e7f8      	b.n	8004cfa <USBD_LL_DataOutStage+0x4e>
        pdev->ep0_state = USBD_EP0_IDLE;
 8004d08:	2100      	movs	r1, #0
 8004d0a:	f8c0 1294 	str.w	r1, [r0, #660]	; 0x294
        USBD_LL_StallEP(pdev, 0U);
 8004d0e:	f000 fe5e 	bl	80059ce <USBD_LL_StallEP>
  return USBD_OK;
 8004d12:	4628      	mov	r0, r5
 8004d14:	e009      	b.n	8004d2a <USBD_LL_DataOutStage+0x7e>
  else if ((pdev->pClass->DataOut != NULL) &&
 8004d16:	f8d0 32b4 	ldr.w	r3, [r0, #692]	; 0x2b4
 8004d1a:	699b      	ldr	r3, [r3, #24]
 8004d1c:	b133      	cbz	r3, 8004d2c <USBD_LL_DataOutStage+0x80>
 8004d1e:	f890 229c 	ldrb.w	r2, [r0, #668]	; 0x29c
 8004d22:	2a03      	cmp	r2, #3
 8004d24:	d104      	bne.n	8004d30 <USBD_LL_DataOutStage+0x84>
    pdev->pClass->DataOut(pdev, epnum);
 8004d26:	4798      	blx	r3
  return USBD_OK;
 8004d28:	2000      	movs	r0, #0
}
 8004d2a:	bd38      	pop	{r3, r4, r5, pc}
    return USBD_FAIL;
 8004d2c:	2002      	movs	r0, #2
 8004d2e:	e7fc      	b.n	8004d2a <USBD_LL_DataOutStage+0x7e>
 8004d30:	2002      	movs	r0, #2
 8004d32:	e7fa      	b.n	8004d2a <USBD_LL_DataOutStage+0x7e>

08004d34 <USBD_LL_DataInStage>:
* @param  epnum: endpoint index
* @retval status
*/
USBD_StatusTypeDef USBD_LL_DataInStage(USBD_HandleTypeDef *pdev,
                                       uint8_t epnum, uint8_t *pdata)
{
 8004d34:	b538      	push	{r3, r4, r5, lr}
 8004d36:	4604      	mov	r4, r0
  USBD_EndpointTypeDef *pep;

  if (epnum == 0U)
 8004d38:	460d      	mov	r5, r1
 8004d3a:	2900      	cmp	r1, #0
 8004d3c:	d152      	bne.n	8004de4 <USBD_LL_DataInStage+0xb0>
 8004d3e:	4613      	mov	r3, r2
  {
    pep = &pdev->ep_in[0];

    if (pdev->ep0_state == USBD_EP0_DATA_IN)
 8004d40:	f8d0 2294 	ldr.w	r2, [r0, #660]	; 0x294
 8004d44:	2a02      	cmp	r2, #2
 8004d46:	d00b      	beq.n	8004d60 <USBD_LL_DataInStage+0x2c>
        }
      }
    }
    else
    {
      if ((pdev->ep0_state == USBD_EP0_STATUS_IN) ||
 8004d48:	f032 0304 	bics.w	r3, r2, #4
 8004d4c:	d102      	bne.n	8004d54 <USBD_LL_DataInStage+0x20>
          (pdev->ep0_state == USBD_EP0_IDLE))
      {
        USBD_LL_StallEP(pdev, 0x80U);
 8004d4e:	2180      	movs	r1, #128	; 0x80
 8004d50:	f000 fe3d 	bl	80059ce <USBD_LL_StallEP>
      }
    }

    if (pdev->dev_test_mode == 1U)
 8004d54:	f894 32a0 	ldrb.w	r3, [r4, #672]	; 0x2a0
 8004d58:	2b01      	cmp	r3, #1
 8004d5a:	d03e      	beq.n	8004dda <USBD_LL_DataInStage+0xa6>
  {
    /* should never be in this condition */
    return USBD_FAIL;
  }

  return USBD_OK;
 8004d5c:	4628      	mov	r0, r5
}
 8004d5e:	bd38      	pop	{r3, r4, r5, pc}
      if (pep->rem_length > pep->maxpacket)
 8004d60:	6a02      	ldr	r2, [r0, #32]
 8004d62:	6a41      	ldr	r1, [r0, #36]	; 0x24
 8004d64:	428a      	cmp	r2, r1
 8004d66:	d81b      	bhi.n	8004da0 <USBD_LL_DataInStage+0x6c>
        if ((pep->total_length % pep->maxpacket == 0U) &&
 8004d68:	69c2      	ldr	r2, [r0, #28]
 8004d6a:	fbb2 f3f1 	udiv	r3, r2, r1
 8004d6e:	fb01 2313 	mls	r3, r1, r3, r2
 8004d72:	b92b      	cbnz	r3, 8004d80 <USBD_LL_DataInStage+0x4c>
 8004d74:	4291      	cmp	r1, r2
 8004d76:	d803      	bhi.n	8004d80 <USBD_LL_DataInStage+0x4c>
            (pep->total_length >= pep->maxpacket) &&
 8004d78:	f8d0 3298 	ldr.w	r3, [r0, #664]	; 0x298
 8004d7c:	429a      	cmp	r2, r3
 8004d7e:	d31c      	bcc.n	8004dba <USBD_LL_DataInStage+0x86>
          if ((pdev->pClass->EP0_TxSent != NULL) &&
 8004d80:	f8d4 32b4 	ldr.w	r3, [r4, #692]	; 0x2b4
 8004d84:	68db      	ldr	r3, [r3, #12]
 8004d86:	b11b      	cbz	r3, 8004d90 <USBD_LL_DataInStage+0x5c>
 8004d88:	f894 229c 	ldrb.w	r2, [r4, #668]	; 0x29c
 8004d8c:	2a03      	cmp	r2, #3
 8004d8e:	d021      	beq.n	8004dd4 <USBD_LL_DataInStage+0xa0>
          USBD_LL_StallEP(pdev, 0x80U);
 8004d90:	2180      	movs	r1, #128	; 0x80
 8004d92:	4620      	mov	r0, r4
 8004d94:	f000 fe1b 	bl	80059ce <USBD_LL_StallEP>
          USBD_CtlReceiveStatus(pdev);
 8004d98:	4620      	mov	r0, r4
 8004d9a:	f000 fbb3 	bl	8005504 <USBD_CtlReceiveStatus>
 8004d9e:	e7d9      	b.n	8004d54 <USBD_LL_DataInStage+0x20>
        pep->rem_length -= pep->maxpacket;
 8004da0:	1a52      	subs	r2, r2, r1
 8004da2:	6202      	str	r2, [r0, #32]
        USBD_CtlContinueSendData(pdev, pdata, (uint16_t)pep->rem_length);
 8004da4:	b292      	uxth	r2, r2
 8004da6:	4619      	mov	r1, r3
 8004da8:	f000 fb82 	bl	80054b0 <USBD_CtlContinueSendData>
        USBD_LL_PrepareReceive(pdev, 0U, NULL, 0U);
 8004dac:	2300      	movs	r3, #0
 8004dae:	461a      	mov	r2, r3
 8004db0:	4619      	mov	r1, r3
 8004db2:	4620      	mov	r0, r4
 8004db4:	f000 fe42 	bl	8005a3c <USBD_LL_PrepareReceive>
 8004db8:	e7cc      	b.n	8004d54 <USBD_LL_DataInStage+0x20>
          USBD_CtlContinueSendData(pdev, NULL, 0U);
 8004dba:	2200      	movs	r2, #0
 8004dbc:	4611      	mov	r1, r2
 8004dbe:	f000 fb77 	bl	80054b0 <USBD_CtlContinueSendData>
          pdev->ep0_data_len = 0U;
 8004dc2:	2100      	movs	r1, #0
 8004dc4:	f8c4 1298 	str.w	r1, [r4, #664]	; 0x298
          USBD_LL_PrepareReceive(pdev, 0U, NULL, 0U);
 8004dc8:	460b      	mov	r3, r1
 8004dca:	460a      	mov	r2, r1
 8004dcc:	4620      	mov	r0, r4
 8004dce:	f000 fe35 	bl	8005a3c <USBD_LL_PrepareReceive>
 8004dd2:	e7bf      	b.n	8004d54 <USBD_LL_DataInStage+0x20>
            pdev->pClass->EP0_TxSent(pdev);
 8004dd4:	4620      	mov	r0, r4
 8004dd6:	4798      	blx	r3
 8004dd8:	e7da      	b.n	8004d90 <USBD_LL_DataInStage+0x5c>
      pdev->dev_test_mode = 0U;
 8004dda:	2300      	movs	r3, #0
 8004ddc:	f884 32a0 	strb.w	r3, [r4, #672]	; 0x2a0
  return USBD_OK;
 8004de0:	4628      	mov	r0, r5
 8004de2:	e7bc      	b.n	8004d5e <USBD_LL_DataInStage+0x2a>
  else if ((pdev->pClass->DataIn != NULL) &&
 8004de4:	f8d0 32b4 	ldr.w	r3, [r0, #692]	; 0x2b4
 8004de8:	695b      	ldr	r3, [r3, #20]
 8004dea:	b133      	cbz	r3, 8004dfa <USBD_LL_DataInStage+0xc6>
 8004dec:	f890 229c 	ldrb.w	r2, [r0, #668]	; 0x29c
 8004df0:	2a03      	cmp	r2, #3
 8004df2:	d104      	bne.n	8004dfe <USBD_LL_DataInStage+0xca>
    pdev->pClass->DataIn(pdev, epnum);
 8004df4:	4798      	blx	r3
  return USBD_OK;
 8004df6:	2000      	movs	r0, #0
    pdev->pClass->DataIn(pdev, epnum);
 8004df8:	e7b1      	b.n	8004d5e <USBD_LL_DataInStage+0x2a>
    return USBD_FAIL;
 8004dfa:	2002      	movs	r0, #2
 8004dfc:	e7af      	b.n	8004d5e <USBD_LL_DataInStage+0x2a>
 8004dfe:	2002      	movs	r0, #2
 8004e00:	e7ad      	b.n	8004d5e <USBD_LL_DataInStage+0x2a>

08004e02 <USBD_LL_Reset>:
* @param  pdev: device instance
* @retval status
*/

USBD_StatusTypeDef USBD_LL_Reset(USBD_HandleTypeDef *pdev)
{
 8004e02:	b570      	push	{r4, r5, r6, lr}
 8004e04:	4604      	mov	r4, r0
  /* Open EP0 OUT */
  USBD_LL_OpenEP(pdev, 0x00U, USBD_EP_TYPE_CTRL, USB_MAX_EP0_SIZE);
 8004e06:	2340      	movs	r3, #64	; 0x40
 8004e08:	2200      	movs	r2, #0
 8004e0a:	4611      	mov	r1, r2
 8004e0c:	f000 fdcc 	bl	80059a8 <USBD_LL_OpenEP>
  pdev->ep_out[0x00U & 0xFU].is_used = 1U;
 8004e10:	2501      	movs	r5, #1
 8004e12:	f8c4 5158 	str.w	r5, [r4, #344]	; 0x158

  pdev->ep_out[0].maxpacket = USB_MAX_EP0_SIZE;
 8004e16:	2640      	movs	r6, #64	; 0x40
 8004e18:	f8c4 6164 	str.w	r6, [r4, #356]	; 0x164

  /* Open EP0 IN */
  USBD_LL_OpenEP(pdev, 0x80U, USBD_EP_TYPE_CTRL, USB_MAX_EP0_SIZE);
 8004e1c:	4633      	mov	r3, r6
 8004e1e:	2200      	movs	r2, #0
 8004e20:	2180      	movs	r1, #128	; 0x80
 8004e22:	4620      	mov	r0, r4
 8004e24:	f000 fdc0 	bl	80059a8 <USBD_LL_OpenEP>
  pdev->ep_in[0x80U & 0xFU].is_used = 1U;
 8004e28:	61a5      	str	r5, [r4, #24]

  pdev->ep_in[0].maxpacket = USB_MAX_EP0_SIZE;
 8004e2a:	6266      	str	r6, [r4, #36]	; 0x24

  /* Upon Reset call user call back */
  pdev->dev_state = USBD_STATE_DEFAULT;
 8004e2c:	f884 529c 	strb.w	r5, [r4, #668]	; 0x29c
  pdev->ep0_state = USBD_EP0_IDLE;
 8004e30:	2300      	movs	r3, #0
 8004e32:	f8c4 3294 	str.w	r3, [r4, #660]	; 0x294
  pdev->dev_config = 0U;
 8004e36:	6063      	str	r3, [r4, #4]
  pdev->dev_remote_wakeup = 0U;
 8004e38:	f8c4 32a4 	str.w	r3, [r4, #676]	; 0x2a4

  if (pdev->pClassData)
 8004e3c:	f8d4 32b8 	ldr.w	r3, [r4, #696]	; 0x2b8
 8004e40:	b12b      	cbz	r3, 8004e4e <USBD_LL_Reset+0x4c>
  {
    pdev->pClass->DeInit(pdev, (uint8_t)pdev->dev_config);
 8004e42:	f8d4 32b4 	ldr.w	r3, [r4, #692]	; 0x2b4
 8004e46:	685b      	ldr	r3, [r3, #4]
 8004e48:	2100      	movs	r1, #0
 8004e4a:	4620      	mov	r0, r4
 8004e4c:	4798      	blx	r3
  }

  return USBD_OK;
}
 8004e4e:	2000      	movs	r0, #0
 8004e50:	bd70      	pop	{r4, r5, r6, pc}

08004e52 <USBD_LL_SetSpeed>:
* @retval status
*/
USBD_StatusTypeDef USBD_LL_SetSpeed(USBD_HandleTypeDef *pdev,
                                    USBD_SpeedTypeDef speed)
{
  pdev->dev_speed = speed;
 8004e52:	7401      	strb	r1, [r0, #16]

  return USBD_OK;
}
 8004e54:	2000      	movs	r0, #0
 8004e56:	4770      	bx	lr

08004e58 <USBD_LL_Suspend>:
* @retval status
*/

USBD_StatusTypeDef USBD_LL_Suspend(USBD_HandleTypeDef *pdev)
{
  pdev->dev_old_state =  pdev->dev_state;
 8004e58:	f890 329c 	ldrb.w	r3, [r0, #668]	; 0x29c
 8004e5c:	f880 329d 	strb.w	r3, [r0, #669]	; 0x29d
  pdev->dev_state  = USBD_STATE_SUSPENDED;
 8004e60:	2304      	movs	r3, #4
 8004e62:	f880 329c 	strb.w	r3, [r0, #668]	; 0x29c

  return USBD_OK;
}
 8004e66:	2000      	movs	r0, #0
 8004e68:	4770      	bx	lr

08004e6a <USBD_LL_Resume>:
* @retval status
*/

USBD_StatusTypeDef USBD_LL_Resume(USBD_HandleTypeDef *pdev)
{
  if (pdev->dev_state == USBD_STATE_SUSPENDED)
 8004e6a:	f890 329c 	ldrb.w	r3, [r0, #668]	; 0x29c
 8004e6e:	2b04      	cmp	r3, #4
  {
    pdev->dev_state = pdev->dev_old_state;
 8004e70:	bf04      	itt	eq
 8004e72:	f890 329d 	ldrbeq.w	r3, [r0, #669]	; 0x29d
 8004e76:	f880 329c 	strbeq.w	r3, [r0, #668]	; 0x29c
  }

  return USBD_OK;
}
 8004e7a:	2000      	movs	r0, #0
 8004e7c:	4770      	bx	lr

08004e7e <USBD_LL_SOF>:
* @param  pdev: device instance
* @retval status
*/

USBD_StatusTypeDef USBD_LL_SOF(USBD_HandleTypeDef *pdev)
{
 8004e7e:	b508      	push	{r3, lr}
  if (pdev->dev_state == USBD_STATE_CONFIGURED)
 8004e80:	f890 329c 	ldrb.w	r3, [r0, #668]	; 0x29c
 8004e84:	2b03      	cmp	r3, #3
 8004e86:	d001      	beq.n	8004e8c <USBD_LL_SOF+0xe>
      pdev->pClass->SOF(pdev);
    }
  }

  return USBD_OK;
}
 8004e88:	2000      	movs	r0, #0
 8004e8a:	bd08      	pop	{r3, pc}
    if (pdev->pClass->SOF != NULL)
 8004e8c:	f8d0 32b4 	ldr.w	r3, [r0, #692]	; 0x2b4
 8004e90:	69db      	ldr	r3, [r3, #28]
 8004e92:	2b00      	cmp	r3, #0
 8004e94:	d0f8      	beq.n	8004e88 <USBD_LL_SOF+0xa>
      pdev->pClass->SOF(pdev);
 8004e96:	4798      	blx	r3
 8004e98:	e7f6      	b.n	8004e88 <USBD_LL_SOF+0xa>

08004e9a <USBD_ParseSetupRequest>:
* @retval None
*/

void USBD_ParseSetupRequest(USBD_SetupReqTypedef *req, uint8_t *pdata)
{
  req->bmRequest = *(uint8_t *)(pdata);
 8004e9a:	780b      	ldrb	r3, [r1, #0]
 8004e9c:	7003      	strb	r3, [r0, #0]
  req->bRequest = *(uint8_t *)(pdata + 1U);
 8004e9e:	784b      	ldrb	r3, [r1, #1]
 8004ea0:	7043      	strb	r3, [r0, #1]
  req->wValue = SWAPBYTE(pdata + 2U);
 8004ea2:	78ca      	ldrb	r2, [r1, #3]
 8004ea4:	788b      	ldrb	r3, [r1, #2]
 8004ea6:	eb03 2302 	add.w	r3, r3, r2, lsl #8
 8004eaa:	8043      	strh	r3, [r0, #2]
  req->wIndex = SWAPBYTE(pdata + 4U);
 8004eac:	794a      	ldrb	r2, [r1, #5]
 8004eae:	790b      	ldrb	r3, [r1, #4]
 8004eb0:	eb03 2302 	add.w	r3, r3, r2, lsl #8
 8004eb4:	8083      	strh	r3, [r0, #4]
  req->wLength = SWAPBYTE(pdata + 6U);
 8004eb6:	79ca      	ldrb	r2, [r1, #7]
 8004eb8:	798b      	ldrb	r3, [r1, #6]
 8004eba:	eb03 2302 	add.w	r3, r3, r2, lsl #8
 8004ebe:	80c3      	strh	r3, [r0, #6]

}
 8004ec0:	4770      	bx	lr

08004ec2 <USBD_CtlError>:
* @retval None
*/

void USBD_CtlError(USBD_HandleTypeDef *pdev,
                   USBD_SetupReqTypedef *req)
{
 8004ec2:	b510      	push	{r4, lr}
 8004ec4:	4604      	mov	r4, r0
  USBD_LL_StallEP(pdev, 0x80U);
 8004ec6:	2180      	movs	r1, #128	; 0x80
 8004ec8:	f000 fd81 	bl	80059ce <USBD_LL_StallEP>
  USBD_LL_StallEP(pdev, 0U);
 8004ecc:	2100      	movs	r1, #0
 8004ece:	4620      	mov	r0, r4
 8004ed0:	f000 fd7d 	bl	80059ce <USBD_LL_StallEP>
}
 8004ed4:	bd10      	pop	{r4, pc}
	...

08004ed8 <USBD_StdDevReq>:
{
 8004ed8:	b530      	push	{r4, r5, lr}
 8004eda:	b083      	sub	sp, #12
 8004edc:	4605      	mov	r5, r0
 8004ede:	460c      	mov	r4, r1
  switch (req->bmRequest & USB_REQ_TYPE_MASK)
 8004ee0:	780b      	ldrb	r3, [r1, #0]
 8004ee2:	f003 0360 	and.w	r3, r3, #96	; 0x60
 8004ee6:	2b20      	cmp	r3, #32
 8004ee8:	d005      	beq.n	8004ef6 <USBD_StdDevReq+0x1e>
 8004eea:	2b40      	cmp	r3, #64	; 0x40
 8004eec:	d003      	beq.n	8004ef6 <USBD_StdDevReq+0x1e>
 8004eee:	b15b      	cbz	r3, 8004f08 <USBD_StdDevReq+0x30>
      USBD_CtlError(pdev, req);
 8004ef0:	f7ff ffe7 	bl	8004ec2 <USBD_CtlError>
      break;
 8004ef4:	e005      	b.n	8004f02 <USBD_StdDevReq+0x2a>
      pdev->pClass->Setup(pdev, req);
 8004ef6:	f8d5 32b4 	ldr.w	r3, [r5, #692]	; 0x2b4
 8004efa:	689b      	ldr	r3, [r3, #8]
 8004efc:	4621      	mov	r1, r4
 8004efe:	4628      	mov	r0, r5
 8004f00:	4798      	blx	r3
}
 8004f02:	2000      	movs	r0, #0
 8004f04:	b003      	add	sp, #12
 8004f06:	bd30      	pop	{r4, r5, pc}
      switch (req->bRequest)
 8004f08:	784b      	ldrb	r3, [r1, #1]
 8004f0a:	2b09      	cmp	r3, #9
 8004f0c:	f200 8197 	bhi.w	800523e <USBD_StdDevReq+0x366>
 8004f10:	e8df f013 	tbh	[pc, r3, lsl #1]
 8004f14:	0183015f 	.word	0x0183015f
 8004f18:	017a0195 	.word	0x017a0195
 8004f1c:	00c90195 	.word	0x00c90195
 8004f20:	0195000a 	.word	0x0195000a
 8004f24:	00ee0140 	.word	0x00ee0140
  uint16_t len = 0U;
 8004f28:	2300      	movs	r3, #0
 8004f2a:	f8ad 3006 	strh.w	r3, [sp, #6]
  switch (req->wValue >> 8)
 8004f2e:	884a      	ldrh	r2, [r1, #2]
 8004f30:	0a13      	lsrs	r3, r2, #8
 8004f32:	3b01      	subs	r3, #1
 8004f34:	2b06      	cmp	r3, #6
 8004f36:	f200 80a4 	bhi.w	8005082 <USBD_StdDevReq+0x1aa>
 8004f3a:	e8df f003 	tbb	[pc, r3]
 8004f3e:	1804      	.short	0x1804
 8004f40:	86a2a22c 	.word	0x86a2a22c
 8004f44:	93          	.byte	0x93
 8004f45:	00          	.byte	0x00
      pbuf = pdev->pDesc->GetDeviceDescriptor(pdev->dev_speed, &len);
 8004f46:	f8d0 32b0 	ldr.w	r3, [r0, #688]	; 0x2b0
 8004f4a:	681b      	ldr	r3, [r3, #0]
 8004f4c:	f10d 0106 	add.w	r1, sp, #6
 8004f50:	7c00      	ldrb	r0, [r0, #16]
 8004f52:	4798      	blx	r3
    if ((len != 0U) && (req->wLength != 0U))
 8004f54:	f8bd 2006 	ldrh.w	r2, [sp, #6]
 8004f58:	2a00      	cmp	r2, #0
 8004f5a:	f000 809f 	beq.w	800509c <USBD_StdDevReq+0x1c4>
 8004f5e:	88e3      	ldrh	r3, [r4, #6]
 8004f60:	2b00      	cmp	r3, #0
 8004f62:	f040 8092 	bne.w	800508a <USBD_StdDevReq+0x1b2>
      (void)USBD_CtlSendStatus(pdev);
 8004f66:	4628      	mov	r0, r5
 8004f68:	f000 fac1 	bl	80054ee <USBD_CtlSendStatus>
 8004f6c:	e7c9      	b.n	8004f02 <USBD_StdDevReq+0x2a>
      if (pdev->dev_speed == USBD_SPEED_HIGH)
 8004f6e:	7c03      	ldrb	r3, [r0, #16]
 8004f70:	b943      	cbnz	r3, 8004f84 <USBD_StdDevReq+0xac>
        pbuf = pdev->pClass->GetHSConfigDescriptor(&len);
 8004f72:	f8d0 32b4 	ldr.w	r3, [r0, #692]	; 0x2b4
 8004f76:	6a9b      	ldr	r3, [r3, #40]	; 0x28
 8004f78:	f10d 0006 	add.w	r0, sp, #6
 8004f7c:	4798      	blx	r3
        pbuf[1] = USB_DESC_TYPE_CONFIGURATION;
 8004f7e:	2302      	movs	r3, #2
 8004f80:	7043      	strb	r3, [r0, #1]
  if (err != 0U)
 8004f82:	e7e7      	b.n	8004f54 <USBD_StdDevReq+0x7c>
        pbuf = pdev->pClass->GetFSConfigDescriptor(&len);
 8004f84:	f8d0 32b4 	ldr.w	r3, [r0, #692]	; 0x2b4
 8004f88:	6adb      	ldr	r3, [r3, #44]	; 0x2c
 8004f8a:	f10d 0006 	add.w	r0, sp, #6
 8004f8e:	4798      	blx	r3
        pbuf[1] = USB_DESC_TYPE_CONFIGURATION;
 8004f90:	2302      	movs	r3, #2
 8004f92:	7043      	strb	r3, [r0, #1]
  if (err != 0U)
 8004f94:	e7de      	b.n	8004f54 <USBD_StdDevReq+0x7c>
      switch ((uint8_t)(req->wValue))
 8004f96:	b2d2      	uxtb	r2, r2
 8004f98:	2a05      	cmp	r2, #5
 8004f9a:	d852      	bhi.n	8005042 <USBD_StdDevReq+0x16a>
 8004f9c:	e8df f002 	tbb	[pc, r2]
 8004fa0:	2a1d1003 	.word	0x2a1d1003
 8004fa4:	4437      	.short	0x4437
          if (pdev->pDesc->GetLangIDStrDescriptor != NULL)
 8004fa6:	f8d0 32b0 	ldr.w	r3, [r0, #688]	; 0x2b0
 8004faa:	685b      	ldr	r3, [r3, #4]
 8004fac:	b123      	cbz	r3, 8004fb8 <USBD_StdDevReq+0xe0>
            pbuf = pdev->pDesc->GetLangIDStrDescriptor(pdev->dev_speed, &len);
 8004fae:	f10d 0106 	add.w	r1, sp, #6
 8004fb2:	7c00      	ldrb	r0, [r0, #16]
 8004fb4:	4798      	blx	r3
  if (err != 0U)
 8004fb6:	e7cd      	b.n	8004f54 <USBD_StdDevReq+0x7c>
            USBD_CtlError(pdev, req);
 8004fb8:	4621      	mov	r1, r4
 8004fba:	f7ff ff82 	bl	8004ec2 <USBD_CtlError>
  if (err != 0U)
 8004fbe:	e7a0      	b.n	8004f02 <USBD_StdDevReq+0x2a>
          if (pdev->pDesc->GetManufacturerStrDescriptor != NULL)
 8004fc0:	f8d0 32b0 	ldr.w	r3, [r0, #688]	; 0x2b0
 8004fc4:	689b      	ldr	r3, [r3, #8]
 8004fc6:	b123      	cbz	r3, 8004fd2 <USBD_StdDevReq+0xfa>
            pbuf = pdev->pDesc->GetManufacturerStrDescriptor(pdev->dev_speed, &len);
 8004fc8:	f10d 0106 	add.w	r1, sp, #6
 8004fcc:	7c00      	ldrb	r0, [r0, #16]
 8004fce:	4798      	blx	r3
  if (err != 0U)
 8004fd0:	e7c0      	b.n	8004f54 <USBD_StdDevReq+0x7c>
            USBD_CtlError(pdev, req);
 8004fd2:	4621      	mov	r1, r4
 8004fd4:	f7ff ff75 	bl	8004ec2 <USBD_CtlError>
  if (err != 0U)
 8004fd8:	e793      	b.n	8004f02 <USBD_StdDevReq+0x2a>
          if (pdev->pDesc->GetProductStrDescriptor != NULL)
 8004fda:	f8d0 32b0 	ldr.w	r3, [r0, #688]	; 0x2b0
 8004fde:	68db      	ldr	r3, [r3, #12]
 8004fe0:	b123      	cbz	r3, 8004fec <USBD_StdDevReq+0x114>
            pbuf = pdev->pDesc->GetProductStrDescriptor(pdev->dev_speed, &len);
 8004fe2:	f10d 0106 	add.w	r1, sp, #6
 8004fe6:	7c00      	ldrb	r0, [r0, #16]
 8004fe8:	4798      	blx	r3
  if (err != 0U)
 8004fea:	e7b3      	b.n	8004f54 <USBD_StdDevReq+0x7c>
            USBD_CtlError(pdev, req);
 8004fec:	4621      	mov	r1, r4
 8004fee:	f7ff ff68 	bl	8004ec2 <USBD_CtlError>
  if (err != 0U)
 8004ff2:	e786      	b.n	8004f02 <USBD_StdDevReq+0x2a>
          if (pdev->pDesc->GetSerialStrDescriptor != NULL)
 8004ff4:	f8d0 32b0 	ldr.w	r3, [r0, #688]	; 0x2b0
 8004ff8:	691b      	ldr	r3, [r3, #16]
 8004ffa:	b123      	cbz	r3, 8005006 <USBD_StdDevReq+0x12e>
            pbuf = pdev->pDesc->GetSerialStrDescriptor(pdev->dev_speed, &len);
 8004ffc:	f10d 0106 	add.w	r1, sp, #6
 8005000:	7c00      	ldrb	r0, [r0, #16]
 8005002:	4798      	blx	r3
  if (err != 0U)
 8005004:	e7a6      	b.n	8004f54 <USBD_StdDevReq+0x7c>
            USBD_CtlError(pdev, req);
 8005006:	4621      	mov	r1, r4
 8005008:	f7ff ff5b 	bl	8004ec2 <USBD_CtlError>
  if (err != 0U)
 800500c:	e779      	b.n	8004f02 <USBD_StdDevReq+0x2a>
          if (pdev->pDesc->GetConfigurationStrDescriptor != NULL)
 800500e:	f8d0 32b0 	ldr.w	r3, [r0, #688]	; 0x2b0
 8005012:	695b      	ldr	r3, [r3, #20]
 8005014:	b123      	cbz	r3, 8005020 <USBD_StdDevReq+0x148>
            pbuf = pdev->pDesc->GetConfigurationStrDescriptor(pdev->dev_speed, &len);
 8005016:	f10d 0106 	add.w	r1, sp, #6
 800501a:	7c00      	ldrb	r0, [r0, #16]
 800501c:	4798      	blx	r3
  if (err != 0U)
 800501e:	e799      	b.n	8004f54 <USBD_StdDevReq+0x7c>
            USBD_CtlError(pdev, req);
 8005020:	4621      	mov	r1, r4
 8005022:	f7ff ff4e 	bl	8004ec2 <USBD_CtlError>
  if (err != 0U)
 8005026:	e76c      	b.n	8004f02 <USBD_StdDevReq+0x2a>
          if (pdev->pDesc->GetInterfaceStrDescriptor != NULL)
 8005028:	f8d0 32b0 	ldr.w	r3, [r0, #688]	; 0x2b0
 800502c:	699b      	ldr	r3, [r3, #24]
 800502e:	b123      	cbz	r3, 800503a <USBD_StdDevReq+0x162>
            pbuf = pdev->pDesc->GetInterfaceStrDescriptor(pdev->dev_speed, &len);
 8005030:	f10d 0106 	add.w	r1, sp, #6
 8005034:	7c00      	ldrb	r0, [r0, #16]
 8005036:	4798      	blx	r3
  if (err != 0U)
 8005038:	e78c      	b.n	8004f54 <USBD_StdDevReq+0x7c>
            USBD_CtlError(pdev, req);
 800503a:	4621      	mov	r1, r4
 800503c:	f7ff ff41 	bl	8004ec2 <USBD_CtlError>
  if (err != 0U)
 8005040:	e75f      	b.n	8004f02 <USBD_StdDevReq+0x2a>
          USBD_CtlError(pdev, req);
 8005042:	4621      	mov	r1, r4
 8005044:	f7ff ff3d 	bl	8004ec2 <USBD_CtlError>
  if (err != 0U)
 8005048:	e75b      	b.n	8004f02 <USBD_StdDevReq+0x2a>
      if (pdev->dev_speed == USBD_SPEED_HIGH)
 800504a:	7c03      	ldrb	r3, [r0, #16]
 800504c:	b933      	cbnz	r3, 800505c <USBD_StdDevReq+0x184>
        pbuf = pdev->pClass->GetDeviceQualifierDescriptor(&len);
 800504e:	f8d0 32b4 	ldr.w	r3, [r0, #692]	; 0x2b4
 8005052:	6b5b      	ldr	r3, [r3, #52]	; 0x34
 8005054:	f10d 0006 	add.w	r0, sp, #6
 8005058:	4798      	blx	r3
  if (err != 0U)
 800505a:	e77b      	b.n	8004f54 <USBD_StdDevReq+0x7c>
        USBD_CtlError(pdev, req);
 800505c:	4621      	mov	r1, r4
 800505e:	f7ff ff30 	bl	8004ec2 <USBD_CtlError>
  if (err != 0U)
 8005062:	e74e      	b.n	8004f02 <USBD_StdDevReq+0x2a>
      if (pdev->dev_speed == USBD_SPEED_HIGH)
 8005064:	7c03      	ldrb	r3, [r0, #16]
 8005066:	b943      	cbnz	r3, 800507a <USBD_StdDevReq+0x1a2>
        pbuf = pdev->pClass->GetOtherSpeedConfigDescriptor(&len);
 8005068:	f8d0 32b4 	ldr.w	r3, [r0, #692]	; 0x2b4
 800506c:	6b1b      	ldr	r3, [r3, #48]	; 0x30
 800506e:	f10d 0006 	add.w	r0, sp, #6
 8005072:	4798      	blx	r3
        pbuf[1] = USB_DESC_TYPE_OTHER_SPEED_CONFIGURATION;
 8005074:	2307      	movs	r3, #7
 8005076:	7043      	strb	r3, [r0, #1]
  if (err != 0U)
 8005078:	e76c      	b.n	8004f54 <USBD_StdDevReq+0x7c>
        USBD_CtlError(pdev, req);
 800507a:	4621      	mov	r1, r4
 800507c:	f7ff ff21 	bl	8004ec2 <USBD_CtlError>
  if (err != 0U)
 8005080:	e73f      	b.n	8004f02 <USBD_StdDevReq+0x2a>
      USBD_CtlError(pdev, req);
 8005082:	4621      	mov	r1, r4
 8005084:	f7ff ff1d 	bl	8004ec2 <USBD_CtlError>
    return;
 8005088:	e73b      	b.n	8004f02 <USBD_StdDevReq+0x2a>
      len = MIN(len, req->wLength);
 800508a:	429a      	cmp	r2, r3
 800508c:	bf28      	it	cs
 800508e:	461a      	movcs	r2, r3
 8005090:	f8ad 2006 	strh.w	r2, [sp, #6]
      (void)USBD_CtlSendData(pdev, pbuf, len);
 8005094:	4601      	mov	r1, r0
 8005096:	4628      	mov	r0, r5
 8005098:	f000 f9fd 	bl	8005496 <USBD_CtlSendData>
    if (req->wLength == 0U)
 800509c:	88e3      	ldrh	r3, [r4, #6]
 800509e:	2b00      	cmp	r3, #0
 80050a0:	f47f af2f 	bne.w	8004f02 <USBD_StdDevReq+0x2a>
 80050a4:	e75f      	b.n	8004f66 <USBD_StdDevReq+0x8e>
  if ((req->wIndex == 0U) && (req->wLength == 0U) && (req->wValue < 128U))
 80050a6:	888b      	ldrh	r3, [r1, #4]
 80050a8:	b9eb      	cbnz	r3, 80050e6 <USBD_StdDevReq+0x20e>
 80050aa:	88cb      	ldrh	r3, [r1, #6]
 80050ac:	b9db      	cbnz	r3, 80050e6 <USBD_StdDevReq+0x20e>
 80050ae:	884b      	ldrh	r3, [r1, #2]
 80050b0:	2b7f      	cmp	r3, #127	; 0x7f
 80050b2:	d818      	bhi.n	80050e6 <USBD_StdDevReq+0x20e>
    if (pdev->dev_state == USBD_STATE_CONFIGURED)
 80050b4:	f890 229c 	ldrb.w	r2, [r0, #668]	; 0x29c
 80050b8:	2a03      	cmp	r2, #3
 80050ba:	d00d      	beq.n	80050d8 <USBD_StdDevReq+0x200>
    dev_addr = (uint8_t)(req->wValue) & 0x7FU;
 80050bc:	b2dc      	uxtb	r4, r3
      pdev->dev_address = dev_addr;
 80050be:	f880 429e 	strb.w	r4, [r0, #670]	; 0x29e
      USBD_LL_SetUSBAddress(pdev, dev_addr);
 80050c2:	4621      	mov	r1, r4
 80050c4:	f000 fcaa 	bl	8005a1c <USBD_LL_SetUSBAddress>
      USBD_CtlSendStatus(pdev);
 80050c8:	4628      	mov	r0, r5
 80050ca:	f000 fa10 	bl	80054ee <USBD_CtlSendStatus>
      if (dev_addr != 0U)
 80050ce:	b134      	cbz	r4, 80050de <USBD_StdDevReq+0x206>
        pdev->dev_state = USBD_STATE_ADDRESSED;
 80050d0:	2302      	movs	r3, #2
 80050d2:	f885 329c 	strb.w	r3, [r5, #668]	; 0x29c
 80050d6:	e714      	b.n	8004f02 <USBD_StdDevReq+0x2a>
      USBD_CtlError(pdev, req);
 80050d8:	f7ff fef3 	bl	8004ec2 <USBD_CtlError>
 80050dc:	e711      	b.n	8004f02 <USBD_StdDevReq+0x2a>
        pdev->dev_state = USBD_STATE_DEFAULT;
 80050de:	2301      	movs	r3, #1
 80050e0:	f885 329c 	strb.w	r3, [r5, #668]	; 0x29c
 80050e4:	e70d      	b.n	8004f02 <USBD_StdDevReq+0x2a>
    USBD_CtlError(pdev, req);
 80050e6:	4621      	mov	r1, r4
 80050e8:	4628      	mov	r0, r5
 80050ea:	f7ff feea 	bl	8004ec2 <USBD_CtlError>
 80050ee:	e708      	b.n	8004f02 <USBD_StdDevReq+0x2a>
  cfgidx = (uint8_t)(req->wValue);
 80050f0:	788b      	ldrb	r3, [r1, #2]
 80050f2:	4a54      	ldr	r2, [pc, #336]	; (8005244 <USBD_StdDevReq+0x36c>)
 80050f4:	7013      	strb	r3, [r2, #0]
  if (cfgidx > USBD_MAX_NUM_CONFIGURATION)
 80050f6:	2b01      	cmp	r3, #1
 80050f8:	d80d      	bhi.n	8005116 <USBD_StdDevReq+0x23e>
    switch (pdev->dev_state)
 80050fa:	f890 229c 	ldrb.w	r2, [r0, #668]	; 0x29c
 80050fe:	2a02      	cmp	r2, #2
 8005100:	d00c      	beq.n	800511c <USBD_StdDevReq+0x244>
 8005102:	2a03      	cmp	r2, #3
 8005104:	d020      	beq.n	8005148 <USBD_StdDevReq+0x270>
        USBD_CtlError(pdev, req);
 8005106:	f7ff fedc 	bl	8004ec2 <USBD_CtlError>
        USBD_ClrClassConfig(pdev, cfgidx);
 800510a:	4b4e      	ldr	r3, [pc, #312]	; (8005244 <USBD_StdDevReq+0x36c>)
 800510c:	7819      	ldrb	r1, [r3, #0]
 800510e:	4628      	mov	r0, r5
 8005110:	f7ff fd98 	bl	8004c44 <USBD_ClrClassConfig>
        break;
 8005114:	e6f5      	b.n	8004f02 <USBD_StdDevReq+0x2a>
    USBD_CtlError(pdev, req);
 8005116:	f7ff fed4 	bl	8004ec2 <USBD_CtlError>
 800511a:	e6f2      	b.n	8004f02 <USBD_StdDevReq+0x2a>
        if (cfgidx)
 800511c:	b18b      	cbz	r3, 8005142 <USBD_StdDevReq+0x26a>
          pdev->dev_config = cfgidx;
 800511e:	2101      	movs	r1, #1
 8005120:	6041      	str	r1, [r0, #4]
          pdev->dev_state = USBD_STATE_CONFIGURED;
 8005122:	2303      	movs	r3, #3
 8005124:	f880 329c 	strb.w	r3, [r0, #668]	; 0x29c
          if (USBD_SetClassConfig(pdev, cfgidx) == USBD_FAIL)
 8005128:	f7ff fd7f 	bl	8004c2a <USBD_SetClassConfig>
 800512c:	2802      	cmp	r0, #2
 800512e:	d003      	beq.n	8005138 <USBD_StdDevReq+0x260>
          USBD_CtlSendStatus(pdev);
 8005130:	4628      	mov	r0, r5
 8005132:	f000 f9dc 	bl	80054ee <USBD_CtlSendStatus>
 8005136:	e6e4      	b.n	8004f02 <USBD_StdDevReq+0x2a>
            USBD_CtlError(pdev, req);
 8005138:	4621      	mov	r1, r4
 800513a:	4628      	mov	r0, r5
 800513c:	f7ff fec1 	bl	8004ec2 <USBD_CtlError>
            return;
 8005140:	e6df      	b.n	8004f02 <USBD_StdDevReq+0x2a>
          USBD_CtlSendStatus(pdev);
 8005142:	f000 f9d4 	bl	80054ee <USBD_CtlSendStatus>
 8005146:	e6dc      	b.n	8004f02 <USBD_StdDevReq+0x2a>
        if (cfgidx == 0U)
 8005148:	b18b      	cbz	r3, 800516e <USBD_StdDevReq+0x296>
        else if (cfgidx != pdev->dev_config)
 800514a:	6841      	ldr	r1, [r0, #4]
 800514c:	2901      	cmp	r1, #1
 800514e:	d01e      	beq.n	800518e <USBD_StdDevReq+0x2b6>
          USBD_ClrClassConfig(pdev, (uint8_t)pdev->dev_config);
 8005150:	b2c9      	uxtb	r1, r1
 8005152:	f7ff fd77 	bl	8004c44 <USBD_ClrClassConfig>
          pdev->dev_config = cfgidx;
 8005156:	4b3b      	ldr	r3, [pc, #236]	; (8005244 <USBD_StdDevReq+0x36c>)
 8005158:	7819      	ldrb	r1, [r3, #0]
 800515a:	6069      	str	r1, [r5, #4]
          if (USBD_SetClassConfig(pdev, cfgidx) == USBD_FAIL)
 800515c:	4628      	mov	r0, r5
 800515e:	f7ff fd64 	bl	8004c2a <USBD_SetClassConfig>
 8005162:	2802      	cmp	r0, #2
 8005164:	d00e      	beq.n	8005184 <USBD_StdDevReq+0x2ac>
          USBD_CtlSendStatus(pdev);
 8005166:	4628      	mov	r0, r5
 8005168:	f000 f9c1 	bl	80054ee <USBD_CtlSendStatus>
 800516c:	e6c9      	b.n	8004f02 <USBD_StdDevReq+0x2a>
          pdev->dev_state = USBD_STATE_ADDRESSED;
 800516e:	2302      	movs	r3, #2
 8005170:	f880 329c 	strb.w	r3, [r0, #668]	; 0x29c
          pdev->dev_config = cfgidx;
 8005174:	2100      	movs	r1, #0
 8005176:	6041      	str	r1, [r0, #4]
          USBD_ClrClassConfig(pdev, cfgidx);
 8005178:	f7ff fd64 	bl	8004c44 <USBD_ClrClassConfig>
          USBD_CtlSendStatus(pdev);
 800517c:	4628      	mov	r0, r5
 800517e:	f000 f9b6 	bl	80054ee <USBD_CtlSendStatus>
 8005182:	e6be      	b.n	8004f02 <USBD_StdDevReq+0x2a>
            USBD_CtlError(pdev, req);
 8005184:	4621      	mov	r1, r4
 8005186:	4628      	mov	r0, r5
 8005188:	f7ff fe9b 	bl	8004ec2 <USBD_CtlError>
            return;
 800518c:	e6b9      	b.n	8004f02 <USBD_StdDevReq+0x2a>
          USBD_CtlSendStatus(pdev);
 800518e:	f000 f9ae 	bl	80054ee <USBD_CtlSendStatus>
 8005192:	e6b6      	b.n	8004f02 <USBD_StdDevReq+0x2a>
  if (req->wLength != 1U)
 8005194:	88cb      	ldrh	r3, [r1, #6]
 8005196:	2b01      	cmp	r3, #1
 8005198:	d10a      	bne.n	80051b0 <USBD_StdDevReq+0x2d8>
    switch (pdev->dev_state)
 800519a:	f890 329c 	ldrb.w	r3, [r0, #668]	; 0x29c
 800519e:	2b02      	cmp	r3, #2
 80051a0:	d909      	bls.n	80051b6 <USBD_StdDevReq+0x2de>
 80051a2:	2b03      	cmp	r3, #3
 80051a4:	d108      	bne.n	80051b8 <USBD_StdDevReq+0x2e0>
        USBD_CtlSendData(pdev, (uint8_t *)(void *)&pdev->dev_config, 1U);
 80051a6:	2201      	movs	r2, #1
 80051a8:	1d01      	adds	r1, r0, #4
 80051aa:	f000 f974 	bl	8005496 <USBD_CtlSendData>
        break;
 80051ae:	e6a8      	b.n	8004f02 <USBD_StdDevReq+0x2a>
    USBD_CtlError(pdev, req);
 80051b0:	f7ff fe87 	bl	8004ec2 <USBD_CtlError>
 80051b4:	e6a5      	b.n	8004f02 <USBD_StdDevReq+0x2a>
    switch (pdev->dev_state)
 80051b6:	b923      	cbnz	r3, 80051c2 <USBD_StdDevReq+0x2ea>
        USBD_CtlError(pdev, req);
 80051b8:	4621      	mov	r1, r4
 80051ba:	4628      	mov	r0, r5
 80051bc:	f7ff fe81 	bl	8004ec2 <USBD_CtlError>
        break;
 80051c0:	e69f      	b.n	8004f02 <USBD_StdDevReq+0x2a>
        pdev->dev_default_config = 0U;
 80051c2:	4601      	mov	r1, r0
 80051c4:	2300      	movs	r3, #0
 80051c6:	f841 3f08 	str.w	r3, [r1, #8]!
        USBD_CtlSendData(pdev, (uint8_t *)(void *)&pdev->dev_default_config, 1U);
 80051ca:	2201      	movs	r2, #1
 80051cc:	f000 f963 	bl	8005496 <USBD_CtlSendData>
        break;
 80051d0:	e697      	b.n	8004f02 <USBD_StdDevReq+0x2a>
  switch (pdev->dev_state)
 80051d2:	f890 329c 	ldrb.w	r3, [r0, #668]	; 0x29c
 80051d6:	3b01      	subs	r3, #1
 80051d8:	2b02      	cmp	r3, #2
 80051da:	d812      	bhi.n	8005202 <USBD_StdDevReq+0x32a>
      if (req->wLength != 0x2U)
 80051dc:	88cb      	ldrh	r3, [r1, #6]
 80051de:	2b02      	cmp	r3, #2
 80051e0:	d10c      	bne.n	80051fc <USBD_StdDevReq+0x324>
      if (pdev->dev_remote_wakeup)
 80051e2:	f8d0 32a4 	ldr.w	r3, [r0, #676]	; 0x2a4
        pdev->dev_config_status |= USB_CONFIG_REMOTE_WAKEUP;
 80051e6:	2b00      	cmp	r3, #0
 80051e8:	bf14      	ite	ne
 80051ea:	2303      	movne	r3, #3
 80051ec:	2301      	moveq	r3, #1
 80051ee:	4601      	mov	r1, r0
 80051f0:	f841 3f0c 	str.w	r3, [r1, #12]!
      USBD_CtlSendData(pdev, (uint8_t *)(void *)&pdev->dev_config_status, 2U);
 80051f4:	2202      	movs	r2, #2
 80051f6:	f000 f94e 	bl	8005496 <USBD_CtlSendData>
      break;
 80051fa:	e682      	b.n	8004f02 <USBD_StdDevReq+0x2a>
        USBD_CtlError(pdev, req);
 80051fc:	f7ff fe61 	bl	8004ec2 <USBD_CtlError>
        break;
 8005200:	e67f      	b.n	8004f02 <USBD_StdDevReq+0x2a>
      USBD_CtlError(pdev, req);
 8005202:	f7ff fe5e 	bl	8004ec2 <USBD_CtlError>
      break;
 8005206:	e67c      	b.n	8004f02 <USBD_StdDevReq+0x2a>
  if (req->wValue == USB_FEATURE_REMOTE_WAKEUP)
 8005208:	884b      	ldrh	r3, [r1, #2]
 800520a:	2b01      	cmp	r3, #1
 800520c:	f47f ae79 	bne.w	8004f02 <USBD_StdDevReq+0x2a>
    pdev->dev_remote_wakeup = 1U;
 8005210:	f8c0 32a4 	str.w	r3, [r0, #676]	; 0x2a4
    USBD_CtlSendStatus(pdev);
 8005214:	f000 f96b 	bl	80054ee <USBD_CtlSendStatus>
 8005218:	e673      	b.n	8004f02 <USBD_StdDevReq+0x2a>
  switch (pdev->dev_state)
 800521a:	f890 329c 	ldrb.w	r3, [r0, #668]	; 0x29c
 800521e:	3b01      	subs	r3, #1
 8005220:	2b02      	cmp	r3, #2
 8005222:	d809      	bhi.n	8005238 <USBD_StdDevReq+0x360>
      if (req->wValue == USB_FEATURE_REMOTE_WAKEUP)
 8005224:	884b      	ldrh	r3, [r1, #2]
 8005226:	2b01      	cmp	r3, #1
 8005228:	f47f ae6b 	bne.w	8004f02 <USBD_StdDevReq+0x2a>
        pdev->dev_remote_wakeup = 0U;
 800522c:	2300      	movs	r3, #0
 800522e:	f8c0 32a4 	str.w	r3, [r0, #676]	; 0x2a4
        USBD_CtlSendStatus(pdev);
 8005232:	f000 f95c 	bl	80054ee <USBD_CtlSendStatus>
 8005236:	e664      	b.n	8004f02 <USBD_StdDevReq+0x2a>
      USBD_CtlError(pdev, req);
 8005238:	f7ff fe43 	bl	8004ec2 <USBD_CtlError>
      break;
 800523c:	e661      	b.n	8004f02 <USBD_StdDevReq+0x2a>
          USBD_CtlError(pdev, req);
 800523e:	f7ff fe40 	bl	8004ec2 <USBD_CtlError>
          break;
 8005242:	e65e      	b.n	8004f02 <USBD_StdDevReq+0x2a>
 8005244:	20000420 	.word	0x20000420

08005248 <USBD_StdItfReq>:
{
 8005248:	b538      	push	{r3, r4, r5, lr}
 800524a:	4605      	mov	r5, r0
 800524c:	460c      	mov	r4, r1
  switch (req->bmRequest & USB_REQ_TYPE_MASK)
 800524e:	780b      	ldrb	r3, [r1, #0]
 8005250:	f003 0260 	and.w	r2, r3, #96	; 0x60
 8005254:	2a40      	cmp	r2, #64	; 0x40
 8005256:	d006      	beq.n	8005266 <USBD_StdItfReq+0x1e>
 8005258:	f013 0f40 	tst.w	r3, #64	; 0x40
 800525c:	d003      	beq.n	8005266 <USBD_StdItfReq+0x1e>
      USBD_CtlError(pdev, req);
 800525e:	f7ff fe30 	bl	8004ec2 <USBD_CtlError>
}
 8005262:	2000      	movs	r0, #0
 8005264:	bd38      	pop	{r3, r4, r5, pc}
      switch (pdev->dev_state)
 8005266:	f895 329c 	ldrb.w	r3, [r5, #668]	; 0x29c
 800526a:	3b01      	subs	r3, #1
 800526c:	2b02      	cmp	r3, #2
 800526e:	d816      	bhi.n	800529e <USBD_StdItfReq+0x56>
          if (LOBYTE(req->wIndex) <= USBD_MAX_NUM_INTERFACES)
 8005270:	7923      	ldrb	r3, [r4, #4]
 8005272:	2b01      	cmp	r3, #1
 8005274:	d80e      	bhi.n	8005294 <USBD_StdItfReq+0x4c>
            ret = (USBD_StatusTypeDef)pdev->pClass->Setup(pdev, req);
 8005276:	f8d5 32b4 	ldr.w	r3, [r5, #692]	; 0x2b4
 800527a:	689b      	ldr	r3, [r3, #8]
 800527c:	4621      	mov	r1, r4
 800527e:	4628      	mov	r0, r5
 8005280:	4798      	blx	r3
            if ((req->wLength == 0U) && (ret == USBD_OK))
 8005282:	88e3      	ldrh	r3, [r4, #6]
 8005284:	2b00      	cmp	r3, #0
 8005286:	d1ec      	bne.n	8005262 <USBD_StdItfReq+0x1a>
 8005288:	2800      	cmp	r0, #0
 800528a:	d1ea      	bne.n	8005262 <USBD_StdItfReq+0x1a>
              USBD_CtlSendStatus(pdev);
 800528c:	4628      	mov	r0, r5
 800528e:	f000 f92e 	bl	80054ee <USBD_CtlSendStatus>
 8005292:	e7e6      	b.n	8005262 <USBD_StdItfReq+0x1a>
            USBD_CtlError(pdev, req);
 8005294:	4621      	mov	r1, r4
 8005296:	4628      	mov	r0, r5
 8005298:	f7ff fe13 	bl	8004ec2 <USBD_CtlError>
 800529c:	e7e1      	b.n	8005262 <USBD_StdItfReq+0x1a>
          USBD_CtlError(pdev, req);
 800529e:	4621      	mov	r1, r4
 80052a0:	4628      	mov	r0, r5
 80052a2:	f7ff fe0e 	bl	8004ec2 <USBD_CtlError>
          break;
 80052a6:	e7dc      	b.n	8005262 <USBD_StdItfReq+0x1a>

080052a8 <USBD_StdEPReq>:
{
 80052a8:	b538      	push	{r3, r4, r5, lr}
 80052aa:	4604      	mov	r4, r0
  ep_addr  = LOBYTE(req->wIndex);
 80052ac:	888a      	ldrh	r2, [r1, #4]
  switch (req->bmRequest & USB_REQ_TYPE_MASK)
 80052ae:	780b      	ldrb	r3, [r1, #0]
 80052b0:	f003 0360 	and.w	r3, r3, #96	; 0x60
 80052b4:	2b20      	cmp	r3, #32
 80052b6:	d005      	beq.n	80052c4 <USBD_StdEPReq+0x1c>
 80052b8:	2b40      	cmp	r3, #64	; 0x40
 80052ba:	d003      	beq.n	80052c4 <USBD_StdEPReq+0x1c>
 80052bc:	b14b      	cbz	r3, 80052d2 <USBD_StdEPReq+0x2a>
      USBD_CtlError(pdev, req);
 80052be:	f7ff fe00 	bl	8004ec2 <USBD_CtlError>
      break;
 80052c2:	e004      	b.n	80052ce <USBD_StdEPReq+0x26>
      pdev->pClass->Setup(pdev, req);
 80052c4:	f8d4 32b4 	ldr.w	r3, [r4, #692]	; 0x2b4
 80052c8:	689b      	ldr	r3, [r3, #8]
 80052ca:	4620      	mov	r0, r4
 80052cc:	4798      	blx	r3
}
 80052ce:	2000      	movs	r0, #0
 80052d0:	bd38      	pop	{r3, r4, r5, pc}
  ep_addr  = LOBYTE(req->wIndex);
 80052d2:	b2d0      	uxtb	r0, r2
      switch (req->bRequest)
 80052d4:	784b      	ldrb	r3, [r1, #1]
 80052d6:	2b01      	cmp	r3, #1
 80052d8:	d031      	beq.n	800533e <USBD_StdEPReq+0x96>
 80052da:	2b03      	cmp	r3, #3
 80052dc:	d005      	beq.n	80052ea <USBD_StdEPReq+0x42>
 80052de:	2b00      	cmp	r3, #0
 80052e0:	d056      	beq.n	8005390 <USBD_StdEPReq+0xe8>
          USBD_CtlError(pdev, req);
 80052e2:	4620      	mov	r0, r4
 80052e4:	f7ff fded 	bl	8004ec2 <USBD_CtlError>
          break;
 80052e8:	e7f1      	b.n	80052ce <USBD_StdEPReq+0x26>
          switch (pdev->dev_state)
 80052ea:	f894 329c 	ldrb.w	r3, [r4, #668]	; 0x29c
 80052ee:	2b02      	cmp	r3, #2
 80052f0:	d005      	beq.n	80052fe <USBD_StdEPReq+0x56>
 80052f2:	2b03      	cmp	r3, #3
 80052f4:	d013      	beq.n	800531e <USBD_StdEPReq+0x76>
              USBD_CtlError(pdev, req);
 80052f6:	4620      	mov	r0, r4
 80052f8:	f7ff fde3 	bl	8004ec2 <USBD_CtlError>
              break;
 80052fc:	e7e7      	b.n	80052ce <USBD_StdEPReq+0x26>
              if ((ep_addr != 0x00U) && (ep_addr != 0x80U))
 80052fe:	f010 0f7f 	tst.w	r0, #127	; 0x7f
 8005302:	d008      	beq.n	8005316 <USBD_StdEPReq+0x6e>
                USBD_LL_StallEP(pdev, ep_addr);
 8005304:	4601      	mov	r1, r0
 8005306:	4620      	mov	r0, r4
 8005308:	f000 fb61 	bl	80059ce <USBD_LL_StallEP>
                USBD_LL_StallEP(pdev, 0x80U);
 800530c:	2180      	movs	r1, #128	; 0x80
 800530e:	4620      	mov	r0, r4
 8005310:	f000 fb5d 	bl	80059ce <USBD_LL_StallEP>
 8005314:	e7db      	b.n	80052ce <USBD_StdEPReq+0x26>
                USBD_CtlError(pdev, req);
 8005316:	4620      	mov	r0, r4
 8005318:	f7ff fdd3 	bl	8004ec2 <USBD_CtlError>
 800531c:	e7d7      	b.n	80052ce <USBD_StdEPReq+0x26>
              if (req->wValue == USB_FEATURE_EP_HALT)
 800531e:	884b      	ldrh	r3, [r1, #2]
 8005320:	b923      	cbnz	r3, 800532c <USBD_StdEPReq+0x84>
                if ((ep_addr != 0x00U) &&
 8005322:	f010 0f7f 	tst.w	r0, #127	; 0x7f
 8005326:	d001      	beq.n	800532c <USBD_StdEPReq+0x84>
                    (ep_addr != 0x80U) && (req->wLength == 0x00U))
 8005328:	88cb      	ldrh	r3, [r1, #6]
 800532a:	b11b      	cbz	r3, 8005334 <USBD_StdEPReq+0x8c>
              USBD_CtlSendStatus(pdev);
 800532c:	4620      	mov	r0, r4
 800532e:	f000 f8de 	bl	80054ee <USBD_CtlSendStatus>
              break;
 8005332:	e7cc      	b.n	80052ce <USBD_StdEPReq+0x26>
                  USBD_LL_StallEP(pdev, ep_addr);
 8005334:	4601      	mov	r1, r0
 8005336:	4620      	mov	r0, r4
 8005338:	f000 fb49 	bl	80059ce <USBD_LL_StallEP>
 800533c:	e7f6      	b.n	800532c <USBD_StdEPReq+0x84>
          switch (pdev->dev_state)
 800533e:	f894 329c 	ldrb.w	r3, [r4, #668]	; 0x29c
 8005342:	2b02      	cmp	r3, #2
 8005344:	d005      	beq.n	8005352 <USBD_StdEPReq+0xaa>
 8005346:	2b03      	cmp	r3, #3
 8005348:	d013      	beq.n	8005372 <USBD_StdEPReq+0xca>
              USBD_CtlError(pdev, req);
 800534a:	4620      	mov	r0, r4
 800534c:	f7ff fdb9 	bl	8004ec2 <USBD_CtlError>
              break;
 8005350:	e7bd      	b.n	80052ce <USBD_StdEPReq+0x26>
              if ((ep_addr != 0x00U) && (ep_addr != 0x80U))
 8005352:	f010 0f7f 	tst.w	r0, #127	; 0x7f
 8005356:	d008      	beq.n	800536a <USBD_StdEPReq+0xc2>
                USBD_LL_StallEP(pdev, ep_addr);
 8005358:	4601      	mov	r1, r0
 800535a:	4620      	mov	r0, r4
 800535c:	f000 fb37 	bl	80059ce <USBD_LL_StallEP>
                USBD_LL_StallEP(pdev, 0x80U);
 8005360:	2180      	movs	r1, #128	; 0x80
 8005362:	4620      	mov	r0, r4
 8005364:	f000 fb33 	bl	80059ce <USBD_LL_StallEP>
 8005368:	e7b1      	b.n	80052ce <USBD_StdEPReq+0x26>
                USBD_CtlError(pdev, req);
 800536a:	4620      	mov	r0, r4
 800536c:	f7ff fda9 	bl	8004ec2 <USBD_CtlError>
 8005370:	e7ad      	b.n	80052ce <USBD_StdEPReq+0x26>
              if (req->wValue == USB_FEATURE_EP_HALT)
 8005372:	884b      	ldrh	r3, [r1, #2]
 8005374:	2b00      	cmp	r3, #0
 8005376:	d1aa      	bne.n	80052ce <USBD_StdEPReq+0x26>
                if ((ep_addr & 0x7FU) != 0x00U)
 8005378:	f010 0f7f 	tst.w	r0, #127	; 0x7f
 800537c:	d103      	bne.n	8005386 <USBD_StdEPReq+0xde>
                USBD_CtlSendStatus(pdev);
 800537e:	4620      	mov	r0, r4
 8005380:	f000 f8b5 	bl	80054ee <USBD_CtlSendStatus>
 8005384:	e7a3      	b.n	80052ce <USBD_StdEPReq+0x26>
                  USBD_LL_ClearStallEP(pdev, ep_addr);
 8005386:	4601      	mov	r1, r0
 8005388:	4620      	mov	r0, r4
 800538a:	f000 fb28 	bl	80059de <USBD_LL_ClearStallEP>
 800538e:	e7f6      	b.n	800537e <USBD_StdEPReq+0xd6>
          switch (pdev->dev_state)
 8005390:	f894 329c 	ldrb.w	r3, [r4, #668]	; 0x29c
 8005394:	2b02      	cmp	r3, #2
 8005396:	d005      	beq.n	80053a4 <USBD_StdEPReq+0xfc>
 8005398:	2b03      	cmp	r3, #3
 800539a:	d018      	beq.n	80053ce <USBD_StdEPReq+0x126>
              USBD_CtlError(pdev, req);
 800539c:	4620      	mov	r0, r4
 800539e:	f7ff fd90 	bl	8004ec2 <USBD_CtlError>
              break;
 80053a2:	e794      	b.n	80052ce <USBD_StdEPReq+0x26>
              if ((ep_addr != 0x00U) && (ep_addr != 0x80U))
 80053a4:	f010 0f7f 	tst.w	r0, #127	; 0x7f
 80053a8:	d003      	beq.n	80053b2 <USBD_StdEPReq+0x10a>
                USBD_CtlError(pdev, req);
 80053aa:	4620      	mov	r0, r4
 80053ac:	f7ff fd89 	bl	8004ec2 <USBD_CtlError>
                break;
 80053b0:	e78d      	b.n	80052ce <USBD_StdEPReq+0x26>
              pep = ((ep_addr & 0x80U) == 0x80U) ? &pdev->ep_in[ep_addr & 0x7FU] : \
 80053b2:	f012 0f80 	tst.w	r2, #128	; 0x80
 80053b6:	bf14      	ite	ne
 80053b8:	f104 0114 	addne.w	r1, r4, #20
 80053bc:	f504 71aa 	addeq.w	r1, r4, #340	; 0x154
              pep->status = 0x0000U;
 80053c0:	2300      	movs	r3, #0
 80053c2:	600b      	str	r3, [r1, #0]
              USBD_CtlSendData(pdev, (uint8_t *)(void *)&pep->status, 2U);
 80053c4:	2202      	movs	r2, #2
 80053c6:	4620      	mov	r0, r4
 80053c8:	f000 f865 	bl	8005496 <USBD_CtlSendData>
              break;
 80053cc:	e77f      	b.n	80052ce <USBD_StdEPReq+0x26>
              if ((ep_addr & 0x80U) == 0x80U)
 80053ce:	f012 0f80 	tst.w	r2, #128	; 0x80
 80053d2:	d11b      	bne.n	800540c <USBD_StdEPReq+0x164>
                if (pdev->ep_out[ep_addr & 0xFU].is_used == 0U)
 80053d4:	f000 030f 	and.w	r3, r0, #15
 80053d8:	eb03 0383 	add.w	r3, r3, r3, lsl #2
 80053dc:	eb04 0383 	add.w	r3, r4, r3, lsl #2
 80053e0:	f8d3 3158 	ldr.w	r3, [r3, #344]	; 0x158
 80053e4:	b333      	cbz	r3, 8005434 <USBD_StdEPReq+0x18c>
                    &pdev->ep_out[ep_addr & 0x7FU];
 80053e6:	f000 037f 	and.w	r3, r0, #127	; 0x7f
              pep = ((ep_addr & 0x80U) == 0x80U) ? &pdev->ep_in[ep_addr & 0x7FU] : \
 80053ea:	eb03 0383 	add.w	r3, r3, r3, lsl #2
 80053ee:	eb04 0583 	add.w	r5, r4, r3, lsl #2
 80053f2:	f505 75aa 	add.w	r5, r5, #340	; 0x154
              if ((ep_addr == 0x00U) || (ep_addr == 0x80U))
 80053f6:	f010 0f7f 	tst.w	r0, #127	; 0x7f
 80053fa:	d01f      	beq.n	800543c <USBD_StdEPReq+0x194>
              else if (USBD_LL_IsStallEP(pdev, ep_addr))
 80053fc:	4601      	mov	r1, r0
 80053fe:	4620      	mov	r0, r4
 8005400:	f000 faf5 	bl	80059ee <USBD_LL_IsStallEP>
 8005404:	3800      	subs	r0, #0
 8005406:	bf18      	it	ne
 8005408:	2001      	movne	r0, #1
 800540a:	e018      	b.n	800543e <USBD_StdEPReq+0x196>
                if (pdev->ep_in[ep_addr & 0xFU].is_used == 0U)
 800540c:	f000 030f 	and.w	r3, r0, #15
 8005410:	eb03 0383 	add.w	r3, r3, r3, lsl #2
 8005414:	eb04 0383 	add.w	r3, r4, r3, lsl #2
 8005418:	699b      	ldr	r3, [r3, #24]
 800541a:	b13b      	cbz	r3, 800542c <USBD_StdEPReq+0x184>
              pep = ((ep_addr & 0x80U) == 0x80U) ? &pdev->ep_in[ep_addr & 0x7FU] : \
 800541c:	f000 057f 	and.w	r5, r0, #127	; 0x7f
 8005420:	3501      	adds	r5, #1
 8005422:	eb05 0585 	add.w	r5, r5, r5, lsl #2
 8005426:	eb04 0585 	add.w	r5, r4, r5, lsl #2
 800542a:	e7e4      	b.n	80053f6 <USBD_StdEPReq+0x14e>
                  USBD_CtlError(pdev, req);
 800542c:	4620      	mov	r0, r4
 800542e:	f7ff fd48 	bl	8004ec2 <USBD_CtlError>
                  break;
 8005432:	e74c      	b.n	80052ce <USBD_StdEPReq+0x26>
                  USBD_CtlError(pdev, req);
 8005434:	4620      	mov	r0, r4
 8005436:	f7ff fd44 	bl	8004ec2 <USBD_CtlError>
                  break;
 800543a:	e748      	b.n	80052ce <USBD_StdEPReq+0x26>
 800543c:	2000      	movs	r0, #0
                pep->status = 0x0000U;
 800543e:	6028      	str	r0, [r5, #0]
              USBD_CtlSendData(pdev, (uint8_t *)(void *)&pep->status, 2U);
 8005440:	2202      	movs	r2, #2
 8005442:	4629      	mov	r1, r5
 8005444:	4620      	mov	r0, r4
 8005446:	f000 f826 	bl	8005496 <USBD_CtlSendData>
              break;
 800544a:	e740      	b.n	80052ce <USBD_StdEPReq+0x26>

0800544c <USBD_GetString>:
  */
void USBD_GetString(uint8_t *desc, uint8_t *unicode, uint16_t *len)
{
  uint8_t idx = 0U;

  if (desc != NULL)
 800544c:	b310      	cbz	r0, 8005494 <USBD_GetString+0x48>
{
 800544e:	b510      	push	{r4, lr}
 8005450:	4684      	mov	ip, r0
  */
static uint8_t USBD_GetLen(uint8_t *buf)
{
  uint8_t  len = 0U;

  while (*buf != '\0')
 8005452:	7803      	ldrb	r3, [r0, #0]
 8005454:	b143      	cbz	r3, 8005468 <USBD_GetString+0x1c>
 8005456:	f1c0 0e01 	rsb	lr, r0, #1
  {
    len++;
 800545a:	eb00 030e 	add.w	r3, r0, lr
 800545e:	b2db      	uxtb	r3, r3
  while (*buf != '\0')
 8005460:	f810 4f01 	ldrb.w	r4, [r0, #1]!
 8005464:	2c00      	cmp	r4, #0
 8005466:	d1f8      	bne.n	800545a <USBD_GetString+0xe>
    *len = (uint16_t)USBD_GetLen(desc) * 2U + 2U;
 8005468:	005b      	lsls	r3, r3, #1
 800546a:	3302      	adds	r3, #2
 800546c:	8013      	strh	r3, [r2, #0]
    unicode[idx++] = *(uint8_t *)(void *)len;
 800546e:	700b      	strb	r3, [r1, #0]
    unicode[idx++] = USB_DESC_TYPE_STRING;
 8005470:	2303      	movs	r3, #3
 8005472:	704b      	strb	r3, [r1, #1]
    while (*desc != '\0')
 8005474:	f89c 0000 	ldrb.w	r0, [ip]
 8005478:	b158      	cbz	r0, 8005492 <USBD_GetString+0x46>
    unicode[idx++] = USB_DESC_TYPE_STRING;
 800547a:	2302      	movs	r3, #2
      unicode[idx++] =  0U;
 800547c:	2400      	movs	r4, #0
      unicode[idx++] = *desc++;
 800547e:	1c5a      	adds	r2, r3, #1
 8005480:	b2d2      	uxtb	r2, r2
 8005482:	54c8      	strb	r0, [r1, r3]
      unicode[idx++] =  0U;
 8005484:	3302      	adds	r3, #2
 8005486:	b2db      	uxtb	r3, r3
 8005488:	548c      	strb	r4, [r1, r2]
    while (*desc != '\0')
 800548a:	f81c 0f01 	ldrb.w	r0, [ip, #1]!
 800548e:	2800      	cmp	r0, #0
 8005490:	d1f5      	bne.n	800547e <USBD_GetString+0x32>
}
 8005492:	bd10      	pop	{r4, pc}
 8005494:	4770      	bx	lr

08005496 <USBD_CtlSendData>:
* @param  len: length of data to be sent
* @retval status
*/
USBD_StatusTypeDef USBD_CtlSendData(USBD_HandleTypeDef *pdev,
                                    uint8_t *pbuf, uint16_t len)
{
 8005496:	b508      	push	{r3, lr}
 8005498:	4613      	mov	r3, r2
  /* Set EP0 State */
  pdev->ep0_state = USBD_EP0_DATA_IN;
 800549a:	2202      	movs	r2, #2
 800549c:	f8c0 2294 	str.w	r2, [r0, #660]	; 0x294
  pdev->ep_in[0].total_length = len;
 80054a0:	61c3      	str	r3, [r0, #28]
  pdev->ep_in[0].rem_length   = len;
 80054a2:	6203      	str	r3, [r0, #32]

  /* Start the transfer */
  USBD_LL_Transmit(pdev, 0x00U, pbuf, len);
 80054a4:	460a      	mov	r2, r1
 80054a6:	2100      	movs	r1, #0
 80054a8:	f000 fac0 	bl	8005a2c <USBD_LL_Transmit>

  return USBD_OK;
}
 80054ac:	2000      	movs	r0, #0
 80054ae:	bd08      	pop	{r3, pc}

080054b0 <USBD_CtlContinueSendData>:
* @param  len: length of data to be sent
* @retval status
*/
USBD_StatusTypeDef USBD_CtlContinueSendData(USBD_HandleTypeDef *pdev,
                                            uint8_t *pbuf, uint16_t len)
{
 80054b0:	b508      	push	{r3, lr}
 80054b2:	4613      	mov	r3, r2
  /* Start the next transfer */
  USBD_LL_Transmit(pdev, 0x00U, pbuf, len);
 80054b4:	460a      	mov	r2, r1
 80054b6:	2100      	movs	r1, #0
 80054b8:	f000 fab8 	bl	8005a2c <USBD_LL_Transmit>

  return USBD_OK;
}
 80054bc:	2000      	movs	r0, #0
 80054be:	bd08      	pop	{r3, pc}

080054c0 <USBD_CtlPrepareRx>:
* @param  len: length of data to be received
* @retval status
*/
USBD_StatusTypeDef USBD_CtlPrepareRx(USBD_HandleTypeDef *pdev,
                                     uint8_t *pbuf, uint16_t len)
{
 80054c0:	b508      	push	{r3, lr}
 80054c2:	4613      	mov	r3, r2
  /* Set EP0 State */
  pdev->ep0_state = USBD_EP0_DATA_OUT;
 80054c4:	2203      	movs	r2, #3
 80054c6:	f8c0 2294 	str.w	r2, [r0, #660]	; 0x294
  pdev->ep_out[0].total_length = len;
 80054ca:	f8c0 315c 	str.w	r3, [r0, #348]	; 0x15c
  pdev->ep_out[0].rem_length   = len;
 80054ce:	f8c0 3160 	str.w	r3, [r0, #352]	; 0x160

  /* Start the transfer */
  USBD_LL_PrepareReceive(pdev, 0U, pbuf, len);
 80054d2:	460a      	mov	r2, r1
 80054d4:	2100      	movs	r1, #0
 80054d6:	f000 fab1 	bl	8005a3c <USBD_LL_PrepareReceive>

  return USBD_OK;
}
 80054da:	2000      	movs	r0, #0
 80054dc:	bd08      	pop	{r3, pc}

080054de <USBD_CtlContinueRx>:
* @param  len: length of data to be received
* @retval status
*/
USBD_StatusTypeDef USBD_CtlContinueRx(USBD_HandleTypeDef *pdev,
                                      uint8_t *pbuf, uint16_t len)
{
 80054de:	b508      	push	{r3, lr}
 80054e0:	4613      	mov	r3, r2
  USBD_LL_PrepareReceive(pdev, 0U, pbuf, len);
 80054e2:	460a      	mov	r2, r1
 80054e4:	2100      	movs	r1, #0
 80054e6:	f000 faa9 	bl	8005a3c <USBD_LL_PrepareReceive>

  return USBD_OK;
}
 80054ea:	2000      	movs	r0, #0
 80054ec:	bd08      	pop	{r3, pc}

080054ee <USBD_CtlSendStatus>:
*         send zero lzngth packet on the ctl pipe
* @param  pdev: device instance
* @retval status
*/
USBD_StatusTypeDef USBD_CtlSendStatus(USBD_HandleTypeDef *pdev)
{
 80054ee:	b508      	push	{r3, lr}
  /* Set EP0 State */
  pdev->ep0_state = USBD_EP0_STATUS_IN;
 80054f0:	2304      	movs	r3, #4
 80054f2:	f8c0 3294 	str.w	r3, [r0, #660]	; 0x294

  /* Start the transfer */
  USBD_LL_Transmit(pdev, 0x00U, NULL, 0U);
 80054f6:	2300      	movs	r3, #0
 80054f8:	461a      	mov	r2, r3
 80054fa:	4619      	mov	r1, r3
 80054fc:	f000 fa96 	bl	8005a2c <USBD_LL_Transmit>

  return USBD_OK;
}
 8005500:	2000      	movs	r0, #0
 8005502:	bd08      	pop	{r3, pc}

08005504 <USBD_CtlReceiveStatus>:
*         receive zero lzngth packet on the ctl pipe
* @param  pdev: device instance
* @retval status
*/
USBD_StatusTypeDef USBD_CtlReceiveStatus(USBD_HandleTypeDef *pdev)
{
 8005504:	b508      	push	{r3, lr}
  /* Set EP0 State */
  pdev->ep0_state = USBD_EP0_STATUS_OUT;
 8005506:	2305      	movs	r3, #5
 8005508:	f8c0 3294 	str.w	r3, [r0, #660]	; 0x294

  /* Start the transfer */
  USBD_LL_PrepareReceive(pdev, 0U, NULL, 0U);
 800550c:	2300      	movs	r3, #0
 800550e:	461a      	mov	r2, r3
 8005510:	4619      	mov	r1, r3
 8005512:	f000 fa93 	bl	8005a3c <USBD_LL_PrepareReceive>

  return USBD_OK;
}
 8005516:	2000      	movs	r0, #0
 8005518:	bd08      	pop	{r3, pc}
	...

0800551c <MX_USB_DEVICE_Init>:
/**
  * Init USB device Library, add supported class and start the library
  * @retval None
  */
void MX_USB_DEVICE_Init(void)
{
 800551c:	b508      	push	{r3, lr}
  /* USER CODE BEGIN USB_DEVICE_Init_PreTreatment */

  /* USER CODE END USB_DEVICE_Init_PreTreatment */

  /* Init Device Library, add supported class and start the library. */
  if (USBD_Init(&hUsbDeviceFS, &FS_Desc, DEVICE_FS) != USBD_OK)
 800551e:	2200      	movs	r2, #0
 8005520:	490f      	ldr	r1, [pc, #60]	; (8005560 <MX_USB_DEVICE_Init+0x44>)
 8005522:	4810      	ldr	r0, [pc, #64]	; (8005564 <MX_USB_DEVICE_Init+0x48>)
 8005524:	f7ff fb5e 	bl	8004be4 <USBD_Init>
 8005528:	b970      	cbnz	r0, 8005548 <MX_USB_DEVICE_Init+0x2c>
  {
    Error_Handler();
  }
  if (USBD_RegisterClass(&hUsbDeviceFS, &USBD_CDC) != USBD_OK)
 800552a:	490f      	ldr	r1, [pc, #60]	; (8005568 <MX_USB_DEVICE_Init+0x4c>)
 800552c:	480d      	ldr	r0, [pc, #52]	; (8005564 <MX_USB_DEVICE_Init+0x48>)
 800552e:	f7ff fb70 	bl	8004c12 <USBD_RegisterClass>
 8005532:	b960      	cbnz	r0, 800554e <MX_USB_DEVICE_Init+0x32>
  {
    Error_Handler();
  }
  if (USBD_CDC_RegisterInterface(&hUsbDeviceFS, &USBD_Interface_fops_FS) != USBD_OK)
 8005534:	490d      	ldr	r1, [pc, #52]	; (800556c <MX_USB_DEVICE_Init+0x50>)
 8005536:	480b      	ldr	r0, [pc, #44]	; (8005564 <MX_USB_DEVICE_Init+0x48>)
 8005538:	f7ff fb0c 	bl	8004b54 <USBD_CDC_RegisterInterface>
 800553c:	b950      	cbnz	r0, 8005554 <MX_USB_DEVICE_Init+0x38>
  {
    Error_Handler();
  }
  if (USBD_Start(&hUsbDeviceFS) != USBD_OK)
 800553e:	4809      	ldr	r0, [pc, #36]	; (8005564 <MX_USB_DEVICE_Init+0x48>)
 8005540:	f7ff fb6e 	bl	8004c20 <USBD_Start>
 8005544:	b948      	cbnz	r0, 800555a <MX_USB_DEVICE_Init+0x3e>
  }

  /* USER CODE BEGIN USB_DEVICE_Init_PostTreatment */

  /* USER CODE END USB_DEVICE_Init_PostTreatment */
}
 8005546:	bd08      	pop	{r3, pc}
    Error_Handler();
 8005548:	f7fb f8fe 	bl	8000748 <Error_Handler>
 800554c:	e7ed      	b.n	800552a <MX_USB_DEVICE_Init+0xe>
    Error_Handler();
 800554e:	f7fb f8fb 	bl	8000748 <Error_Handler>
 8005552:	e7ef      	b.n	8005534 <MX_USB_DEVICE_Init+0x18>
    Error_Handler();
 8005554:	f7fb f8f8 	bl	8000748 <Error_Handler>
 8005558:	e7f1      	b.n	800553e <MX_USB_DEVICE_Init+0x22>
    Error_Handler();
 800555a:	f7fb f8f5 	bl	8000748 <Error_Handler>
}
 800555e:	e7f2      	b.n	8005546 <MX_USB_DEVICE_Init+0x2a>
 8005560:	20000188 	.word	0x20000188
 8005564:	20000424 	.word	0x20000424
 8005568:	2000005c 	.word	0x2000005c
 800556c:	2000016c 	.word	0x2000016c

08005570 <CDC_DeInit_FS>:
static int8_t CDC_DeInit_FS(void)
{
  /* USER CODE BEGIN 4 */
  return (USBD_OK);
  /* USER CODE END 4 */
}
 8005570:	2000      	movs	r0, #0
 8005572:	4770      	bx	lr

08005574 <CDC_Receive_FS>:
  * @param  Buf: Buffer of data to be received
  * @param  Len: Number of data received (in bytes)
  * @retval Result of the operation: USBD_OK if all operations are OK else USBD_FAIL
  */
static int8_t CDC_Receive_FS(uint8_t* Buf, uint32_t *Len)
{
 8005574:	e92d 47f0 	stmdb	sp!, {r4, r5, r6, r7, r8, r9, sl, lr}
 8005578:	4607      	mov	r7, r0
 800557a:	4688      	mov	r8, r1
  /* USER CODE BEGIN 6 */
  USBD_CDC_SetRxBuffer(&hUsbDeviceFS, &Buf[0]);
 800557c:	4c25      	ldr	r4, [pc, #148]	; (8005614 <CDC_Receive_FS+0xa0>)
 800557e:	4601      	mov	r1, r0
 8005580:	4620      	mov	r0, r4
 8005582:	f7ff faf6 	bl	8004b72 <USBD_CDC_SetRxBuffer>
  USBD_CDC_ReceivePacket(&hUsbDeviceFS);
 8005586:	4620      	mov	r0, r4
 8005588:	f7ff fb13 	bl	8004bb2 <USBD_CDC_ReceivePacket>
  //COBS decode
  for(uint32_t i=0;i<*Len;i++)
 800558c:	f8d8 3000 	ldr.w	r3, [r8]
 8005590:	2b00      	cmp	r3, #0
 8005592:	d03b      	beq.n	800560c <CDC_Receive_FS+0x98>
 8005594:	1e7c      	subs	r4, r7, #1
  {
	zero_count--;
 8005596:	4d20      	ldr	r5, [pc, #128]	; (8005618 <CDC_Receive_FS+0xa4>)
        //reset
        zero_count=0;
      }
      data_index=0;
    }else{
      if(is_first==1){
 8005598:	f8df 9088 	ldr.w	r9, [pc, #136]	; 8005624 <CDC_Receive_FS+0xb0>
    	DecodedData[data_index]=0x00;
        zero_count=Buf[i];
      }else{
    	DecodedData[data_index]=Buf[i];
      }
      data_index++;
 800559c:	4e1f      	ldr	r6, [pc, #124]	; (800561c <CDC_Receive_FS+0xa8>)
 800559e:	e00d      	b.n	80055bc <CDC_Receive_FS+0x48>
    	usb_process(DecodedData,data_index);
 80055a0:	7831      	ldrb	r1, [r6, #0]
 80055a2:	481f      	ldr	r0, [pc, #124]	; (8005620 <CDC_Receive_FS+0xac>)
 80055a4:	f7fa ffbc 	bl	8000520 <usb_process>
      data_index=0;
 80055a8:	2300      	movs	r3, #0
 80055aa:	7033      	strb	r3, [r6, #0]
  for(uint32_t i=0;i<*Len;i++)
 80055ac:	f10a 0a02 	add.w	sl, sl, #2
 80055b0:	ebaa 0a07 	sub.w	sl, sl, r7
 80055b4:	f8d8 3000 	ldr.w	r3, [r8]
 80055b8:	4553      	cmp	r3, sl
 80055ba:	d927      	bls.n	800560c <CDC_Receive_FS+0x98>
	zero_count--;
 80055bc:	782b      	ldrb	r3, [r5, #0]
 80055be:	3b01      	subs	r3, #1
 80055c0:	b2db      	uxtb	r3, r3
 80055c2:	702b      	strb	r3, [r5, #0]
    if(Buf[i]=='\0'){
 80055c4:	46a2      	mov	sl, r4
 80055c6:	3401      	adds	r4, #1
 80055c8:	7822      	ldrb	r2, [r4, #0]
 80055ca:	b93a      	cbnz	r2, 80055dc <CDC_Receive_FS+0x68>
      is_first = 1;
 80055cc:	2201      	movs	r2, #1
 80055ce:	f889 2000 	strb.w	r2, [r9]
      if(zero_count==0){
 80055d2:	2b00      	cmp	r3, #0
 80055d4:	d0e4      	beq.n	80055a0 <CDC_Receive_FS+0x2c>
        zero_count=0;
 80055d6:	2300      	movs	r3, #0
 80055d8:	702b      	strb	r3, [r5, #0]
 80055da:	e7e5      	b.n	80055a8 <CDC_Receive_FS+0x34>
      if(is_first==1){
 80055dc:	f899 0000 	ldrb.w	r0, [r9]
 80055e0:	2801      	cmp	r0, #1
 80055e2:	d00a      	beq.n	80055fa <CDC_Receive_FS+0x86>
      if(zero_count==0){
 80055e4:	b973      	cbnz	r3, 8005604 <CDC_Receive_FS+0x90>
    	DecodedData[data_index]=0x00;
 80055e6:	7833      	ldrb	r3, [r6, #0]
 80055e8:	4a0d      	ldr	r2, [pc, #52]	; (8005620 <CDC_Receive_FS+0xac>)
 80055ea:	2000      	movs	r0, #0
 80055ec:	54d0      	strb	r0, [r2, r3]
        zero_count=Buf[i];
 80055ee:	7823      	ldrb	r3, [r4, #0]
 80055f0:	702b      	strb	r3, [r5, #0]
      data_index++;
 80055f2:	7833      	ldrb	r3, [r6, #0]
 80055f4:	3301      	adds	r3, #1
 80055f6:	7033      	strb	r3, [r6, #0]
 80055f8:	e7d8      	b.n	80055ac <CDC_Receive_FS+0x38>
    	  zero_count = Buf[i];
 80055fa:	702a      	strb	r2, [r5, #0]
    	  is_first = 0;
 80055fc:	2300      	movs	r3, #0
 80055fe:	f889 3000 	strb.w	r3, [r9]
    	  continue;
 8005602:	e7d3      	b.n	80055ac <CDC_Receive_FS+0x38>
    	DecodedData[data_index]=Buf[i];
 8005604:	7833      	ldrb	r3, [r6, #0]
 8005606:	4906      	ldr	r1, [pc, #24]	; (8005620 <CDC_Receive_FS+0xac>)
 8005608:	54ca      	strb	r2, [r1, r3]
 800560a:	e7f2      	b.n	80055f2 <CDC_Receive_FS+0x7e>
    }
  }
  
  return (USBD_OK);
  /* USER CODE END 6 */
}
 800560c:	2000      	movs	r0, #0
 800560e:	e8bd 87f0 	ldmia.w	sp!, {r4, r5, r6, r7, r8, r9, sl, pc}
 8005612:	bf00      	nop
 8005614:	20000424 	.word	0x20000424
 8005618:	20000184 	.word	0x20000184
 800561c:	20000f28 	.word	0x20000f28
 8005620:	200006e8 	.word	0x200006e8
 8005624:	20000f29 	.word	0x20000f29

08005628 <CDC_Control_FS>:
{
 8005628:	b510      	push	{r4, lr}
 800562a:	460c      	mov	r4, r1
  switch(cmd)
 800562c:	2820      	cmp	r0, #32
 800562e:	d003      	beq.n	8005638 <CDC_Control_FS+0x10>
 8005630:	2821      	cmp	r0, #33	; 0x21
 8005632:	d019      	beq.n	8005668 <CDC_Control_FS+0x40>
}
 8005634:	2000      	movs	r0, #0
 8005636:	bd10      	pop	{r4, pc}
    	HAL_GPIO_WritePin(GPIOB,LED_GREEN_Pin,GPIO_PIN_SET);
 8005638:	2201      	movs	r2, #1
 800563a:	2120      	movs	r1, #32
 800563c:	4815      	ldr	r0, [pc, #84]	; (8005694 <CDC_Control_FS+0x6c>)
 800563e:	f7fc f86d 	bl	800171c <HAL_GPIO_WritePin>
      linecoding.bitrate    = (uint32_t)(pbuf[0] | (pbuf[1] << 8) |\
 8005642:	4a15      	ldr	r2, [pc, #84]	; (8005698 <CDC_Control_FS+0x70>)
 8005644:	7861      	ldrb	r1, [r4, #1]
                                         (pbuf[2] << 16) | (pbuf[3] << 24));
 8005646:	78a3      	ldrb	r3, [r4, #2]
 8005648:	041b      	lsls	r3, r3, #16
      linecoding.bitrate    = (uint32_t)(pbuf[0] | (pbuf[1] << 8) |\
 800564a:	ea43 2301 	orr.w	r3, r3, r1, lsl #8
 800564e:	7821      	ldrb	r1, [r4, #0]
 8005650:	430b      	orrs	r3, r1
                                         (pbuf[2] << 16) | (pbuf[3] << 24));
 8005652:	78e1      	ldrb	r1, [r4, #3]
 8005654:	ea43 6301 	orr.w	r3, r3, r1, lsl #24
      linecoding.bitrate    = (uint32_t)(pbuf[0] | (pbuf[1] << 8) |\
 8005658:	6013      	str	r3, [r2, #0]
      linecoding.format     = pbuf[4];
 800565a:	7923      	ldrb	r3, [r4, #4]
 800565c:	7113      	strb	r3, [r2, #4]
      linecoding.paritytype = pbuf[5];
 800565e:	7963      	ldrb	r3, [r4, #5]
 8005660:	7153      	strb	r3, [r2, #5]
      linecoding.datatype   = pbuf[6];
 8005662:	79a3      	ldrb	r3, [r4, #6]
 8005664:	7193      	strb	r3, [r2, #6]
    break;
 8005666:	e7e5      	b.n	8005634 <CDC_Control_FS+0xc>
    	HAL_GPIO_WritePin(GPIOB,LED_GREEN_Pin,GPIO_PIN_SET);
 8005668:	2201      	movs	r2, #1
 800566a:	2120      	movs	r1, #32
 800566c:	4809      	ldr	r0, [pc, #36]	; (8005694 <CDC_Control_FS+0x6c>)
 800566e:	f7fc f855 	bl	800171c <HAL_GPIO_WritePin>
      pbuf[0] = (uint8_t)(linecoding.bitrate);
 8005672:	4b09      	ldr	r3, [pc, #36]	; (8005698 <CDC_Control_FS+0x70>)
 8005674:	681a      	ldr	r2, [r3, #0]
 8005676:	7022      	strb	r2, [r4, #0]
      pbuf[1] = (uint8_t)(linecoding.bitrate >> 8);
 8005678:	681a      	ldr	r2, [r3, #0]
 800567a:	0a12      	lsrs	r2, r2, #8
 800567c:	7062      	strb	r2, [r4, #1]
      pbuf[2] = (uint8_t)(linecoding.bitrate >> 16);
 800567e:	885a      	ldrh	r2, [r3, #2]
 8005680:	70a2      	strb	r2, [r4, #2]
      pbuf[3] = (uint8_t)(linecoding.bitrate >> 24);
 8005682:	78da      	ldrb	r2, [r3, #3]
 8005684:	70e2      	strb	r2, [r4, #3]
      pbuf[4] = linecoding.format;
 8005686:	791a      	ldrb	r2, [r3, #4]
 8005688:	7122      	strb	r2, [r4, #4]
      pbuf[5] = linecoding.paritytype;
 800568a:	795a      	ldrb	r2, [r3, #5]
 800568c:	7162      	strb	r2, [r4, #5]
      pbuf[6] = linecoding.datatype;
 800568e:	799b      	ldrb	r3, [r3, #6]
 8005690:	71a3      	strb	r3, [r4, #6]
    break;
 8005692:	e7cf      	b.n	8005634 <CDC_Control_FS+0xc>
 8005694:	48000400 	.word	0x48000400
 8005698:	2000017c 	.word	0x2000017c

0800569c <CDC_Init_FS>:
{
 800569c:	b510      	push	{r4, lr}
  USBD_CDC_SetTxBuffer(&hUsbDeviceFS, UserTxBufferFS, 0);
 800569e:	4c06      	ldr	r4, [pc, #24]	; (80056b8 <CDC_Init_FS+0x1c>)
 80056a0:	2200      	movs	r2, #0
 80056a2:	4906      	ldr	r1, [pc, #24]	; (80056bc <CDC_Init_FS+0x20>)
 80056a4:	4620      	mov	r0, r4
 80056a6:	f7ff fa5c 	bl	8004b62 <USBD_CDC_SetTxBuffer>
  USBD_CDC_SetRxBuffer(&hUsbDeviceFS, UserRxBufferFS);
 80056aa:	4905      	ldr	r1, [pc, #20]	; (80056c0 <CDC_Init_FS+0x24>)
 80056ac:	4620      	mov	r0, r4
 80056ae:	f7ff fa60 	bl	8004b72 <USBD_CDC_SetRxBuffer>
}
 80056b2:	2000      	movs	r0, #0
 80056b4:	bd10      	pop	{r4, pc}
 80056b6:	bf00      	nop
 80056b8:	20000424 	.word	0x20000424
 80056bc:	20000b28 	.word	0x20000b28
 80056c0:	20000728 	.word	0x20000728

080056c4 <CDC_Transmit_FS>:
  */
uint8_t CDC_Transmit_FS(uint8_t* Buf, uint16_t Len)
{
  uint8_t result = USBD_OK;
  /* USER CODE BEGIN 7 */
  USBD_CDC_HandleTypeDef *hcdc = (USBD_CDC_HandleTypeDef*)hUsbDeviceFS.pClassData;
 80056c4:	4b09      	ldr	r3, [pc, #36]	; (80056ec <CDC_Transmit_FS+0x28>)
 80056c6:	f8d3 32b8 	ldr.w	r3, [r3, #696]	; 0x2b8
  if (hcdc->TxState != 0){
 80056ca:	f8d3 3214 	ldr.w	r3, [r3, #532]	; 0x214
 80056ce:	b10b      	cbz	r3, 80056d4 <CDC_Transmit_FS+0x10>
    return USBD_BUSY;
 80056d0:	2001      	movs	r0, #1
  }
  USBD_CDC_SetTxBuffer(&hUsbDeviceFS, Buf, Len);
  result = USBD_CDC_TransmitPacket(&hUsbDeviceFS);
  /* USER CODE END 7 */
  return result;
}
 80056d2:	4770      	bx	lr
{
 80056d4:	b510      	push	{r4, lr}
  USBD_CDC_SetTxBuffer(&hUsbDeviceFS, Buf, Len);
 80056d6:	4c05      	ldr	r4, [pc, #20]	; (80056ec <CDC_Transmit_FS+0x28>)
 80056d8:	460a      	mov	r2, r1
 80056da:	4601      	mov	r1, r0
 80056dc:	4620      	mov	r0, r4
 80056de:	f7ff fa40 	bl	8004b62 <USBD_CDC_SetTxBuffer>
  result = USBD_CDC_TransmitPacket(&hUsbDeviceFS);
 80056e2:	4620      	mov	r0, r4
 80056e4:	f7ff fa4b 	bl	8004b7e <USBD_CDC_TransmitPacket>
}
 80056e8:	bd10      	pop	{r4, pc}
 80056ea:	bf00      	nop
 80056ec:	20000424 	.word	0x20000424

080056f0 <USBD_FS_DeviceDescriptor>:
  * @retval Pointer to descriptor buffer
  */
uint8_t * USBD_FS_DeviceDescriptor(USBD_SpeedTypeDef speed, uint16_t *length)
{
  UNUSED(speed);
  *length = sizeof(USBD_FS_DeviceDesc);
 80056f0:	2312      	movs	r3, #18
 80056f2:	800b      	strh	r3, [r1, #0]
  return USBD_FS_DeviceDesc;
}
 80056f4:	4800      	ldr	r0, [pc, #0]	; (80056f8 <USBD_FS_DeviceDescriptor+0x8>)
 80056f6:	4770      	bx	lr
 80056f8:	200001a4 	.word	0x200001a4

080056fc <USBD_FS_LangIDStrDescriptor>:
  * @retval Pointer to descriptor buffer
  */
uint8_t * USBD_FS_LangIDStrDescriptor(USBD_SpeedTypeDef speed, uint16_t *length)
{
  UNUSED(speed);
  *length = sizeof(USBD_LangIDDesc);
 80056fc:	2304      	movs	r3, #4
 80056fe:	800b      	strh	r3, [r1, #0]
  return USBD_LangIDDesc;
}
 8005700:	4800      	ldr	r0, [pc, #0]	; (8005704 <USBD_FS_LangIDStrDescriptor+0x8>)
 8005702:	4770      	bx	lr
 8005704:	200001b8 	.word	0x200001b8

08005708 <IntToUnicode>:
  */
static void IntToUnicode(uint32_t value, uint8_t * pbuf, uint8_t len)
{
  uint8_t idx = 0;

  for (idx = 0; idx < len; idx++)
 8005708:	b1b2      	cbz	r2, 8005738 <IntToUnicode+0x30>
 800570a:	1c4b      	adds	r3, r1, #1
 800570c:	f102 3cff 	add.w	ip, r2, #4294967295
 8005710:	fa5f fc8c 	uxtb.w	ip, ip
 8005714:	3103      	adds	r1, #3
 8005716:	eb01 014c 	add.w	r1, r1, ip, lsl #1
      pbuf[2 * idx] = (value >> 28) + 'A' - 10;
    }

    value = value << 4;

    pbuf[2 * idx + 1] = 0;
 800571a:	f04f 0c00 	mov.w	ip, #0
    if (((value >> 28)) < 0xA)
 800571e:	0f02      	lsrs	r2, r0, #28
 8005720:	f1b0 4f20 	cmp.w	r0, #2684354560	; 0xa0000000
      pbuf[2 * idx] = (value >> 28) + '0';
 8005724:	bf34      	ite	cc
 8005726:	3230      	addcc	r2, #48	; 0x30
      pbuf[2 * idx] = (value >> 28) + 'A' - 10;
 8005728:	3237      	addcs	r2, #55	; 0x37
 800572a:	f803 2c01 	strb.w	r2, [r3, #-1]
    value = value << 4;
 800572e:	0100      	lsls	r0, r0, #4
    pbuf[2 * idx + 1] = 0;
 8005730:	f803 cb02 	strb.w	ip, [r3], #2
  for (idx = 0; idx < len; idx++)
 8005734:	428b      	cmp	r3, r1
 8005736:	d1f2      	bne.n	800571e <IntToUnicode+0x16>
  }
}
 8005738:	4770      	bx	lr
	...

0800573c <USBD_FS_SerialStrDescriptor>:
{
 800573c:	b538      	push	{r3, r4, r5, lr}
  *length = USB_SIZ_STRING_SERIAL;
 800573e:	231a      	movs	r3, #26
 8005740:	800b      	strh	r3, [r1, #0]
  deviceserial0 = *(uint32_t *) DEVICE_ID1;
 8005742:	4b0c      	ldr	r3, [pc, #48]	; (8005774 <USBD_FS_SerialStrDescriptor+0x38>)
 8005744:	f8d3 07ac 	ldr.w	r0, [r3, #1964]	; 0x7ac
  deviceserial0 += deviceserial2;
 8005748:	f8d3 37b4 	ldr.w	r3, [r3, #1972]	; 0x7b4
  if (deviceserial0 != 0)
 800574c:	18c0      	adds	r0, r0, r3
 800574e:	d101      	bne.n	8005754 <USBD_FS_SerialStrDescriptor+0x18>
}
 8005750:	4809      	ldr	r0, [pc, #36]	; (8005778 <USBD_FS_SerialStrDescriptor+0x3c>)
 8005752:	bd38      	pop	{r3, r4, r5, pc}
  deviceserial1 = *(uint32_t *) DEVICE_ID2;
 8005754:	4b07      	ldr	r3, [pc, #28]	; (8005774 <USBD_FS_SerialStrDescriptor+0x38>)
 8005756:	f8d3 57b0 	ldr.w	r5, [r3, #1968]	; 0x7b0
    IntToUnicode(deviceserial0, &USBD_StringSerial[2], 8);
 800575a:	4c07      	ldr	r4, [pc, #28]	; (8005778 <USBD_FS_SerialStrDescriptor+0x3c>)
 800575c:	2208      	movs	r2, #8
 800575e:	1ca1      	adds	r1, r4, #2
 8005760:	f7ff ffd2 	bl	8005708 <IntToUnicode>
    IntToUnicode(deviceserial1, &USBD_StringSerial[18], 4);
 8005764:	2204      	movs	r2, #4
 8005766:	f104 0112 	add.w	r1, r4, #18
 800576a:	4628      	mov	r0, r5
 800576c:	f7ff ffcc 	bl	8005708 <IntToUnicode>
 8005770:	e7ee      	b.n	8005750 <USBD_FS_SerialStrDescriptor+0x14>
 8005772:	bf00      	nop
 8005774:	1ffff000 	.word	0x1ffff000
 8005778:	200001bc 	.word	0x200001bc

0800577c <USBD_FS_ProductStrDescriptor>:
{
 800577c:	b508      	push	{r3, lr}
 800577e:	460a      	mov	r2, r1
    USBD_GetString((uint8_t *)USBD_PRODUCT_STRING_FS, USBD_StrDesc, length);
 8005780:	4902      	ldr	r1, [pc, #8]	; (800578c <USBD_FS_ProductStrDescriptor+0x10>)
 8005782:	4803      	ldr	r0, [pc, #12]	; (8005790 <USBD_FS_ProductStrDescriptor+0x14>)
 8005784:	f7ff fe62 	bl	800544c <USBD_GetString>
}
 8005788:	4800      	ldr	r0, [pc, #0]	; (800578c <USBD_FS_ProductStrDescriptor+0x10>)
 800578a:	bd08      	pop	{r3, pc}
 800578c:	20000f2c 	.word	0x20000f2c
 8005790:	08005b44 	.word	0x08005b44

08005794 <USBD_FS_ManufacturerStrDescriptor>:
{
 8005794:	b510      	push	{r4, lr}
 8005796:	460a      	mov	r2, r1
  USBD_GetString((uint8_t *)USBD_MANUFACTURER_STRING, USBD_StrDesc, length);
 8005798:	4c03      	ldr	r4, [pc, #12]	; (80057a8 <USBD_FS_ManufacturerStrDescriptor+0x14>)
 800579a:	4621      	mov	r1, r4
 800579c:	4803      	ldr	r0, [pc, #12]	; (80057ac <USBD_FS_ManufacturerStrDescriptor+0x18>)
 800579e:	f7ff fe55 	bl	800544c <USBD_GetString>
}
 80057a2:	4620      	mov	r0, r4
 80057a4:	bd10      	pop	{r4, pc}
 80057a6:	bf00      	nop
 80057a8:	20000f2c 	.word	0x20000f2c
 80057ac:	08005b5c 	.word	0x08005b5c

080057b0 <USBD_FS_ConfigStrDescriptor>:
{
 80057b0:	b508      	push	{r3, lr}
 80057b2:	460a      	mov	r2, r1
    USBD_GetString((uint8_t *)USBD_CONFIGURATION_STRING_FS, USBD_StrDesc, length);
 80057b4:	4902      	ldr	r1, [pc, #8]	; (80057c0 <USBD_FS_ConfigStrDescriptor+0x10>)
 80057b6:	4803      	ldr	r0, [pc, #12]	; (80057c4 <USBD_FS_ConfigStrDescriptor+0x14>)
 80057b8:	f7ff fe48 	bl	800544c <USBD_GetString>
}
 80057bc:	4800      	ldr	r0, [pc, #0]	; (80057c0 <USBD_FS_ConfigStrDescriptor+0x10>)
 80057be:	bd08      	pop	{r3, pc}
 80057c0:	20000f2c 	.word	0x20000f2c
 80057c4:	08005b60 	.word	0x08005b60

080057c8 <USBD_FS_InterfaceStrDescriptor>:
{
 80057c8:	b508      	push	{r3, lr}
 80057ca:	460a      	mov	r2, r1
    USBD_GetString((uint8_t *)USBD_INTERFACE_STRING_FS, USBD_StrDesc, length);
 80057cc:	4902      	ldr	r1, [pc, #8]	; (80057d8 <USBD_FS_InterfaceStrDescriptor+0x10>)
 80057ce:	4803      	ldr	r0, [pc, #12]	; (80057dc <USBD_FS_InterfaceStrDescriptor+0x14>)
 80057d0:	f7ff fe3c 	bl	800544c <USBD_GetString>
}
 80057d4:	4800      	ldr	r0, [pc, #0]	; (80057d8 <USBD_FS_InterfaceStrDescriptor+0x10>)
 80057d6:	bd08      	pop	{r3, pc}
 80057d8:	20000f2c 	.word	0x20000f2c
 80057dc:	08005b6c 	.word	0x08005b6c

080057e0 <USBD_Get_USB_Status>:
  */
USBD_StatusTypeDef USBD_Get_USB_Status(HAL_StatusTypeDef hal_status)
{
  USBD_StatusTypeDef usb_status = USBD_OK;

  switch (hal_status)
 80057e0:	b120      	cbz	r0, 80057ec <USBD_Get_USB_Status+0xc>
    break;
    case HAL_ERROR :
      usb_status = USBD_FAIL;
    break;
    case HAL_BUSY :
      usb_status = USBD_BUSY;
 80057e2:	2802      	cmp	r0, #2
 80057e4:	bf14      	ite	ne
 80057e6:	2002      	movne	r0, #2
 80057e8:	2001      	moveq	r0, #1
 80057ea:	4770      	bx	lr
    default :
      usb_status = USBD_FAIL;
    break;
  }
  return usb_status;
}
 80057ec:	4770      	bx	lr
	...

080057f0 <HAL_PCD_MspInit>:
{
 80057f0:	b530      	push	{r4, r5, lr}
 80057f2:	b089      	sub	sp, #36	; 0x24
  GPIO_InitTypeDef GPIO_InitStruct = {0};
 80057f4:	2300      	movs	r3, #0
 80057f6:	9303      	str	r3, [sp, #12]
 80057f8:	9304      	str	r3, [sp, #16]
 80057fa:	9305      	str	r3, [sp, #20]
 80057fc:	9306      	str	r3, [sp, #24]
 80057fe:	9307      	str	r3, [sp, #28]
  if(pcdHandle->Instance==USB)
 8005800:	6802      	ldr	r2, [r0, #0]
 8005802:	4b1a      	ldr	r3, [pc, #104]	; (800586c <HAL_PCD_MspInit+0x7c>)
 8005804:	429a      	cmp	r2, r3
 8005806:	d001      	beq.n	800580c <HAL_PCD_MspInit+0x1c>
}
 8005808:	b009      	add	sp, #36	; 0x24
 800580a:	bd30      	pop	{r4, r5, pc}
    __HAL_RCC_GPIOA_CLK_ENABLE();
 800580c:	4c18      	ldr	r4, [pc, #96]	; (8005870 <HAL_PCD_MspInit+0x80>)
 800580e:	6963      	ldr	r3, [r4, #20]
 8005810:	f443 3300 	orr.w	r3, r3, #131072	; 0x20000
 8005814:	6163      	str	r3, [r4, #20]
 8005816:	6963      	ldr	r3, [r4, #20]
 8005818:	f403 3300 	and.w	r3, r3, #131072	; 0x20000
 800581c:	9301      	str	r3, [sp, #4]
 800581e:	9b01      	ldr	r3, [sp, #4]
    GPIO_InitStruct.Pin = GPIO_PIN_11|GPIO_PIN_12;
 8005820:	f44f 53c0 	mov.w	r3, #6144	; 0x1800
 8005824:	9303      	str	r3, [sp, #12]
    GPIO_InitStruct.Mode = GPIO_MODE_AF_PP;
 8005826:	2302      	movs	r3, #2
 8005828:	9304      	str	r3, [sp, #16]
    GPIO_InitStruct.Speed = GPIO_SPEED_FREQ_HIGH;
 800582a:	2503      	movs	r5, #3
 800582c:	9506      	str	r5, [sp, #24]
    GPIO_InitStruct.Alternate = GPIO_AF14_USB;
 800582e:	230e      	movs	r3, #14
 8005830:	9307      	str	r3, [sp, #28]
    HAL_GPIO_Init(GPIOA, &GPIO_InitStruct);
 8005832:	a903      	add	r1, sp, #12
 8005834:	f04f 4090 	mov.w	r0, #1207959552	; 0x48000000
 8005838:	f7fb fe96 	bl	8001568 <HAL_GPIO_Init>
    __HAL_RCC_USB_CLK_ENABLE();
 800583c:	69e3      	ldr	r3, [r4, #28]
 800583e:	f443 0300 	orr.w	r3, r3, #8388608	; 0x800000
 8005842:	61e3      	str	r3, [r4, #28]
 8005844:	69e3      	ldr	r3, [r4, #28]
 8005846:	f403 0300 	and.w	r3, r3, #8388608	; 0x800000
 800584a:	9302      	str	r3, [sp, #8]
 800584c:	9b02      	ldr	r3, [sp, #8]
    __HAL_REMAPINTERRUPT_USB_ENABLE();
 800584e:	4a09      	ldr	r2, [pc, #36]	; (8005874 <HAL_PCD_MspInit+0x84>)
 8005850:	6813      	ldr	r3, [r2, #0]
 8005852:	f043 0320 	orr.w	r3, r3, #32
 8005856:	6013      	str	r3, [r2, #0]
    HAL_NVIC_SetPriority(USB_LP_IRQn, 3, 0);
 8005858:	2200      	movs	r2, #0
 800585a:	4629      	mov	r1, r5
 800585c:	204b      	movs	r0, #75	; 0x4b
 800585e:	f7fb fe2b 	bl	80014b8 <HAL_NVIC_SetPriority>
    HAL_NVIC_EnableIRQ(USB_LP_IRQn);
 8005862:	204b      	movs	r0, #75	; 0x4b
 8005864:	f7fb fe5e 	bl	8001524 <HAL_NVIC_EnableIRQ>
}
 8005868:	e7ce      	b.n	8005808 <HAL_PCD_MspInit+0x18>
 800586a:	bf00      	nop
 800586c:	40005c00 	.word	0x40005c00
 8005870:	40021000 	.word	0x40021000
 8005874:	40010000 	.word	0x40010000

08005878 <HAL_PCD_SetupStageCallback>:
{
 8005878:	b508      	push	{r3, lr}
  USBD_LL_SetupStage((USBD_HandleTypeDef*)hpcd->pData, (uint8_t *)hpcd->Setup);
 800587a:	f500 712c 	add.w	r1, r0, #688	; 0x2b0
 800587e:	f8d0 02e8 	ldr.w	r0, [r0, #744]	; 0x2e8
 8005882:	f7ff f9e6 	bl	8004c52 <USBD_LL_SetupStage>
}
 8005886:	bd08      	pop	{r3, pc}

08005888 <HAL_PCD_DataOutStageCallback>:
{
 8005888:	b508      	push	{r3, lr}
  USBD_LL_DataOutStage((USBD_HandleTypeDef*)hpcd->pData, epnum, hpcd->OUT_ep[epnum].xfer_buff);
 800588a:	eb01 0381 	add.w	r3, r1, r1, lsl #2
 800588e:	eb00 03c3 	add.w	r3, r0, r3, lsl #3
 8005892:	f8d3 217c 	ldr.w	r2, [r3, #380]	; 0x17c
 8005896:	f8d0 02e8 	ldr.w	r0, [r0, #744]	; 0x2e8
 800589a:	f7ff fa07 	bl	8004cac <USBD_LL_DataOutStage>
}
 800589e:	bd08      	pop	{r3, pc}

080058a0 <HAL_PCD_DataInStageCallback>:
{
 80058a0:	b508      	push	{r3, lr}
  USBD_LL_DataInStage((USBD_HandleTypeDef*)hpcd->pData, epnum, hpcd->IN_ep[epnum].xfer_buff);
 80058a2:	eb01 0381 	add.w	r3, r1, r1, lsl #2
 80058a6:	eb00 03c3 	add.w	r3, r0, r3, lsl #3
 80058aa:	6bda      	ldr	r2, [r3, #60]	; 0x3c
 80058ac:	f8d0 02e8 	ldr.w	r0, [r0, #744]	; 0x2e8
 80058b0:	f7ff fa40 	bl	8004d34 <USBD_LL_DataInStage>
}
 80058b4:	bd08      	pop	{r3, pc}

080058b6 <HAL_PCD_SOFCallback>:
{
 80058b6:	b508      	push	{r3, lr}
  USBD_LL_SOF((USBD_HandleTypeDef*)hpcd->pData);
 80058b8:	f8d0 02e8 	ldr.w	r0, [r0, #744]	; 0x2e8
 80058bc:	f7ff fadf 	bl	8004e7e <USBD_LL_SOF>
}
 80058c0:	bd08      	pop	{r3, pc}

080058c2 <HAL_PCD_ResetCallback>:
{
 80058c2:	b510      	push	{r4, lr}
 80058c4:	4604      	mov	r4, r0
  if ( hpcd->Init.speed != PCD_SPEED_FULL)
 80058c6:	6883      	ldr	r3, [r0, #8]
 80058c8:	2b02      	cmp	r3, #2
 80058ca:	d109      	bne.n	80058e0 <HAL_PCD_ResetCallback+0x1e>
  USBD_LL_SetSpeed((USBD_HandleTypeDef*)hpcd->pData, speed);
 80058cc:	2101      	movs	r1, #1
 80058ce:	f8d4 02e8 	ldr.w	r0, [r4, #744]	; 0x2e8
 80058d2:	f7ff fabe 	bl	8004e52 <USBD_LL_SetSpeed>
  USBD_LL_Reset((USBD_HandleTypeDef*)hpcd->pData);
 80058d6:	f8d4 02e8 	ldr.w	r0, [r4, #744]	; 0x2e8
 80058da:	f7ff fa92 	bl	8004e02 <USBD_LL_Reset>
}
 80058de:	bd10      	pop	{r4, pc}
    Error_Handler();
 80058e0:	f7fa ff32 	bl	8000748 <Error_Handler>
 80058e4:	e7f2      	b.n	80058cc <HAL_PCD_ResetCallback+0xa>
	...

080058e8 <HAL_PCD_SuspendCallback>:
{
 80058e8:	b510      	push	{r4, lr}
 80058ea:	4604      	mov	r4, r0
  USBD_LL_Suspend((USBD_HandleTypeDef*)hpcd->pData);
 80058ec:	f8d0 02e8 	ldr.w	r0, [r0, #744]	; 0x2e8
 80058f0:	f7ff fab2 	bl	8004e58 <USBD_LL_Suspend>
  if (hpcd->Init.low_power_enable)
 80058f4:	69a3      	ldr	r3, [r4, #24]
 80058f6:	b123      	cbz	r3, 8005902 <HAL_PCD_SuspendCallback+0x1a>
    SCB->SCR |= (uint32_t)((uint32_t)(SCB_SCR_SLEEPDEEP_Msk | SCB_SCR_SLEEPONEXIT_Msk));
 80058f8:	4a02      	ldr	r2, [pc, #8]	; (8005904 <HAL_PCD_SuspendCallback+0x1c>)
 80058fa:	6913      	ldr	r3, [r2, #16]
 80058fc:	f043 0306 	orr.w	r3, r3, #6
 8005900:	6113      	str	r3, [r2, #16]
}
 8005902:	bd10      	pop	{r4, pc}
 8005904:	e000ed00 	.word	0xe000ed00

08005908 <HAL_PCD_ResumeCallback>:
{
 8005908:	b508      	push	{r3, lr}
  USBD_LL_Resume((USBD_HandleTypeDef*)hpcd->pData);
 800590a:	f8d0 02e8 	ldr.w	r0, [r0, #744]	; 0x2e8
 800590e:	f7ff faac 	bl	8004e6a <USBD_LL_Resume>
}
 8005912:	bd08      	pop	{r3, pc}

08005914 <USBD_LL_Init>:
{
 8005914:	b510      	push	{r4, lr}
 8005916:	4604      	mov	r4, r0
  hpcd_USB_FS.pData = pdev;
 8005918:	481d      	ldr	r0, [pc, #116]	; (8005990 <USBD_LL_Init+0x7c>)
 800591a:	f8c0 42e8 	str.w	r4, [r0, #744]	; 0x2e8
  pdev->pData = &hpcd_USB_FS;
 800591e:	f8c4 02c0 	str.w	r0, [r4, #704]	; 0x2c0
  hpcd_USB_FS.Instance = USB;
 8005922:	4b1c      	ldr	r3, [pc, #112]	; (8005994 <USBD_LL_Init+0x80>)
 8005924:	6003      	str	r3, [r0, #0]
  hpcd_USB_FS.Init.dev_endpoints = 8;
 8005926:	2308      	movs	r3, #8
 8005928:	6043      	str	r3, [r0, #4]
  hpcd_USB_FS.Init.speed = PCD_SPEED_FULL;
 800592a:	2302      	movs	r3, #2
 800592c:	6083      	str	r3, [r0, #8]
  hpcd_USB_FS.Init.phy_itface = PCD_PHY_EMBEDDED;
 800592e:	6103      	str	r3, [r0, #16]
  hpcd_USB_FS.Init.low_power_enable = DISABLE;
 8005930:	2300      	movs	r3, #0
 8005932:	6183      	str	r3, [r0, #24]
  hpcd_USB_FS.Init.battery_charging_enable = DISABLE;
 8005934:	6203      	str	r3, [r0, #32]
  if (HAL_PCD_Init(&hpcd_USB_FS) != HAL_OK)
 8005936:	f7fb ff05 	bl	8001744 <HAL_PCD_Init>
 800593a:	bb30      	cbnz	r0, 800598a <USBD_LL_Init+0x76>
  HAL_PCDEx_PMAConfig((PCD_HandleTypeDef*)pdev->pData , 0x00 , PCD_SNG_BUF, 0x18);
 800593c:	2318      	movs	r3, #24
 800593e:	2200      	movs	r2, #0
 8005940:	4611      	mov	r1, r2
 8005942:	f8d4 02c0 	ldr.w	r0, [r4, #704]	; 0x2c0
 8005946:	f7fc febf 	bl	80026c8 <HAL_PCDEx_PMAConfig>
  HAL_PCDEx_PMAConfig((PCD_HandleTypeDef*)pdev->pData , 0x80 , PCD_SNG_BUF, 0x58);
 800594a:	2358      	movs	r3, #88	; 0x58
 800594c:	2200      	movs	r2, #0
 800594e:	2180      	movs	r1, #128	; 0x80
 8005950:	f8d4 02c0 	ldr.w	r0, [r4, #704]	; 0x2c0
 8005954:	f7fc feb8 	bl	80026c8 <HAL_PCDEx_PMAConfig>
  HAL_PCDEx_PMAConfig((PCD_HandleTypeDef*)pdev->pData , 0x81 , PCD_SNG_BUF, 0xC0);
 8005958:	23c0      	movs	r3, #192	; 0xc0
 800595a:	2200      	movs	r2, #0
 800595c:	2181      	movs	r1, #129	; 0x81
 800595e:	f8d4 02c0 	ldr.w	r0, [r4, #704]	; 0x2c0
 8005962:	f7fc feb1 	bl	80026c8 <HAL_PCDEx_PMAConfig>
  HAL_PCDEx_PMAConfig((PCD_HandleTypeDef*)pdev->pData , 0x01 , PCD_SNG_BUF, 0x110);
 8005966:	f44f 7388 	mov.w	r3, #272	; 0x110
 800596a:	2200      	movs	r2, #0
 800596c:	2101      	movs	r1, #1
 800596e:	f8d4 02c0 	ldr.w	r0, [r4, #704]	; 0x2c0
 8005972:	f7fc fea9 	bl	80026c8 <HAL_PCDEx_PMAConfig>
  HAL_PCDEx_PMAConfig((PCD_HandleTypeDef*)pdev->pData , 0x82 , PCD_SNG_BUF, 0x100);
 8005976:	f44f 7380 	mov.w	r3, #256	; 0x100
 800597a:	2200      	movs	r2, #0
 800597c:	2182      	movs	r1, #130	; 0x82
 800597e:	f8d4 02c0 	ldr.w	r0, [r4, #704]	; 0x2c0
 8005982:	f7fc fea1 	bl	80026c8 <HAL_PCDEx_PMAConfig>
}
 8005986:	2000      	movs	r0, #0
 8005988:	bd10      	pop	{r4, pc}
    Error_Handler( );
 800598a:	f7fa fedd 	bl	8000748 <Error_Handler>
 800598e:	e7d5      	b.n	800593c <USBD_LL_Init+0x28>
 8005990:	2000112c 	.word	0x2000112c
 8005994:	40005c00 	.word	0x40005c00

08005998 <USBD_LL_Start>:
{
 8005998:	b508      	push	{r3, lr}
  hal_status = HAL_PCD_Start(pdev->pData);
 800599a:	f8d0 02c0 	ldr.w	r0, [r0, #704]	; 0x2c0
 800599e:	f7fb ff35 	bl	800180c <HAL_PCD_Start>
  usb_status =  USBD_Get_USB_Status(hal_status);
 80059a2:	f7ff ff1d 	bl	80057e0 <USBD_Get_USB_Status>
}
 80059a6:	bd08      	pop	{r3, pc}

080059a8 <USBD_LL_OpenEP>:
{
 80059a8:	b508      	push	{r3, lr}
 80059aa:	4694      	mov	ip, r2
 80059ac:	461a      	mov	r2, r3
  hal_status = HAL_PCD_EP_Open(pdev->pData, ep_addr, ep_mps, ep_type);
 80059ae:	4663      	mov	r3, ip
 80059b0:	f8d0 02c0 	ldr.w	r0, [r0, #704]	; 0x2c0
 80059b4:	f7fc fd6a 	bl	800248c <HAL_PCD_EP_Open>
  usb_status =  USBD_Get_USB_Status(hal_status);
 80059b8:	f7ff ff12 	bl	80057e0 <USBD_Get_USB_Status>
}
 80059bc:	bd08      	pop	{r3, pc}

080059be <USBD_LL_CloseEP>:
{
 80059be:	b508      	push	{r3, lr}
  hal_status = HAL_PCD_EP_Close(pdev->pData, ep_addr);
 80059c0:	f8d0 02c0 	ldr.w	r0, [r0, #704]	; 0x2c0
 80059c4:	f7fc fd9b 	bl	80024fe <HAL_PCD_EP_Close>
  usb_status =  USBD_Get_USB_Status(hal_status);
 80059c8:	f7ff ff0a 	bl	80057e0 <USBD_Get_USB_Status>
}
 80059cc:	bd08      	pop	{r3, pc}

080059ce <USBD_LL_StallEP>:
{
 80059ce:	b508      	push	{r3, lr}
  hal_status = HAL_PCD_EP_SetStall(pdev->pData, ep_addr);
 80059d0:	f8d0 02c0 	ldr.w	r0, [r0, #704]	; 0x2c0
 80059d4:	f7fc fe08 	bl	80025e8 <HAL_PCD_EP_SetStall>
  usb_status =  USBD_Get_USB_Status(hal_status);
 80059d8:	f7ff ff02 	bl	80057e0 <USBD_Get_USB_Status>
}
 80059dc:	bd08      	pop	{r3, pc}

080059de <USBD_LL_ClearStallEP>:
{
 80059de:	b508      	push	{r3, lr}
  hal_status = HAL_PCD_EP_ClrStall(pdev->pData, ep_addr);
 80059e0:	f8d0 02c0 	ldr.w	r0, [r0, #704]	; 0x2c0
 80059e4:	f7fc fe35 	bl	8002652 <HAL_PCD_EP_ClrStall>
  usb_status =  USBD_Get_USB_Status(hal_status);
 80059e8:	f7ff fefa 	bl	80057e0 <USBD_Get_USB_Status>
}
 80059ec:	bd08      	pop	{r3, pc}

080059ee <USBD_LL_IsStallEP>:
  PCD_HandleTypeDef *hpcd = (PCD_HandleTypeDef*) pdev->pData;
 80059ee:	f8d0 32c0 	ldr.w	r3, [r0, #704]	; 0x2c0
  if((ep_addr & 0x80) == 0x80)
 80059f2:	f011 0f80 	tst.w	r1, #128	; 0x80
 80059f6:	d108      	bne.n	8005a0a <USBD_LL_IsStallEP+0x1c>
    return hpcd->OUT_ep[ep_addr & 0x7F].is_stall;
 80059f8:	f001 017f 	and.w	r1, r1, #127	; 0x7f
 80059fc:	eb01 0181 	add.w	r1, r1, r1, lsl #2
 8005a00:	eb03 03c1 	add.w	r3, r3, r1, lsl #3
 8005a04:	f893 016a 	ldrb.w	r0, [r3, #362]	; 0x16a
}
 8005a08:	4770      	bx	lr
    return hpcd->IN_ep[ep_addr & 0x7F].is_stall;
 8005a0a:	f001 017f 	and.w	r1, r1, #127	; 0x7f
 8005a0e:	3101      	adds	r1, #1
 8005a10:	eb01 0181 	add.w	r1, r1, r1, lsl #2
 8005a14:	eb03 03c1 	add.w	r3, r3, r1, lsl #3
 8005a18:	7898      	ldrb	r0, [r3, #2]
 8005a1a:	4770      	bx	lr

08005a1c <USBD_LL_SetUSBAddress>:
{
 8005a1c:	b508      	push	{r3, lr}
  hal_status = HAL_PCD_SetAddress(pdev->pData, dev_addr);
 8005a1e:	f8d0 02c0 	ldr.w	r0, [r0, #704]	; 0x2c0
 8005a22:	f7fb ff0c 	bl	800183e <HAL_PCD_SetAddress>
  usb_status =  USBD_Get_USB_Status(hal_status);
 8005a26:	f7ff fedb 	bl	80057e0 <USBD_Get_USB_Status>
}
 8005a2a:	bd08      	pop	{r3, pc}

08005a2c <USBD_LL_Transmit>:
{
 8005a2c:	b508      	push	{r3, lr}
  hal_status = HAL_PCD_EP_Transmit(pdev->pData, ep_addr, pbuf, size);
 8005a2e:	f8d0 02c0 	ldr.w	r0, [r0, #704]	; 0x2c0
 8005a32:	f7fc fdb8 	bl	80025a6 <HAL_PCD_EP_Transmit>
  usb_status =  USBD_Get_USB_Status(hal_status);
 8005a36:	f7ff fed3 	bl	80057e0 <USBD_Get_USB_Status>
}
 8005a3a:	bd08      	pop	{r3, pc}

08005a3c <USBD_LL_PrepareReceive>:
{
 8005a3c:	b508      	push	{r3, lr}
  hal_status = HAL_PCD_EP_Receive(pdev->pData, ep_addr, pbuf, size);
 8005a3e:	f8d0 02c0 	ldr.w	r0, [r0, #704]	; 0x2c0
 8005a42:	f7fc fd8e 	bl	8002562 <HAL_PCD_EP_Receive>
  usb_status =  USBD_Get_USB_Status(hal_status);
 8005a46:	f7ff fecb 	bl	80057e0 <USBD_Get_USB_Status>
}
 8005a4a:	bd08      	pop	{r3, pc}

08005a4c <USBD_LL_GetRxDataSize>:
{
 8005a4c:	b508      	push	{r3, lr}
  return HAL_PCD_EP_GetRxCount((PCD_HandleTypeDef*) pdev->pData, ep_addr);
 8005a4e:	f8d0 02c0 	ldr.w	r0, [r0, #704]	; 0x2c0
 8005a52:	f7fc fd9f 	bl	8002594 <HAL_PCD_EP_GetRxCount>
}
 8005a56:	bd08      	pop	{r3, pc}

08005a58 <USBD_static_malloc>:
}
 8005a58:	4800      	ldr	r0, [pc, #0]	; (8005a5c <USBD_static_malloc+0x4>)
 8005a5a:	4770      	bx	lr
 8005a5c:	20001418 	.word	0x20001418

08005a60 <USBD_static_free>:
}
 8005a60:	4770      	bx	lr

08005a62 <HAL_PCDEx_SetConnectionState>:
{
 8005a62:	b508      	push	{r3, lr}
  if (state == 1)
 8005a64:	2901      	cmp	r1, #1
	 HAL_GPIO_WritePin(USB_PULLUP_GPIO_Port,USB_PULLUP_Pin,GPIO_PIN_SET);
 8005a66:	bf0c      	ite	eq
 8005a68:	2201      	moveq	r2, #1
	  HAL_GPIO_WritePin(USB_PULLUP_GPIO_Port,USB_PULLUP_Pin,GPIO_PIN_RESET);
 8005a6a:	2200      	movne	r2, #0
 8005a6c:	f44f 6180 	mov.w	r1, #1024	; 0x400
 8005a70:	f04f 4090 	mov.w	r0, #1207959552	; 0x48000000
 8005a74:	f7fb fe52 	bl	800171c <HAL_GPIO_WritePin>
}
 8005a78:	bd08      	pop	{r3, pc}

08005a7a <memset>:
 8005a7a:	4402      	add	r2, r0
 8005a7c:	4603      	mov	r3, r0
 8005a7e:	4293      	cmp	r3, r2
 8005a80:	d100      	bne.n	8005a84 <memset+0xa>
 8005a82:	4770      	bx	lr
 8005a84:	f803 1b01 	strb.w	r1, [r3], #1
 8005a88:	e7f9      	b.n	8005a7e <memset+0x4>
	...

08005a8c <__libc_init_array>:
 8005a8c:	b570      	push	{r4, r5, r6, lr}
 8005a8e:	4d0d      	ldr	r5, [pc, #52]	; (8005ac4 <__libc_init_array+0x38>)
 8005a90:	4c0d      	ldr	r4, [pc, #52]	; (8005ac8 <__libc_init_array+0x3c>)
 8005a92:	1b64      	subs	r4, r4, r5
 8005a94:	10a4      	asrs	r4, r4, #2
 8005a96:	2600      	movs	r6, #0
 8005a98:	42a6      	cmp	r6, r4
 8005a9a:	d109      	bne.n	8005ab0 <__libc_init_array+0x24>
 8005a9c:	4d0b      	ldr	r5, [pc, #44]	; (8005acc <__libc_init_array+0x40>)
 8005a9e:	4c0c      	ldr	r4, [pc, #48]	; (8005ad0 <__libc_init_array+0x44>)
 8005aa0:	f000 f818 	bl	8005ad4 <_init>
 8005aa4:	1b64      	subs	r4, r4, r5
 8005aa6:	10a4      	asrs	r4, r4, #2
 8005aa8:	2600      	movs	r6, #0
 8005aaa:	42a6      	cmp	r6, r4
 8005aac:	d105      	bne.n	8005aba <__libc_init_array+0x2e>
 8005aae:	bd70      	pop	{r4, r5, r6, pc}
 8005ab0:	f855 3b04 	ldr.w	r3, [r5], #4
 8005ab4:	4798      	blx	r3
 8005ab6:	3601      	adds	r6, #1
 8005ab8:	e7ee      	b.n	8005a98 <__libc_init_array+0xc>
 8005aba:	f855 3b04 	ldr.w	r3, [r5], #4
 8005abe:	4798      	blx	r3
 8005ac0:	3601      	adds	r6, #1
 8005ac2:	e7f2      	b.n	8005aaa <__libc_init_array+0x1e>
 8005ac4:	08005b7c 	.word	0x08005b7c
 8005ac8:	08005b7c 	.word	0x08005b7c
 8005acc:	08005b7c 	.word	0x08005b7c
 8005ad0:	08005b84 	.word	0x08005b84

08005ad4 <_init>:
 8005ad4:	b5f8      	push	{r3, r4, r5, r6, r7, lr}
 8005ad6:	bf00      	nop
 8005ad8:	bcf8      	pop	{r3, r4, r5, r6, r7}
 8005ada:	bc08      	pop	{r3}
 8005adc:	469e      	mov	lr, r3
 8005ade:	4770      	bx	lr

08005ae0 <_fini>:
 8005ae0:	b5f8      	push	{r3, r4, r5, r6, r7, lr}
 8005ae2:	bf00      	nop
 8005ae4:	bcf8      	pop	{r3, r4, r5, r6, r7}
 8005ae6:	bc08      	pop	{r3}
 8005ae8:	469e      	mov	lr, r3
 8005aea:	4770      	bx	lr
